	.file	"SimdMain.cpp"
 # GNU C++17 (Rev2, Built by MSYS2 project) version 14.2.0 (x86_64-w64-mingw32)
 #	compiled by GNU C version 14.2.0, GMP version 6.3.0, MPFR version 4.2.1, MPC version 1.3.1, isl version isl-0.27-GMP

 # GGC heuristics: --param ggc-min-expand=100 --param ggc-min-heapsize=131072
 # options passed: -mavx2 -mfma -mavx512f -mtune=generic -march=nocona -g -O3 -fno-tree-vectorize
	.text
.Ltext0:
	.cfi_sections	.debug_frame
	.file 0 "c:/msys64/ucrt64/bin" "C:/Users/MattsDesktop/ECSE6320P1SIMD/SimdMain.cpp"
	.p2align 4
	.globl	_Z12saxpy_scalarIiEvT_PKS0_PS0_y
	.def	_Z12saxpy_scalarIiEvT_PKS0_PS0_y;	.scl	2;	.type	32;	.endef
	.seh_proc	_Z12saxpy_scalarIiEvT_PKS0_PS0_y
_Z12saxpy_scalarIiEvT_PKS0_PS0_y:
.LVL0:
.LFB10035:
	.file 1 "C:/Users/MattsDesktop/ECSE6320P1SIMD/SimdMain.cpp"
	.loc 1 40 79 view -0
	.cfi_startproc
	.loc 1 40 79 is_stmt 0 view .LVU1
	.seh_endprologue
	.loc 1 41 5 is_stmt 1 view .LVU2
.LVL1:
.LBB2571:
	.loc 1 41 26 discriminator 1 view .LVU3
	testq	%r9, %r9	 # n
	je	.L8	 #,
 # C:\Users\MattsDesktop\ECSE6320P1SIMD\SimdMain.cpp:41:     for (size_t i = 0; i < n; ++i) {
	.loc 1 41 17 is_stmt 0 view .LVU4
	xorl	%eax, %eax	 # i
.LVL2:
	.loc 1 41 17 view .LVU5
	.p2align 5
	.p2align 4
	.p2align 3
.L3:
.LVL3:
	.loc 1 42 9 is_stmt 1 view .LVU6
 # C:\Users\MattsDesktop\ECSE6320P1SIMD\SimdMain.cpp:42:         y[i] = a * x[i] + y[i];
	.loc 1 42 18 is_stmt 0 view .LVU7
	movl	(%rdx,%rax,4), %r10d	 # MEM[(const int32_t *)x_12(D) + i_19 * 4], _4
	imull	%ecx, %r10d	 # a, _4
 # C:\Users\MattsDesktop\ECSE6320P1SIMD\SimdMain.cpp:42:         y[i] = a * x[i] + y[i];
	.loc 1 42 25 view .LVU8
	addl	%r10d, (%r8,%rax,4)	 # _4, MEM[(int32_t *)y_14(D) + i_19 * 4]
	.loc 1 41 5 is_stmt 1 discriminator 3 view .LVU9
	addq	$1, %rax	 #, i
.LVL4:
	.loc 1 41 26 discriminator 1 view .LVU10
	cmpq	%rax, %r9	 # i, n
	jne	.L3	 #,
.LVL5:
.L8:
	.loc 1 41 26 is_stmt 0 discriminator 1 view .LVU11
.LBE2571:
 # C:\Users\MattsDesktop\ECSE6320P1SIMD\SimdMain.cpp:44: }
	.loc 1 44 1 view .LVU12
	ret	
	.cfi_endproc
.LFE10035:
	.seh_endproc
	.p2align 4
	.globl	_Z9saxpy_avxIiEvT_PKS0_PS0_y
	.def	_Z9saxpy_avxIiEvT_PKS0_PS0_y;	.scl	2;	.type	32;	.endef
	.seh_proc	_Z9saxpy_avxIiEvT_PKS0_PS0_y
_Z9saxpy_avxIiEvT_PKS0_PS0_y:
.LVL6:
.LFB10038:
	.loc 1 77 76 is_stmt 1 view -0
	.cfi_startproc
	.loc 1 77 76 is_stmt 0 view .LVU14
	.seh_endprologue
	.loc 1 78 5 is_stmt 1 view .LVU15
.LVL7:
.LBB2572:
.LBI2572:
	.file 2 "C:/msys64/ucrt64/lib/gcc/x86_64-w64-mingw32/14.2.0/include/avxintrin.h"
	.loc 2 1335 1 view .LVU16
.LBB2573:
	.loc 2 1337 3 view .LVU17
 # C:/msys64/ucrt64/lib/gcc/x86_64-w64-mingw32/14.2.0/include/avxintrin.h:1337:   return __extension__ (__m256i)(__v8si){ __A, __A, __A, __A,
	.loc 2 1337 24 is_stmt 0 view .LVU18
	vmovd	%ecx, %xmm1	 # a, tmp173
	vpbroadcastd	%xmm1, %ymm1	 # tmp173, tmp173
.LVL8:
	.loc 2 1337 24 view .LVU19
.LBE2573:
.LBE2572:
	.loc 1 79 5 is_stmt 1 view .LVU20
	.loc 1 80 5 view .LVU21
.LBB2574:
	.loc 1 80 18 discriminator 1 view .LVU22
	cmpq	$7, %r9	 #, n
	jbe	.L16	 #,
	leaq	-8(%r9), %r11	 #, _108
	movq	%r11, %rax	 # _108, _109
	shrq	$3, %rax	 #, _109
	leaq	8(,%rax,8), %r10	 #, _111
.LBE2574:
 # C:\Users\MattsDesktop\ECSE6320P1SIMD\SimdMain.cpp:79:     size_t i = 0;
	.loc 1 79 12 is_stmt 0 view .LVU23
	xorl	%eax, %eax	 # i
.LVL9:
	.loc 1 79 12 view .LVU24
	.p2align 5
	.p2align 4
	.p2align 3
.L12:
.LVL10:
.LBB2592:
.LBB2575:
	.loc 1 81 9 is_stmt 1 view .LVU25
.LBB2576:
.LBI2576:
	.loc 2 915 1 view .LVU26
.LBB2577:
	.loc 2 917 3 view .LVU27
	.loc 2 917 3 is_stmt 0 view .LVU28
.LBE2577:
.LBE2576:
	.loc 1 82 9 is_stmt 1 view .LVU29
.LBB2578:
.LBI2578:
	.loc 2 915 1 view .LVU30
.LBB2579:
	.loc 2 917 3 view .LVU31
	.loc 2 917 3 is_stmt 0 view .LVU32
.LBE2579:
.LBE2578:
	.loc 1 83 9 is_stmt 1 view .LVU33
.LBB2580:
.LBI2580:
	.file 3 "C:/msys64/ucrt64/lib/gcc/x86_64-w64-mingw32/14.2.0/include/avx2intrin.h"
	.loc 3 560 1 view .LVU34
.LBB2581:
	.loc 3 562 3 view .LVU35
	.loc 3 562 3 is_stmt 0 view .LVU36
.LBE2581:
.LBE2580:
	.loc 1 84 9 is_stmt 1 view .LVU37
.LBB2583:
.LBI2583:
	.loc 3 119 1 view .LVU38
.LBB2584:
	.loc 3 121 3 view .LVU39
	.loc 3 121 3 is_stmt 0 view .LVU40
.LBE2584:
.LBE2583:
	.loc 1 85 9 is_stmt 1 view .LVU41
.LBB2586:
.LBI2586:
	.loc 2 933 1 view .LVU42
.LBB2587:
	.loc 2 935 3 view .LVU43
.LBE2587:
.LBE2586:
.LBB2589:
.LBB2582:
 # C:/msys64/ucrt64/lib/gcc/x86_64-w64-mingw32/14.2.0/include/avx2intrin.h:562:   return (__m256i) ((__v8su)__A * (__v8su)__B);
	.loc 3 562 33 is_stmt 0 view .LVU44
	vpmulld	(%rdx,%rax,4), %ymm1, %ymm0	 # MEM[(const __m256i * {ref-all})x_20(D) + i_39 * 4], tmp173, _30
.LBE2582:
.LBE2589:
.LBB2590:
.LBB2585:
 # C:/msys64/ucrt64/lib/gcc/x86_64-w64-mingw32/14.2.0/include/avx2intrin.h:121:   return (__m256i) ((__v8su)__A + (__v8su)__B);
	.loc 3 121 33 view .LVU45
	vpaddd	(%r8,%rax,4), %ymm0, %ymm0	 # MEM[(const __m256i * {ref-all})y_21(D) + i_39 * 4], _30, _18
.LBE2585:
.LBE2590:
.LBB2591:
.LBB2588:
 # C:/msys64/ucrt64/lib/gcc/x86_64-w64-mingw32/14.2.0/include/avxintrin.h:935:   *__P = __A;
	.loc 2 935 8 view .LVU46
	vmovdqu	%ymm0, (%r8,%rax,4)	 # _18, MEM[(__m256i_u * {ref-all})y_21(D) + i_39 * 4]
.LVL11:
	.loc 2 935 8 view .LVU47
.LBE2588:
.LBE2591:
.LBE2575:
	.loc 1 80 5 is_stmt 1 discriminator 2 view .LVU48
 # C:\Users\MattsDesktop\ECSE6320P1SIMD\SimdMain.cpp:80:     for (; i + 7 < n; i += 8) {
	.loc 1 80 25 is_stmt 0 discriminator 2 view .LVU49
	addq	$8, %rax	 #, i
.LVL12:
	.loc 1 80 18 is_stmt 1 discriminator 1 view .LVU50
	cmpq	%r10, %rax	 # _111, i
	jne	.L12	 #,
	andq	$-8, %r11	 #, _68
	leaq	8(%r11), %rax	 #, i
.LVL13:
.L11:
	.loc 1 80 18 is_stmt 0 discriminator 1 view .LVU51
.LBE2592:
	.loc 1 87 14 is_stmt 1 discriminator 1 view .LVU52
	cmpq	%r9, %rax	 # n, i
	jnb	.L18	 #,
	.loc 1 87 24 discriminator 2 view .LVU53
 # C:\Users\MattsDesktop\ECSE6320P1SIMD\SimdMain.cpp:87:     for (; i < n; ++i) y[i] = a * x[i] + y[i];
	.loc 1 87 33 is_stmt 0 discriminator 2 view .LVU54
	movl	(%rdx,%rax,4), %r10d	 # *_63, _61
	imull	%ecx, %r10d	 # a, _61
 # C:\Users\MattsDesktop\ECSE6320P1SIMD\SimdMain.cpp:87:     for (; i < n; ++i) y[i] = a * x[i] + y[i];
	.loc 1 87 40 discriminator 2 view .LVU55
	addl	%r10d, (%r8,%rax,4)	 # _61, *_60
	.loc 1 87 5 is_stmt 1 discriminator 2 view .LVU56
	leaq	1(%rax), %r10	 #, i
.LVL14:
	.loc 1 87 14 discriminator 1 view .LVU57
	cmpq	%r9, %r10	 # n, i
	jnb	.L18	 #,
	.loc 1 87 24 discriminator 2 view .LVU58
 # C:\Users\MattsDesktop\ECSE6320P1SIMD\SimdMain.cpp:87:     for (; i < n; ++i) y[i] = a * x[i] + y[i];
	.loc 1 87 33 is_stmt 0 discriminator 2 view .LVU59
	movl	(%rdx,%r10,4), %r11d	 # *_52, _50
	imull	%ecx, %r11d	 # a, _50
 # C:\Users\MattsDesktop\ECSE6320P1SIMD\SimdMain.cpp:87:     for (; i < n; ++i) y[i] = a * x[i] + y[i];
	.loc 1 87 40 discriminator 2 view .LVU60
	addl	%r11d, (%r8,%r10,4)	 # _50, *_49
	.loc 1 87 5 is_stmt 1 discriminator 2 view .LVU61
	leaq	2(%rax), %r10	 #, i
.LVL15:
	.loc 1 87 14 discriminator 1 view .LVU62
	cmpq	%r9, %r10	 # n, i
	jnb	.L18	 #,
	.loc 1 87 24 discriminator 2 view .LVU63
 # C:\Users\MattsDesktop\ECSE6320P1SIMD\SimdMain.cpp:87:     for (; i < n; ++i) y[i] = a * x[i] + y[i];
	.loc 1 87 33 is_stmt 0 discriminator 2 view .LVU64
	movl	(%rdx,%r10,4), %r11d	 # *_34, _14
	imull	%ecx, %r11d	 # a, _14
 # C:\Users\MattsDesktop\ECSE6320P1SIMD\SimdMain.cpp:87:     for (; i < n; ++i) y[i] = a * x[i] + y[i];
	.loc 1 87 40 discriminator 2 view .LVU65
	addl	%r11d, (%r8,%r10,4)	 # _14, *_13
	.loc 1 87 5 is_stmt 1 discriminator 2 view .LVU66
	leaq	3(%rax), %r10	 #, i
.LVL16:
	.loc 1 87 14 discriminator 1 view .LVU67
	cmpq	%r9, %r10	 # n, i
	jnb	.L18	 #,
	.loc 1 87 24 discriminator 2 view .LVU68
 # C:\Users\MattsDesktop\ECSE6320P1SIMD\SimdMain.cpp:87:     for (; i < n; ++i) y[i] = a * x[i] + y[i];
	.loc 1 87 33 is_stmt 0 discriminator 2 view .LVU69
	movl	(%rdx,%r10,4), %r11d	 # *_78, _80
	imull	%ecx, %r11d	 # a, _80
 # C:\Users\MattsDesktop\ECSE6320P1SIMD\SimdMain.cpp:87:     for (; i < n; ++i) y[i] = a * x[i] + y[i];
	.loc 1 87 40 discriminator 2 view .LVU70
	addl	%r11d, (%r8,%r10,4)	 # _80, *_81
	.loc 1 87 5 is_stmt 1 discriminator 2 view .LVU71
	leaq	4(%rax), %r10	 #, i
.LVL17:
	.loc 1 87 14 discriminator 1 view .LVU72
	cmpq	%r9, %r10	 # n, i
	jnb	.L18	 #,
	.loc 1 87 24 discriminator 2 view .LVU73
 # C:\Users\MattsDesktop\ECSE6320P1SIMD\SimdMain.cpp:87:     for (; i < n; ++i) y[i] = a * x[i] + y[i];
	.loc 1 87 33 is_stmt 0 discriminator 2 view .LVU74
	movl	(%rdx,%r10,4), %r11d	 # *_89, _91
	imull	%ecx, %r11d	 # a, _91
 # C:\Users\MattsDesktop\ECSE6320P1SIMD\SimdMain.cpp:87:     for (; i < n; ++i) y[i] = a * x[i] + y[i];
	.loc 1 87 40 discriminator 2 view .LVU75
	addl	%r11d, (%r8,%r10,4)	 # _91, *_92
	.loc 1 87 5 is_stmt 1 discriminator 2 view .LVU76
	leaq	5(%rax), %r10	 #, i
.LVL18:
	.loc 1 87 14 discriminator 1 view .LVU77
	cmpq	%r9, %r10	 # n, i
	jnb	.L18	 #,
	.loc 1 87 24 discriminator 2 view .LVU78
 # C:\Users\MattsDesktop\ECSE6320P1SIMD\SimdMain.cpp:87:     for (; i < n; ++i) y[i] = a * x[i] + y[i];
	.loc 1 87 33 is_stmt 0 discriminator 2 view .LVU79
	movl	(%rdx,%r10,4), %r11d	 # *_100, _102
 # C:\Users\MattsDesktop\ECSE6320P1SIMD\SimdMain.cpp:87:     for (; i < n; ++i) y[i] = a * x[i] + y[i];
	.loc 1 87 5 discriminator 2 view .LVU80
	addq	$6, %rax	 #, i
 # C:\Users\MattsDesktop\ECSE6320P1SIMD\SimdMain.cpp:87:     for (; i < n; ++i) y[i] = a * x[i] + y[i];
	.loc 1 87 33 discriminator 2 view .LVU81
	imull	%ecx, %r11d	 # a, _102
 # C:\Users\MattsDesktop\ECSE6320P1SIMD\SimdMain.cpp:87:     for (; i < n; ++i) y[i] = a * x[i] + y[i];
	.loc 1 87 40 discriminator 2 view .LVU82
	addl	%r11d, (%r8,%r10,4)	 # _102, *_103
	.loc 1 87 5 is_stmt 1 discriminator 2 view .LVU83
.LVL19:
	.loc 1 87 14 discriminator 1 view .LVU84
	cmpq	%r9, %rax	 # n, i
	jnb	.L18	 #,
	.loc 1 87 24 discriminator 2 view .LVU85
 # C:\Users\MattsDesktop\ECSE6320P1SIMD\SimdMain.cpp:87:     for (; i < n; ++i) y[i] = a * x[i] + y[i];
	.loc 1 87 33 is_stmt 0 discriminator 2 view .LVU86
	imull	(%rdx,%rax,4), %ecx	 # *_6, _8
.LVL20:
 # C:\Users\MattsDesktop\ECSE6320P1SIMD\SimdMain.cpp:87:     for (; i < n; ++i) y[i] = a * x[i] + y[i];
	.loc 1 87 40 discriminator 2 view .LVU87
	addl	%ecx, (%r8,%rax,4)	 # _8, *_9
	.loc 1 87 5 is_stmt 1 discriminator 2 view .LVU88
.LVL21:
	.loc 1 87 14 discriminator 1 view .LVU89
.L18:
	.loc 1 87 14 is_stmt 0 discriminator 1 view .LVU90
	vzeroupper
.LVL22:
 # C:\Users\MattsDesktop\ECSE6320P1SIMD\SimdMain.cpp:88: }
	.loc 1 88 1 view .LVU91
	ret	
.LVL23:
	.p2align 4,,10
	.p2align 3
.L16:
 # C:\Users\MattsDesktop\ECSE6320P1SIMD\SimdMain.cpp:79:     size_t i = 0;
	.loc 1 79 12 view .LVU92
	xorl	%eax, %eax	 # i
	jmp	.L11	 #
	.cfi_endproc
.LFE10038:
	.seh_endproc
	.p2align 4
	.globl	_Z10saxpy_sse2IfEvT_PKS0_PS0_y
	.def	_Z10saxpy_sse2IfEvT_PKS0_PS0_y;	.scl	2;	.type	32;	.endef
	.seh_proc	_Z10saxpy_sse2IfEvT_PKS0_PS0_y
_Z10saxpy_sse2IfEvT_PKS0_PS0_y:
.LVL24:
.LFB10042:
	.loc 1 161 69 is_stmt 1 view -0
	.cfi_startproc
	.loc 1 161 69 is_stmt 0 view .LVU94
	.seh_endprologue
	.loc 1 162 5 is_stmt 1 view .LVU95
.LVL25:
.LBB2593:
.LBI2593:
	.file 4 "C:/msys64/ucrt64/lib/gcc/x86_64-w64-mingw32/14.2.0/include/xmmintrin.h"
	.loc 4 898 1 view .LVU96
.LBB2594:
	.loc 4 900 3 view .LVU97
 # C:/msys64/ucrt64/lib/gcc/x86_64-w64-mingw32/14.2.0/include/xmmintrin.h:900:   return __extension__ (__m128)(__v4sf){ __F, __F, __F, __F };
	.loc 4 900 61 is_stmt 0 view .LVU98
	vbroadcastss	%xmm0, %xmm2	 # a, _27
.LVL26:
	.loc 4 900 61 view .LVU99
.LBE2594:
.LBE2593:
	.loc 1 163 5 is_stmt 1 view .LVU100
	.loc 1 164 5 view .LVU101
.LBB2595:
	.loc 1 164 18 discriminator 1 view .LVU102
	cmpq	$3, %r9	 #, n
	jbe	.L24	 #,
	leaq	-4(%r9), %rcx	 #, _13
	movq	%rcx, %rax	 # _13, _12
	shrq	$2, %rax	 #, _12
	leaq	4(,%rax,4), %r10	 #, _63
.LBE2595:
 # C:\Users\MattsDesktop\ECSE6320P1SIMD\SimdMain.cpp:163:     size_t i = 0;
	.loc 1 163 12 is_stmt 0 view .LVU103
	xorl	%eax, %eax	 # i
.LVL27:
	.loc 1 163 12 view .LVU104
	.p2align 5
	.p2align 4
	.p2align 3
.L21:
.LVL28:
.LBB2605:
.LBB2596:
	.loc 1 165 9 is_stmt 1 view .LVU105
.LBB2597:
.LBI2597:
	.loc 4 931 1 view .LVU106
.LBB2598:
	.loc 4 933 3 view .LVU107
	.loc 4 933 3 is_stmt 0 view .LVU108
.LBE2598:
.LBE2597:
	.loc 1 166 9 is_stmt 1 view .LVU109
.LBB2599:
.LBI2599:
	.loc 4 931 1 view .LVU110
.LBB2600:
	.loc 4 933 3 view .LVU111
	.loc 4 933 3 is_stmt 0 view .LVU112
.LBE2600:
.LBE2599:
	.loc 1 167 9 is_stmt 1 view .LVU113
.LBB2601:
.LBI2601:
	.loc 4 190 1 view .LVU114
.LBB2602:
	.loc 4 192 3 view .LVU115
 # C:/msys64/ucrt64/lib/gcc/x86_64-w64-mingw32/14.2.0/include/xmmintrin.h:192:   return (__m128) ((__v4sf)__A + (__v4sf)__B);
	.loc 4 192 45 is_stmt 0 view .LVU116
	vmovups	(%rdx,%rax,4), %xmm1	 # MEM[(__m128 * {ref-all})x_20(D) + i_35 * 4], _26
	vfmadd213ps	(%r8,%rax,4), %xmm2, %xmm1	 # MEM[(__m128 * {ref-all})y_21(D) + i_35 * 4], _27, _26
.LVL29:
	.loc 4 192 45 view .LVU117
.LBE2602:
.LBE2601:
	.loc 1 168 9 is_stmt 1 view .LVU118
.LBB2603:
.LBI2603:
	.loc 4 987 1 view .LVU119
.LBB2604:
	.loc 4 989 3 view .LVU120
 # C:/msys64/ucrt64/lib/gcc/x86_64-w64-mingw32/14.2.0/include/xmmintrin.h:989:   *(__m128_u *)__P = __A;
	.loc 4 989 20 is_stmt 0 view .LVU121
	vmovups	%xmm1, (%r8,%rax,4)	 # _26, MEM[(__m128_u * {ref-all})y_21(D) + i_35 * 4]
.LVL30:
	.loc 4 989 20 view .LVU122
.LBE2604:
.LBE2603:
.LBE2596:
	.loc 1 164 5 is_stmt 1 discriminator 2 view .LVU123
 # C:\Users\MattsDesktop\ECSE6320P1SIMD\SimdMain.cpp:164:     for (; i + 3 < n; i += 4) {
	.loc 1 164 25 is_stmt 0 discriminator 2 view .LVU124
	addq	$4, %rax	 #, i
.LVL31:
	.loc 1 164 18 is_stmt 1 discriminator 1 view .LVU125
	cmpq	%r10, %rax	 # _63, i
	jne	.L21	 #,
	andq	$-4, %rcx	 #, _57
	leaq	4(%rcx), %rax	 #, i
.LVL32:
.L20:
	.loc 1 164 18 is_stmt 0 discriminator 1 view .LVU126
.LBE2605:
	.loc 1 170 14 is_stmt 1 discriminator 1 view .LVU127
	cmpq	%r9, %rax	 # n, i
	jnb	.L26	 #,
	.loc 1 170 24 discriminator 2 view .LVU128
 # C:\Users\MattsDesktop\ECSE6320P1SIMD\SimdMain.cpp:170:     for (; i < n; ++i) y[i] = a * x[i] + y[i];
	.loc 1 170 45 is_stmt 0 discriminator 2 view .LVU129
	leaq	(%r8,%rax,4), %rcx	 #, _50
 # C:\Users\MattsDesktop\ECSE6320P1SIMD\SimdMain.cpp:170:     for (; i < n; ++i) y[i] = a * x[i] + y[i];
	.loc 1 170 40 discriminator 2 view .LVU130
	vmovss	(%rdx,%rax,4), %xmm1	 # *_53, _48
	vfmadd213ss	(%rcx), %xmm0, %xmm1	 # *_50, a, _48
 # C:\Users\MattsDesktop\ECSE6320P1SIMD\SimdMain.cpp:170:     for (; i < n; ++i) y[i] = a * x[i] + y[i];
	.loc 1 170 29 discriminator 2 view .LVU131
	vmovss	%xmm1, (%rcx)	 # _48, *_50
	.loc 1 170 5 is_stmt 1 discriminator 2 view .LVU132
	leaq	1(%rax), %rcx	 #, i
.LVL33:
	.loc 1 170 14 discriminator 1 view .LVU133
	cmpq	%r9, %rcx	 # n, i
	jnb	.L26	 #,
	.loc 1 170 24 discriminator 2 view .LVU134
 # C:\Users\MattsDesktop\ECSE6320P1SIMD\SimdMain.cpp:170:     for (; i < n; ++i) y[i] = a * x[i] + y[i];
	.loc 1 170 45 is_stmt 0 discriminator 2 view .LVU135
	leaq	(%r8,%rcx,4), %r10	 #, _32
 # C:\Users\MattsDesktop\ECSE6320P1SIMD\SimdMain.cpp:170:     for (; i < n; ++i) y[i] = a * x[i] + y[i];
	.loc 1 170 40 discriminator 2 view .LVU136
	vmovss	(%rdx,%rcx,4), %xmm1	 # *_42, _30
 # C:\Users\MattsDesktop\ECSE6320P1SIMD\SimdMain.cpp:170:     for (; i < n; ++i) y[i] = a * x[i] + y[i];
	.loc 1 170 5 discriminator 2 view .LVU137
	addq	$2, %rax	 #, i
 # C:\Users\MattsDesktop\ECSE6320P1SIMD\SimdMain.cpp:170:     for (; i < n; ++i) y[i] = a * x[i] + y[i];
	.loc 1 170 40 discriminator 2 view .LVU138
	vfmadd213ss	(%r10), %xmm0, %xmm1	 # *_32, a, _30
 # C:\Users\MattsDesktop\ECSE6320P1SIMD\SimdMain.cpp:170:     for (; i < n; ++i) y[i] = a * x[i] + y[i];
	.loc 1 170 29 discriminator 2 view .LVU139
	vmovss	%xmm1, (%r10)	 # _30, *_32
	.loc 1 170 5 is_stmt 1 discriminator 2 view .LVU140
.LVL34:
	.loc 1 170 14 discriminator 1 view .LVU141
	cmpq	%r9, %rax	 # n, i
	jnb	.L26	 #,
	.loc 1 170 24 discriminator 2 view .LVU142
 # C:\Users\MattsDesktop\ECSE6320P1SIMD\SimdMain.cpp:170:     for (; i < n; ++i) y[i] = a * x[i] + y[i];
	.loc 1 170 45 is_stmt 0 discriminator 2 view .LVU143
	leaq	(%r8,%rax,4), %rcx	 #, _9
 # C:\Users\MattsDesktop\ECSE6320P1SIMD\SimdMain.cpp:170:     for (; i < n; ++i) y[i] = a * x[i] + y[i];
	.loc 1 170 40 discriminator 2 view .LVU144
	vmovss	(%rcx), %xmm3	 # *_9, tmp146
	vfmadd132ss	(%rdx,%rax,4), %xmm3, %xmm0	 # *_6, tmp146, _11
.LVL35:
 # C:\Users\MattsDesktop\ECSE6320P1SIMD\SimdMain.cpp:170:     for (; i < n; ++i) y[i] = a * x[i] + y[i];
	.loc 1 170 29 discriminator 2 view .LVU145
	vmovss	%xmm0, (%rcx)	 # _11, *_9
	.loc 1 170 5 is_stmt 1 discriminator 2 view .LVU146
.LVL36:
	.loc 1 170 14 discriminator 1 view .LVU147
.L26:
 # C:\Users\MattsDesktop\ECSE6320P1SIMD\SimdMain.cpp:171: }
	.loc 1 171 1 is_stmt 0 view .LVU148
	ret	
.LVL37:
	.p2align 4,,10
	.p2align 3
.L24:
 # C:\Users\MattsDesktop\ECSE6320P1SIMD\SimdMain.cpp:163:     size_t i = 0;
	.loc 1 163 12 view .LVU149
	xorl	%eax, %eax	 # i
	jmp	.L20	 #
	.cfi_endproc
.LFE10042:
	.seh_endproc
	.p2align 4
	.globl	_Z10saxpy_sse2IdEvT_PKS0_PS0_y
	.def	_Z10saxpy_sse2IdEvT_PKS0_PS0_y;	.scl	2;	.type	32;	.endef
	.seh_proc	_Z10saxpy_sse2IdEvT_PKS0_PS0_y
_Z10saxpy_sse2IdEvT_PKS0_PS0_y:
.LVL38:
.LFB10043:
	.loc 1 175 73 is_stmt 1 view -0
	.cfi_startproc
	.loc 1 175 73 is_stmt 0 view .LVU151
	.seh_endprologue
	.loc 1 176 5 is_stmt 1 view .LVU152
.LVL39:
.LBB2606:
.LBI2606:
	.file 5 "C:/msys64/ucrt64/lib/gcc/x86_64-w64-mingw32/14.2.0/include/emmintrin.h"
	.loc 5 73 1 view .LVU153
.LBB2607:
	.loc 5 75 3 view .LVU154
 # C:/msys64/ucrt64/lib/gcc/x86_64-w64-mingw32/14.2.0/include/emmintrin.h:75:   return __extension__ (__m128d){ __F, __F };
	.loc 5 75 44 is_stmt 0 view .LVU155
	vmovddup	%xmm0, %xmm2	 # a, _27
.LVL40:
	.loc 5 75 44 view .LVU156
.LBE2607:
.LBE2606:
	.loc 1 177 5 is_stmt 1 view .LVU157
	.loc 1 178 5 view .LVU158
.LBB2608:
	.loc 1 178 18 discriminator 1 view .LVU159
	cmpq	$1, %r9	 #, n
	jbe	.L31	 #,
	leaq	-2(%r9), %r10	 #, _30
	movq	%r10, %rax	 # _30, _23
	shrq	%rax	 # _23
	leaq	2(%rax,%rax), %rcx	 #, _14
.LBE2608:
 # C:\Users\MattsDesktop\ECSE6320P1SIMD\SimdMain.cpp:177:     size_t i = 0;
	.loc 1 177 12 is_stmt 0 view .LVU160
	xorl	%eax, %eax	 # i
.LVL41:
	.loc 1 177 12 view .LVU161
	.p2align 5
	.p2align 4
	.p2align 3
.L29:
.LVL42:
.LBB2618:
.LBB2609:
	.loc 1 179 9 is_stmt 1 view .LVU162
.LBB2610:
.LBI2610:
	.loc 5 125 1 view .LVU163
.LBB2611:
	.loc 5 127 3 view .LVU164
	.loc 5 127 3 is_stmt 0 view .LVU165
.LBE2611:
.LBE2610:
	.loc 1 180 9 is_stmt 1 view .LVU166
.LBB2612:
.LBI2612:
	.loc 5 125 1 view .LVU167
.LBB2613:
	.loc 5 127 3 view .LVU168
	.loc 5 127 3 is_stmt 0 view .LVU169
.LBE2613:
.LBE2612:
	.loc 1 181 9 is_stmt 1 view .LVU170
.LBB2614:
.LBI2614:
	.loc 5 249 1 view .LVU171
.LBB2615:
	.loc 5 251 3 view .LVU172
 # C:/msys64/ucrt64/lib/gcc/x86_64-w64-mingw32/14.2.0/include/emmintrin.h:251:   return (__m128d) ((__v2df)__A + (__v2df)__B);
	.loc 5 251 46 is_stmt 0 view .LVU173
	vmovupd	(%rdx,%rax,8), %xmm1	 # MEM[(__m128d * {ref-all})x_20(D) + i_15 * 8], _26
	vfmadd213pd	(%r8,%rax,8), %xmm2, %xmm1	 # MEM[(__m128d * {ref-all})y_21(D) + i_15 * 8], _27, _26
.LVL43:
	.loc 5 251 46 view .LVU174
.LBE2615:
.LBE2614:
	.loc 1 182 9 is_stmt 1 view .LVU175
.LBB2616:
.LBI2616:
	.loc 5 174 1 view .LVU176
.LBB2617:
	.loc 5 176 3 view .LVU177
 # C:/msys64/ucrt64/lib/gcc/x86_64-w64-mingw32/14.2.0/include/emmintrin.h:176:   *(__m128d_u *)__P = __A;
	.loc 5 176 21 is_stmt 0 view .LVU178
	vmovupd	%xmm1, (%r8,%rax,8)	 # _26, MEM[(__m128d_u * {ref-all})y_21(D) + i_15 * 8]
.LVL44:
	.loc 5 176 21 view .LVU179
.LBE2617:
.LBE2616:
.LBE2609:
	.loc 1 178 5 is_stmt 1 discriminator 2 view .LVU180
 # C:\Users\MattsDesktop\ECSE6320P1SIMD\SimdMain.cpp:178:     for (; i + 1 < n; i += 2) {
	.loc 1 178 25 is_stmt 0 discriminator 2 view .LVU181
	addq	$2, %rax	 #, i
.LVL45:
	.loc 1 178 18 is_stmt 1 discriminator 1 view .LVU182
	cmpq	%rax, %rcx	 # i, _14
	jne	.L29	 #,
	andq	$-2, %r10	 #, _31
	leaq	2(%r10), %rax	 #, i
.LVL46:
.L28:
	.loc 1 178 18 is_stmt 0 discriminator 1 view .LVU183
.LBE2618:
	.loc 1 184 14 is_stmt 1 discriminator 1 view .LVU184
	cmpq	%r9, %rax	 # n, i
	jnb	.L33	 #,
	.loc 1 184 24 discriminator 2 view .LVU185
 # C:\Users\MattsDesktop\ECSE6320P1SIMD\SimdMain.cpp:184:     for (; i < n; ++i) y[i] = a * x[i] + y[i];
	.loc 1 184 45 is_stmt 0 discriminator 2 view .LVU186
	leaq	(%r8,%rax,8), %rcx	 #, _36
 # C:\Users\MattsDesktop\ECSE6320P1SIMD\SimdMain.cpp:184:     for (; i < n; ++i) y[i] = a * x[i] + y[i];
	.loc 1 184 40 discriminator 2 view .LVU187
	vmovsd	(%rcx), %xmm3	 # *_36, tmp130
	vfmadd132sd	(%rdx,%rax,8), %xmm3, %xmm0	 # *_33, tmp130, _38
.LVL47:
 # C:\Users\MattsDesktop\ECSE6320P1SIMD\SimdMain.cpp:184:     for (; i < n; ++i) y[i] = a * x[i] + y[i];
	.loc 1 184 29 discriminator 2 view .LVU188
	vmovsd	%xmm0, (%rcx)	 # _38, *_36
	.loc 1 184 5 is_stmt 1 discriminator 2 view .LVU189
.LVL48:
	.loc 1 184 14 discriminator 1 view .LVU190
.L33:
 # C:\Users\MattsDesktop\ECSE6320P1SIMD\SimdMain.cpp:185: }
	.loc 1 185 1 is_stmt 0 view .LVU191
	ret	
.LVL49:
	.p2align 4,,10
	.p2align 3
.L31:
 # C:\Users\MattsDesktop\ECSE6320P1SIMD\SimdMain.cpp:177:     size_t i = 0;
	.loc 1 177 12 view .LVU192
	xorl	%eax, %eax	 # i
	jmp	.L28	 #
	.cfi_endproc
.LFE10043:
	.seh_endproc
	.p2align 4
	.globl	_Z10saxpy_sse2IiEvT_PKS0_PS0_y
	.def	_Z10saxpy_sse2IiEvT_PKS0_PS0_y;	.scl	2;	.type	32;	.endef
	.seh_proc	_Z10saxpy_sse2IiEvT_PKS0_PS0_y
_Z10saxpy_sse2IiEvT_PKS0_PS0_y:
.LVL50:
.LFB10044:
	.loc 1 188 77 is_stmt 1 view -0
	.cfi_startproc
	.loc 1 188 77 is_stmt 0 view .LVU194
	.seh_endprologue
	.loc 1 189 5 is_stmt 1 view .LVU195
.LVL51:
.LBB2619:
.LBI2619:
	.loc 5 645 1 view .LVU196
	.loc 5 647 3 view .LVU197
.LBB2620:
.LBI2620:
	.loc 5 605 1 view .LVU198
.LBB2621:
	.loc 5 607 3 view .LVU199
 # C:/msys64/ucrt64/lib/gcc/x86_64-w64-mingw32/14.2.0/include/emmintrin.h:607:   return __extension__ (__m128i)(__v4si){ __q0, __q1, __q2, __q3 };
	.loc 5 607 24 is_stmt 0 view .LVU200
	vmovd	%ecx, %xmm2	 # a, a
	vpbroadcastd	%xmm2, %xmm1	 # a, tmp141
.LVL52:
	.loc 5 607 24 view .LVU201
.LBE2621:
.LBE2620:
.LBE2619:
	.loc 1 190 5 is_stmt 1 view .LVU202
	.loc 1 191 5 view .LVU203
.LBB2622:
	.loc 1 191 18 discriminator 1 view .LVU204
	cmpq	$3, %r9	 #, n
	jbe	.L40	 #,
	leaq	-4(%r9), %r10	 #, _37
	movq	%r10, %rax	 # _37, _36
	shrq	$2, %rax	 #, _36
	leaq	4(,%rax,4), %r11	 #, _34
.LBE2622:
 # C:\Users\MattsDesktop\ECSE6320P1SIMD\SimdMain.cpp:190:     size_t i = 0;
	.loc 1 190 12 is_stmt 0 view .LVU205
	xorl	%eax, %eax	 # i
.LVL53:
	.loc 1 190 12 view .LVU206
	.p2align 5
	.p2align 4
	.p2align 3
.L36:
.LVL54:
.LBB2640:
.LBB2623:
	.loc 1 192 9 is_stmt 1 view .LVU207
.LBB2624:
.LBI2624:
	.loc 5 698 1 view .LVU208
.LBB2625:
	.loc 5 700 3 view .LVU209
	.loc 5 700 3 is_stmt 0 view .LVU210
.LBE2625:
.LBE2624:
	.loc 1 193 9 is_stmt 1 view .LVU211
.LBB2626:
.LBI2626:
	.loc 5 698 1 view .LVU212
.LBB2627:
	.loc 5 700 3 view .LVU213
	.loc 5 700 3 is_stmt 0 view .LVU214
.LBE2627:
.LBE2626:
	.loc 1 194 9 is_stmt 1 view .LVU215
.LBB2628:
.LBI2628:
	.file 6 "C:/msys64/ucrt64/lib/gcc/x86_64-w64-mingw32/14.2.0/include/smmintrin.h"
	.loc 6 326 1 view .LVU216
.LBB2629:
	.loc 6 328 3 view .LVU217
	.loc 6 328 3 is_stmt 0 view .LVU218
.LBE2629:
.LBE2628:
	.loc 1 195 9 is_stmt 1 view .LVU219
.LBB2631:
.LBI2631:
	.loc 5 1070 1 view .LVU220
.LBB2632:
	.loc 5 1072 3 view .LVU221
	.loc 5 1072 3 is_stmt 0 view .LVU222
.LBE2632:
.LBE2631:
	.loc 1 196 9 is_stmt 1 view .LVU223
.LBB2634:
.LBI2634:
	.loc 5 740 1 view .LVU224
.LBB2635:
	.loc 5 742 3 view .LVU225
.LBE2635:
.LBE2634:
.LBB2637:
.LBB2630:
 # C:/msys64/ucrt64/lib/gcc/x86_64-w64-mingw32/14.2.0/include/smmintrin.h:328:   return (__m128i) ((__v4su)__X * (__v4su)__Y);
	.loc 6 328 33 is_stmt 0 view .LVU226
	vpmulld	(%rdx,%rax,4), %xmm1, %xmm0	 # MEM[(const __m128i * {ref-all})x_20(D) + i_39 * 4], tmp141, _30
.LBE2630:
.LBE2637:
.LBB2638:
.LBB2633:
 # C:/msys64/ucrt64/lib/gcc/x86_64-w64-mingw32/14.2.0/include/emmintrin.h:1072:   return (__m128i) ((__v4su)__A + (__v4su)__B);
	.loc 5 1072 33 view .LVU227
	vpaddd	(%r8,%rax,4), %xmm0, %xmm0	 # MEM[(const __m128i * {ref-all})y_21(D) + i_39 * 4], _30, _18
.LBE2633:
.LBE2638:
.LBB2639:
.LBB2636:
 # C:/msys64/ucrt64/lib/gcc/x86_64-w64-mingw32/14.2.0/include/emmintrin.h:742:   *__P = __B;
	.loc 5 742 8 view .LVU228
	vmovdqu	%xmm0, (%r8,%rax,4)	 # _18, MEM[(__m128i_u * {ref-all})y_21(D) + i_39 * 4]
.LVL55:
	.loc 5 742 8 view .LVU229
.LBE2636:
.LBE2639:
.LBE2623:
	.loc 1 191 5 is_stmt 1 discriminator 2 view .LVU230
 # C:\Users\MattsDesktop\ECSE6320P1SIMD\SimdMain.cpp:191:     for (; i + 3 < n; i += 4) {
	.loc 1 191 25 is_stmt 0 discriminator 2 view .LVU231
	addq	$4, %rax	 #, i
.LVL56:
	.loc 1 191 18 is_stmt 1 discriminator 1 view .LVU232
	cmpq	%r11, %rax	 # _34, i
	jne	.L36	 #,
	andq	$-4, %r10	 #, _68
	leaq	4(%r10), %rax	 #, i
.LVL57:
.L35:
	.loc 1 191 18 is_stmt 0 discriminator 1 view .LVU233
.LBE2640:
	.loc 1 198 14 is_stmt 1 discriminator 1 view .LVU234
	cmpq	%r9, %rax	 # n, i
	jnb	.L42	 #,
	.loc 1 198 24 discriminator 2 view .LVU235
 # C:\Users\MattsDesktop\ECSE6320P1SIMD\SimdMain.cpp:198:     for (; i < n; ++i) y[i] = a * x[i] + y[i];
	.loc 1 198 33 is_stmt 0 discriminator 2 view .LVU236
	movl	(%rdx,%rax,4), %r10d	 # *_63, _61
	imull	%ecx, %r10d	 # a, _61
 # C:\Users\MattsDesktop\ECSE6320P1SIMD\SimdMain.cpp:198:     for (; i < n; ++i) y[i] = a * x[i] + y[i];
	.loc 1 198 40 discriminator 2 view .LVU237
	addl	%r10d, (%r8,%rax,4)	 # _61, *_60
	.loc 1 198 5 is_stmt 1 discriminator 2 view .LVU238
	leaq	1(%rax), %r10	 #, i
.LVL58:
	.loc 1 198 14 discriminator 1 view .LVU239
	cmpq	%r9, %r10	 # n, i
	jnb	.L42	 #,
	.loc 1 198 24 discriminator 2 view .LVU240
 # C:\Users\MattsDesktop\ECSE6320P1SIMD\SimdMain.cpp:198:     for (; i < n; ++i) y[i] = a * x[i] + y[i];
	.loc 1 198 33 is_stmt 0 discriminator 2 view .LVU241
	movl	(%rdx,%r10,4), %r11d	 # *_52, _50
 # C:\Users\MattsDesktop\ECSE6320P1SIMD\SimdMain.cpp:198:     for (; i < n; ++i) y[i] = a * x[i] + y[i];
	.loc 1 198 5 discriminator 2 view .LVU242
	addq	$2, %rax	 #, i
 # C:\Users\MattsDesktop\ECSE6320P1SIMD\SimdMain.cpp:198:     for (; i < n; ++i) y[i] = a * x[i] + y[i];
	.loc 1 198 33 discriminator 2 view .LVU243
	imull	%ecx, %r11d	 # a, _50
 # C:\Users\MattsDesktop\ECSE6320P1SIMD\SimdMain.cpp:198:     for (; i < n; ++i) y[i] = a * x[i] + y[i];
	.loc 1 198 40 discriminator 2 view .LVU244
	addl	%r11d, (%r8,%r10,4)	 # _50, *_49
	.loc 1 198 5 is_stmt 1 discriminator 2 view .LVU245
.LVL59:
	.loc 1 198 14 discriminator 1 view .LVU246
	cmpq	%r9, %rax	 # n, i
	jnb	.L42	 #,
	.loc 1 198 24 discriminator 2 view .LVU247
 # C:\Users\MattsDesktop\ECSE6320P1SIMD\SimdMain.cpp:198:     for (; i < n; ++i) y[i] = a * x[i] + y[i];
	.loc 1 198 33 is_stmt 0 discriminator 2 view .LVU248
	imull	(%rdx,%rax,4), %ecx	 # *_6, _8
.LVL60:
 # C:\Users\MattsDesktop\ECSE6320P1SIMD\SimdMain.cpp:198:     for (; i < n; ++i) y[i] = a * x[i] + y[i];
	.loc 1 198 40 discriminator 2 view .LVU249
	addl	%ecx, (%r8,%rax,4)	 # _8, *_9
	.loc 1 198 5 is_stmt 1 discriminator 2 view .LVU250
.LVL61:
	.loc 1 198 14 discriminator 1 view .LVU251
.L42:
 # C:\Users\MattsDesktop\ECSE6320P1SIMD\SimdMain.cpp:199: }
	.loc 1 199 1 is_stmt 0 view .LVU252
	ret	
.LVL62:
	.p2align 4,,10
	.p2align 3
.L40:
 # C:\Users\MattsDesktop\ECSE6320P1SIMD\SimdMain.cpp:190:     size_t i = 0;
	.loc 1 190 12 view .LVU253
	xorl	%eax, %eax	 # i
	jmp	.L35	 #
	.cfi_endproc
.LFE10044:
	.seh_endproc
	.section	.text$_Z12saxpy_scalarIfEvT_PKS0_PS0_y,"x"
	.linkonce discard
	.p2align 4
	.globl	_Z12saxpy_scalarIfEvT_PKS0_PS0_y
	.def	_Z12saxpy_scalarIfEvT_PKS0_PS0_y;	.scl	2;	.type	32;	.endef
	.seh_proc	_Z12saxpy_scalarIfEvT_PKS0_PS0_y
_Z12saxpy_scalarIfEvT_PKS0_PS0_y:
.LVL63:
.LFB10422:
	.loc 1 33 6 is_stmt 1 view -0
	.cfi_startproc
	.loc 1 33 6 is_stmt 0 view .LVU255
	.seh_endprologue
.LVL64:
.LBB2641:
	.loc 1 34 26 is_stmt 1 discriminator 1 view .LVU256
	testq	%r9, %r9	 # n
	je	.L50	 #,
 # C:\Users\MattsDesktop\ECSE6320P1SIMD\SimdMain.cpp:34:     for (size_t i = 0; i < n; ++i) {
	.loc 1 34 17 is_stmt 0 view .LVU257
	xorl	%eax, %eax	 # i
.LVL65:
	.loc 1 34 17 view .LVU258
	.p2align 5
	.p2align 4
	.p2align 3
.L45:
.LVL66:
 # C:\Users\MattsDesktop\ECSE6320P1SIMD\SimdMain.cpp:35:         y[i] = a * x[i] + y[i];
	.loc 1 35 25 view .LVU259
	vmovss	(%rdx,%rax,4), %xmm1	 # MEM[(const float *)x_12(D) + i_19 * 4], _7
	vfmadd213ss	(%r8,%rax,4), %xmm0, %xmm1	 # MEM[(float *)y_14(D) + i_19 * 4], a, _7
 # C:\Users\MattsDesktop\ECSE6320P1SIMD\SimdMain.cpp:35:         y[i] = a * x[i] + y[i];
	.loc 1 35 14 view .LVU260
	vmovss	%xmm1, (%r8,%rax,4)	 # _7, MEM[(float *)y_14(D) + i_19 * 4]
	.loc 1 34 5 is_stmt 1 discriminator 3 view .LVU261
	addq	$1, %rax	 #, i
.LVL67:
	.loc 1 34 26 discriminator 1 view .LVU262
	cmpq	%rax, %r9	 # i, n
	jne	.L45	 #,
.LVL68:
.L50:
	.loc 1 34 26 is_stmt 0 discriminator 1 view .LVU263
.LBE2641:
 # C:\Users\MattsDesktop\ECSE6320P1SIMD\SimdMain.cpp:37: }
	.loc 1 37 1 view .LVU264
	ret	
	.cfi_endproc
.LFE10422:
	.seh_endproc
	.section	.text$_Z12saxpy_scalarIdEvT_PKS0_PS0_y,"x"
	.linkonce discard
	.p2align 4
	.globl	_Z12saxpy_scalarIdEvT_PKS0_PS0_y
	.def	_Z12saxpy_scalarIdEvT_PKS0_PS0_y;	.scl	2;	.type	32;	.endef
	.seh_proc	_Z12saxpy_scalarIdEvT_PKS0_PS0_y
_Z12saxpy_scalarIdEvT_PKS0_PS0_y:
.LVL69:
.LFB10427:
	.loc 1 33 6 is_stmt 1 view -0
	.cfi_startproc
	.loc 1 33 6 is_stmt 0 view .LVU266
	.seh_endprologue
.LVL70:
.LBB2642:
	.loc 1 34 26 is_stmt 1 discriminator 1 view .LVU267
	testq	%r9, %r9	 # n
	je	.L58	 #,
 # C:\Users\MattsDesktop\ECSE6320P1SIMD\SimdMain.cpp:34:     for (size_t i = 0; i < n; ++i) {
	.loc 1 34 17 is_stmt 0 view .LVU268
	xorl	%eax, %eax	 # i
.LVL71:
	.loc 1 34 17 view .LVU269
	.p2align 5
	.p2align 4
	.p2align 3
.L53:
.LVL72:
 # C:\Users\MattsDesktop\ECSE6320P1SIMD\SimdMain.cpp:35:         y[i] = a * x[i] + y[i];
	.loc 1 35 25 view .LVU270
	vmovsd	(%rdx,%rax,8), %xmm1	 # MEM[(const double *)x_12(D) + i_19 * 8], _7
	vfmadd213sd	(%r8,%rax,8), %xmm0, %xmm1	 # MEM[(double *)y_14(D) + i_19 * 8], a, _7
 # C:\Users\MattsDesktop\ECSE6320P1SIMD\SimdMain.cpp:35:         y[i] = a * x[i] + y[i];
	.loc 1 35 14 view .LVU271
	vmovsd	%xmm1, (%r8,%rax,8)	 # _7, MEM[(double *)y_14(D) + i_19 * 8]
	.loc 1 34 5 is_stmt 1 discriminator 3 view .LVU272
	addq	$1, %rax	 #, i
.LVL73:
	.loc 1 34 26 discriminator 1 view .LVU273
	cmpq	%rax, %r9	 # i, n
	jne	.L53	 #,
.LVL74:
.L58:
	.loc 1 34 26 is_stmt 0 discriminator 1 view .LVU274
.LBE2642:
 # C:\Users\MattsDesktop\ECSE6320P1SIMD\SimdMain.cpp:37: }
	.loc 1 37 1 view .LVU275
	ret	
	.cfi_endproc
.LFE10427:
	.seh_endproc
	.text
	.p2align 4
	.globl	_Z9saxpy_avxIfEvT_PKS0_PS0_y
	.def	_Z9saxpy_avxIfEvT_PKS0_PS0_y;	.scl	2;	.type	32;	.endef
	.seh_proc	_Z9saxpy_avxIfEvT_PKS0_PS0_y
_Z9saxpy_avxIfEvT_PKS0_PS0_y:
.LVL75:
.LFB10036:
	.loc 1 51 68 is_stmt 1 view -0
	.cfi_startproc
	.loc 1 51 68 is_stmt 0 view .LVU277
	.seh_endprologue
	.loc 1 52 5 is_stmt 1 view .LVU278
.LVL76:
.LBB2643:
.LBI2643:
	.loc 2 1327 1 view .LVU279
.LBB2644:
	.loc 2 1329 3 view .LVU280
 # C:/msys64/ucrt64/lib/gcc/x86_64-w64-mingw32/14.2.0/include/avxintrin.h:1330: 				 __A, __A, __A, __A };
	.loc 2 1330 25 is_stmt 0 view .LVU281
	vbroadcastss	%xmm0, %ymm2	 # a, _26
.LVL77:
	.loc 2 1330 25 view .LVU282
.LBE2644:
.LBE2643:
	.loc 1 53 5 is_stmt 1 view .LVU283
	.loc 1 54 5 view .LVU284
.LBB2645:
	.loc 1 54 18 discriminator 1 view .LVU285
	cmpq	$7, %r9	 #, n
	jbe	.L64	 #,
	leaq	-8(%r9), %r10	 #, _103
	movq	%r10, %rax	 # _103, _104
	shrq	$3, %rax	 #, _104
	leaq	8(,%rax,8), %rcx	 #, _106
.LBE2645:
 # C:\Users\MattsDesktop\ECSE6320P1SIMD\SimdMain.cpp:53:     size_t i = 0;
	.loc 1 53 12 is_stmt 0 view .LVU286
	xorl	%eax, %eax	 # i
.LVL78:
	.loc 1 53 12 view .LVU287
	.p2align 5
	.p2align 4
	.p2align 3
.L61:
.LVL79:
.LBB2655:
.LBB2646:
	.loc 1 55 9 is_stmt 1 view .LVU288
.LBB2647:
.LBI2647:
	.loc 2 879 1 view .LVU289
.LBB2648:
	.loc 2 881 3 view .LVU290
	.loc 2 881 3 is_stmt 0 view .LVU291
.LBE2648:
.LBE2647:
	.loc 1 56 9 is_stmt 1 view .LVU292
.LBB2649:
.LBI2649:
	.loc 2 879 1 view .LVU293
.LBB2650:
	.loc 2 881 3 view .LVU294
	.loc 2 881 3 is_stmt 0 view .LVU295
.LBE2650:
.LBE2649:
	.loc 1 57 9 is_stmt 1 view .LVU296
.LBB2651:
.LBI2651:
	.file 7 "C:/msys64/ucrt64/lib/gcc/x86_64-w64-mingw32/14.2.0/include/fmaintrin.h"
	.loc 7 63 1 view .LVU297
.LBB2652:
	.loc 7 65 3 view .LVU298
 # C:/msys64/ucrt64/lib/gcc/x86_64-w64-mingw32/14.2.0/include/fmaintrin.h:65:   return (__m256)__builtin_ia32_vfmaddps256 ((__v8sf)__A, (__v8sf)__B,
	.loc 7 65 10 is_stmt 0 view .LVU299
	vmovups	(%rdx,%rax,4), %ymm1	 # MEM[(__m256 * {ref-all})x_20(D) + i_34 * 4], tmp164
	vfmadd213ps	(%r8,%rax,4), %ymm2, %ymm1	 # MEM[(__m256 * {ref-all})y_21(D) + i_34 * 4], _26, tmp164
.LVL80:
	.loc 7 65 10 view .LVU300
.LBE2652:
.LBE2651:
	.loc 1 58 9 is_stmt 1 view .LVU301
.LBB2653:
.LBI2653:
	.loc 2 909 1 view .LVU302
.LBB2654:
	.loc 2 911 3 view .LVU303
 # C:/msys64/ucrt64/lib/gcc/x86_64-w64-mingw32/14.2.0/include/avxintrin.h:911:   *(__m256_u *)__P = __A;
	.loc 2 911 20 is_stmt 0 view .LVU304
	vmovups	%ymm1, (%r8,%rax,4)	 # tmp164, MEM[(__m256_u * {ref-all})y_21(D) + i_34 * 4]
.LVL81:
	.loc 2 911 20 view .LVU305
.LBE2654:
.LBE2653:
.LBE2646:
	.loc 1 54 5 is_stmt 1 discriminator 2 view .LVU306
 # C:\Users\MattsDesktop\ECSE6320P1SIMD\SimdMain.cpp:54:     for (; i + 7 < n; i += 8) {
	.loc 1 54 25 is_stmt 0 discriminator 2 view .LVU307
	addq	$8, %rax	 #, i
.LVL82:
	.loc 1 54 18 is_stmt 1 discriminator 1 view .LVU308
	cmpq	%rcx, %rax	 # _106, i
	jne	.L61	 #,
	andq	$-8, %r10	 #, _54
	leaq	8(%r10), %rax	 #, i
.LVL83:
.L60:
	.loc 1 54 18 is_stmt 0 discriminator 1 view .LVU309
.LBE2655:
	.loc 1 60 14 is_stmt 1 discriminator 1 view .LVU310
	cmpq	%r9, %rax	 # n, i
	jnb	.L66	 #,
	.loc 1 60 24 discriminator 2 view .LVU311
 # C:\Users\MattsDesktop\ECSE6320P1SIMD\SimdMain.cpp:60:     for (; i < n; ++i) y[i] = a * x[i] + y[i];
	.loc 1 60 45 is_stmt 0 discriminator 2 view .LVU312
	leaq	(%r8,%rax,4), %rcx	 #, _47
 # C:\Users\MattsDesktop\ECSE6320P1SIMD\SimdMain.cpp:60:     for (; i < n; ++i) y[i] = a * x[i] + y[i];
	.loc 1 60 40 discriminator 2 view .LVU313
	vmovss	(%rdx,%rax,4), %xmm1	 # *_50, _45
	vfmadd213ss	(%rcx), %xmm0, %xmm1	 # *_47, a, _45
 # C:\Users\MattsDesktop\ECSE6320P1SIMD\SimdMain.cpp:60:     for (; i < n; ++i) y[i] = a * x[i] + y[i];
	.loc 1 60 29 discriminator 2 view .LVU314
	vmovss	%xmm1, (%rcx)	 # _45, *_47
	.loc 1 60 5 is_stmt 1 discriminator 2 view .LVU315
	leaq	1(%rax), %rcx	 #, i
.LVL84:
	.loc 1 60 14 discriminator 1 view .LVU316
	cmpq	%r9, %rcx	 # n, i
	jnb	.L66	 #,
	.loc 1 60 24 discriminator 2 view .LVU317
 # C:\Users\MattsDesktop\ECSE6320P1SIMD\SimdMain.cpp:60:     for (; i < n; ++i) y[i] = a * x[i] + y[i];
	.loc 1 60 45 is_stmt 0 discriminator 2 view .LVU318
	leaq	(%r8,%rcx,4), %r10	 #, _29
 # C:\Users\MattsDesktop\ECSE6320P1SIMD\SimdMain.cpp:60:     for (; i < n; ++i) y[i] = a * x[i] + y[i];
	.loc 1 60 40 discriminator 2 view .LVU319
	vmovss	(%rdx,%rcx,4), %xmm1	 # *_32, _14
 # C:\Users\MattsDesktop\ECSE6320P1SIMD\SimdMain.cpp:60:     for (; i < n; ++i) y[i] = a * x[i] + y[i];
	.loc 1 60 5 discriminator 2 view .LVU320
	leaq	2(%rax), %rcx	 #, i
.LVL85:
 # C:\Users\MattsDesktop\ECSE6320P1SIMD\SimdMain.cpp:60:     for (; i < n; ++i) y[i] = a * x[i] + y[i];
	.loc 1 60 40 discriminator 2 view .LVU321
	vfmadd213ss	(%r10), %xmm0, %xmm1	 # *_29, a, _14
 # C:\Users\MattsDesktop\ECSE6320P1SIMD\SimdMain.cpp:60:     for (; i < n; ++i) y[i] = a * x[i] + y[i];
	.loc 1 60 29 discriminator 2 view .LVU322
	vmovss	%xmm1, (%r10)	 # _14, *_29
	.loc 1 60 5 is_stmt 1 discriminator 2 view .LVU323
.LVL86:
	.loc 1 60 14 discriminator 1 view .LVU324
	cmpq	%r9, %rcx	 # n, i
	jnb	.L66	 #,
	.loc 1 60 24 discriminator 2 view .LVU325
 # C:\Users\MattsDesktop\ECSE6320P1SIMD\SimdMain.cpp:60:     for (; i < n; ++i) y[i] = a * x[i] + y[i];
	.loc 1 60 45 is_stmt 0 discriminator 2 view .LVU326
	leaq	(%r8,%rcx,4), %r10	 #, _65
 # C:\Users\MattsDesktop\ECSE6320P1SIMD\SimdMain.cpp:60:     for (; i < n; ++i) y[i] = a * x[i] + y[i];
	.loc 1 60 40 discriminator 2 view .LVU327
	vmovss	(%rdx,%rcx,4), %xmm1	 # *_62, _67
 # C:\Users\MattsDesktop\ECSE6320P1SIMD\SimdMain.cpp:60:     for (; i < n; ++i) y[i] = a * x[i] + y[i];
	.loc 1 60 5 discriminator 2 view .LVU328
	leaq	3(%rax), %rcx	 #, i
.LVL87:
 # C:\Users\MattsDesktop\ECSE6320P1SIMD\SimdMain.cpp:60:     for (; i < n; ++i) y[i] = a * x[i] + y[i];
	.loc 1 60 40 discriminator 2 view .LVU329
	vfmadd213ss	(%r10), %xmm0, %xmm1	 # *_65, a, _67
 # C:\Users\MattsDesktop\ECSE6320P1SIMD\SimdMain.cpp:60:     for (; i < n; ++i) y[i] = a * x[i] + y[i];
	.loc 1 60 29 discriminator 2 view .LVU330
	vmovss	%xmm1, (%r10)	 # _67, *_65
	.loc 1 60 5 is_stmt 1 discriminator 2 view .LVU331
.LVL88:
	.loc 1 60 14 discriminator 1 view .LVU332
	cmpq	%r9, %rcx	 # n, i
	jnb	.L66	 #,
	.loc 1 60 24 discriminator 2 view .LVU333
 # C:\Users\MattsDesktop\ECSE6320P1SIMD\SimdMain.cpp:60:     for (; i < n; ++i) y[i] = a * x[i] + y[i];
	.loc 1 60 45 is_stmt 0 discriminator 2 view .LVU334
	leaq	(%r8,%rcx,4), %r10	 #, _76
 # C:\Users\MattsDesktop\ECSE6320P1SIMD\SimdMain.cpp:60:     for (; i < n; ++i) y[i] = a * x[i] + y[i];
	.loc 1 60 40 discriminator 2 view .LVU335
	vmovss	(%rdx,%rcx,4), %xmm1	 # *_73, _78
 # C:\Users\MattsDesktop\ECSE6320P1SIMD\SimdMain.cpp:60:     for (; i < n; ++i) y[i] = a * x[i] + y[i];
	.loc 1 60 5 discriminator 2 view .LVU336
	leaq	4(%rax), %rcx	 #, i
.LVL89:
 # C:\Users\MattsDesktop\ECSE6320P1SIMD\SimdMain.cpp:60:     for (; i < n; ++i) y[i] = a * x[i] + y[i];
	.loc 1 60 40 discriminator 2 view .LVU337
	vfmadd213ss	(%r10), %xmm0, %xmm1	 # *_76, a, _78
 # C:\Users\MattsDesktop\ECSE6320P1SIMD\SimdMain.cpp:60:     for (; i < n; ++i) y[i] = a * x[i] + y[i];
	.loc 1 60 29 discriminator 2 view .LVU338
	vmovss	%xmm1, (%r10)	 # _78, *_76
	.loc 1 60 5 is_stmt 1 discriminator 2 view .LVU339
.LVL90:
	.loc 1 60 14 discriminator 1 view .LVU340
	cmpq	%r9, %rcx	 # n, i
	jnb	.L66	 #,
	.loc 1 60 24 discriminator 2 view .LVU341
 # C:\Users\MattsDesktop\ECSE6320P1SIMD\SimdMain.cpp:60:     for (; i < n; ++i) y[i] = a * x[i] + y[i];
	.loc 1 60 45 is_stmt 0 discriminator 2 view .LVU342
	leaq	(%r8,%rcx,4), %r10	 #, _87
 # C:\Users\MattsDesktop\ECSE6320P1SIMD\SimdMain.cpp:60:     for (; i < n; ++i) y[i] = a * x[i] + y[i];
	.loc 1 60 40 discriminator 2 view .LVU343
	vmovss	(%rdx,%rcx,4), %xmm1	 # *_84, _89
 # C:\Users\MattsDesktop\ECSE6320P1SIMD\SimdMain.cpp:60:     for (; i < n; ++i) y[i] = a * x[i] + y[i];
	.loc 1 60 5 discriminator 2 view .LVU344
	leaq	5(%rax), %rcx	 #, i
.LVL91:
 # C:\Users\MattsDesktop\ECSE6320P1SIMD\SimdMain.cpp:60:     for (; i < n; ++i) y[i] = a * x[i] + y[i];
	.loc 1 60 40 discriminator 2 view .LVU345
	vfmadd213ss	(%r10), %xmm0, %xmm1	 # *_87, a, _89
 # C:\Users\MattsDesktop\ECSE6320P1SIMD\SimdMain.cpp:60:     for (; i < n; ++i) y[i] = a * x[i] + y[i];
	.loc 1 60 29 discriminator 2 view .LVU346
	vmovss	%xmm1, (%r10)	 # _89, *_87
	.loc 1 60 5 is_stmt 1 discriminator 2 view .LVU347
.LVL92:
	.loc 1 60 14 discriminator 1 view .LVU348
	cmpq	%r9, %rcx	 # n, i
	jnb	.L66	 #,
	.loc 1 60 24 discriminator 2 view .LVU349
 # C:\Users\MattsDesktop\ECSE6320P1SIMD\SimdMain.cpp:60:     for (; i < n; ++i) y[i] = a * x[i] + y[i];
	.loc 1 60 45 is_stmt 0 discriminator 2 view .LVU350
	leaq	(%r8,%rcx,4), %r10	 #, _98
 # C:\Users\MattsDesktop\ECSE6320P1SIMD\SimdMain.cpp:60:     for (; i < n; ++i) y[i] = a * x[i] + y[i];
	.loc 1 60 40 discriminator 2 view .LVU351
	vmovss	(%rdx,%rcx,4), %xmm1	 # *_95, _100
 # C:\Users\MattsDesktop\ECSE6320P1SIMD\SimdMain.cpp:60:     for (; i < n; ++i) y[i] = a * x[i] + y[i];
	.loc 1 60 5 discriminator 2 view .LVU352
	addq	$6, %rax	 #, i
 # C:\Users\MattsDesktop\ECSE6320P1SIMD\SimdMain.cpp:60:     for (; i < n; ++i) y[i] = a * x[i] + y[i];
	.loc 1 60 40 discriminator 2 view .LVU353
	vfmadd213ss	(%r10), %xmm0, %xmm1	 # *_98, a, _100
 # C:\Users\MattsDesktop\ECSE6320P1SIMD\SimdMain.cpp:60:     for (; i < n; ++i) y[i] = a * x[i] + y[i];
	.loc 1 60 29 discriminator 2 view .LVU354
	vmovss	%xmm1, (%r10)	 # _100, *_98
	.loc 1 60 5 is_stmt 1 discriminator 2 view .LVU355
.LVL93:
	.loc 1 60 14 discriminator 1 view .LVU356
	cmpq	%r9, %rax	 # n, i
	jnb	.L66	 #,
	.loc 1 60 24 discriminator 2 view .LVU357
 # C:\Users\MattsDesktop\ECSE6320P1SIMD\SimdMain.cpp:60:     for (; i < n; ++i) y[i] = a * x[i] + y[i];
	.loc 1 60 45 is_stmt 0 discriminator 2 view .LVU358
	leaq	(%r8,%rax,4), %rcx	 #, _9
 # C:\Users\MattsDesktop\ECSE6320P1SIMD\SimdMain.cpp:60:     for (; i < n; ++i) y[i] = a * x[i] + y[i];
	.loc 1 60 40 discriminator 2 view .LVU359
	vmovss	(%rcx), %xmm3	 # *_9, tmp181
	vfmadd132ss	(%rdx,%rax,4), %xmm3, %xmm0	 # *_6, tmp181, _11
.LVL94:
 # C:\Users\MattsDesktop\ECSE6320P1SIMD\SimdMain.cpp:60:     for (; i < n; ++i) y[i] = a * x[i] + y[i];
	.loc 1 60 29 discriminator 2 view .LVU360
	vmovss	%xmm0, (%rcx)	 # _11, *_9
	.loc 1 60 5 is_stmt 1 discriminator 2 view .LVU361
.LVL95:
	.loc 1 60 14 discriminator 1 view .LVU362
.L66:
	.loc 1 60 14 is_stmt 0 discriminator 1 view .LVU363
	vzeroupper
.LVL96:
 # C:\Users\MattsDesktop\ECSE6320P1SIMD\SimdMain.cpp:61: }
	.loc 1 61 1 view .LVU364
	ret	
.LVL97:
	.p2align 4,,10
	.p2align 3
.L64:
 # C:\Users\MattsDesktop\ECSE6320P1SIMD\SimdMain.cpp:53:     size_t i = 0;
	.loc 1 53 12 view .LVU365
	xorl	%eax, %eax	 # i
	jmp	.L60	 #
	.cfi_endproc
.LFE10036:
	.seh_endproc
	.p2align 4
	.globl	_Z9saxpy_avxIdEvT_PKS0_PS0_y
	.def	_Z9saxpy_avxIdEvT_PKS0_PS0_y;	.scl	2;	.type	32;	.endef
	.seh_proc	_Z9saxpy_avxIdEvT_PKS0_PS0_y
_Z9saxpy_avxIdEvT_PKS0_PS0_y:
.LVL98:
.LFB10037:
	.loc 1 64 72 is_stmt 1 view -0
	.cfi_startproc
	.loc 1 64 72 is_stmt 0 view .LVU367
	.seh_endprologue
	.loc 1 65 5 is_stmt 1 view .LVU368
.LVL99:
.LBB2656:
.LBI2656:
	.loc 2 1320 1 view .LVU369
.LBB2657:
	.loc 2 1322 3 view .LVU370
 # C:/msys64/ucrt64/lib/gcc/x86_64-w64-mingw32/14.2.0/include/avxintrin.h:1322:   return __extension__ (__m256d){ __A, __A, __A, __A };
	.loc 2 1322 54 is_stmt 0 view .LVU371
	vbroadcastsd	%xmm0, %ymm2	 # a, _26
.LVL100:
	.loc 2 1322 54 view .LVU372
.LBE2657:
.LBE2656:
	.loc 1 66 5 is_stmt 1 view .LVU373
	.loc 1 67 5 view .LVU374
.LBB2658:
	.loc 1 67 18 discriminator 1 view .LVU375
	cmpq	$3, %r9	 #, n
	jbe	.L72	 #,
	leaq	-4(%r9), %rcx	 #, _59
	movq	%rcx, %rax	 # _59, _60
	shrq	$2, %rax	 #, _60
	leaq	4(,%rax,4), %r10	 #, _62
.LBE2658:
 # C:\Users\MattsDesktop\ECSE6320P1SIMD\SimdMain.cpp:66:     size_t i = 0;
	.loc 1 66 12 is_stmt 0 view .LVU376
	xorl	%eax, %eax	 # i
.LVL101:
	.loc 1 66 12 view .LVU377
	.p2align 5
	.p2align 4
	.p2align 3
.L69:
.LVL102:
.LBB2668:
.LBB2659:
	.loc 1 68 9 is_stmt 1 view .LVU378
.LBB2660:
.LBI2660:
	.loc 2 867 1 view .LVU379
.LBB2661:
	.loc 2 869 3 view .LVU380
	.loc 2 869 3 is_stmt 0 view .LVU381
.LBE2661:
.LBE2660:
	.loc 1 69 9 is_stmt 1 view .LVU382
.LBB2662:
.LBI2662:
	.loc 2 867 1 view .LVU383
.LBB2663:
	.loc 2 869 3 view .LVU384
	.loc 2 869 3 is_stmt 0 view .LVU385
.LBE2663:
.LBE2662:
	.loc 1 70 9 is_stmt 1 view .LVU386
.LBB2664:
.LBI2664:
	.loc 7 47 1 view .LVU387
.LBB2665:
	.loc 7 49 3 view .LVU388
 # C:/msys64/ucrt64/lib/gcc/x86_64-w64-mingw32/14.2.0/include/fmaintrin.h:49:   return (__m256d)__builtin_ia32_vfmaddpd256 ((__v4df)__A, (__v4df)__B,
	.loc 7 49 10 is_stmt 0 view .LVU389
	vmovupd	(%rdx,%rax,8), %ymm1	 # MEM[(__m256d * {ref-all})x_20(D) + i_34 * 8], tmp136
	vfmadd213pd	(%r8,%rax,8), %ymm2, %ymm1	 # MEM[(__m256d * {ref-all})y_21(D) + i_34 * 8], _26, tmp136
.LVL103:
	.loc 7 49 10 view .LVU390
.LBE2665:
.LBE2664:
	.loc 1 71 9 is_stmt 1 view .LVU391
.LBB2666:
.LBI2666:
	.loc 2 897 1 view .LVU392
.LBB2667:
	.loc 2 899 3 view .LVU393
 # C:/msys64/ucrt64/lib/gcc/x86_64-w64-mingw32/14.2.0/include/avxintrin.h:899:   *(__m256d_u *)__P = __A;
	.loc 2 899 21 is_stmt 0 view .LVU394
	vmovupd	%ymm1, (%r8,%rax,8)	 # tmp136, MEM[(__m256d_u * {ref-all})y_21(D) + i_34 * 8]
.LVL104:
	.loc 2 899 21 view .LVU395
.LBE2667:
.LBE2666:
.LBE2659:
	.loc 1 67 5 is_stmt 1 discriminator 2 view .LVU396
 # C:\Users\MattsDesktop\ECSE6320P1SIMD\SimdMain.cpp:67:     for (; i + 3 < n; i += 4) {
	.loc 1 67 25 is_stmt 0 discriminator 2 view .LVU397
	addq	$4, %rax	 #, i
.LVL105:
	.loc 1 67 18 is_stmt 1 discriminator 1 view .LVU398
	cmpq	%r10, %rax	 # _62, i
	jne	.L69	 #,
	andq	$-4, %rcx	 #, _54
	leaq	4(%rcx), %rax	 #, i
.LVL106:
.L68:
	.loc 1 67 18 is_stmt 0 discriminator 1 view .LVU399
.LBE2668:
	.loc 1 73 14 is_stmt 1 discriminator 1 view .LVU400
	cmpq	%r9, %rax	 # n, i
	jnb	.L74	 #,
	.loc 1 73 24 discriminator 2 view .LVU401
 # C:\Users\MattsDesktop\ECSE6320P1SIMD\SimdMain.cpp:73:     for (; i < n; ++i) y[i] = a * x[i] + y[i];
	.loc 1 73 45 is_stmt 0 discriminator 2 view .LVU402
	leaq	(%r8,%rax,8), %rcx	 #, _47
 # C:\Users\MattsDesktop\ECSE6320P1SIMD\SimdMain.cpp:73:     for (; i < n; ++i) y[i] = a * x[i] + y[i];
	.loc 1 73 40 discriminator 2 view .LVU403
	vmovsd	(%rdx,%rax,8), %xmm1	 # *_50, _45
	vfmadd213sd	(%rcx), %xmm0, %xmm1	 # *_47, a, _45
 # C:\Users\MattsDesktop\ECSE6320P1SIMD\SimdMain.cpp:73:     for (; i < n; ++i) y[i] = a * x[i] + y[i];
	.loc 1 73 29 discriminator 2 view .LVU404
	vmovsd	%xmm1, (%rcx)	 # _45, *_47
	.loc 1 73 5 is_stmt 1 discriminator 2 view .LVU405
	leaq	1(%rax), %rcx	 #, i
.LVL107:
	.loc 1 73 14 discriminator 1 view .LVU406
	cmpq	%r9, %rcx	 # n, i
	jnb	.L74	 #,
	.loc 1 73 24 discriminator 2 view .LVU407
 # C:\Users\MattsDesktop\ECSE6320P1SIMD\SimdMain.cpp:73:     for (; i < n; ++i) y[i] = a * x[i] + y[i];
	.loc 1 73 45 is_stmt 0 discriminator 2 view .LVU408
	leaq	(%r8,%rcx,8), %r10	 #, _29
 # C:\Users\MattsDesktop\ECSE6320P1SIMD\SimdMain.cpp:73:     for (; i < n; ++i) y[i] = a * x[i] + y[i];
	.loc 1 73 40 discriminator 2 view .LVU409
	vmovsd	(%rdx,%rcx,8), %xmm1	 # *_32, _14
 # C:\Users\MattsDesktop\ECSE6320P1SIMD\SimdMain.cpp:73:     for (; i < n; ++i) y[i] = a * x[i] + y[i];
	.loc 1 73 5 discriminator 2 view .LVU410
	addq	$2, %rax	 #, i
 # C:\Users\MattsDesktop\ECSE6320P1SIMD\SimdMain.cpp:73:     for (; i < n; ++i) y[i] = a * x[i] + y[i];
	.loc 1 73 40 discriminator 2 view .LVU411
	vfmadd213sd	(%r10), %xmm0, %xmm1	 # *_29, a, _14
 # C:\Users\MattsDesktop\ECSE6320P1SIMD\SimdMain.cpp:73:     for (; i < n; ++i) y[i] = a * x[i] + y[i];
	.loc 1 73 29 discriminator 2 view .LVU412
	vmovsd	%xmm1, (%r10)	 # _14, *_29
	.loc 1 73 5 is_stmt 1 discriminator 2 view .LVU413
.LVL108:
	.loc 1 73 14 discriminator 1 view .LVU414
	cmpq	%r9, %rax	 # n, i
	jnb	.L74	 #,
	.loc 1 73 24 discriminator 2 view .LVU415
 # C:\Users\MattsDesktop\ECSE6320P1SIMD\SimdMain.cpp:73:     for (; i < n; ++i) y[i] = a * x[i] + y[i];
	.loc 1 73 45 is_stmt 0 discriminator 2 view .LVU416
	leaq	(%r8,%rax,8), %rcx	 #, _9
 # C:\Users\MattsDesktop\ECSE6320P1SIMD\SimdMain.cpp:73:     for (; i < n; ++i) y[i] = a * x[i] + y[i];
	.loc 1 73 40 discriminator 2 view .LVU417
	vmovsd	(%rcx), %xmm3	 # *_9, tmp149
	vfmadd132sd	(%rdx,%rax,8), %xmm3, %xmm0	 # *_6, tmp149, _11
.LVL109:
 # C:\Users\MattsDesktop\ECSE6320P1SIMD\SimdMain.cpp:73:     for (; i < n; ++i) y[i] = a * x[i] + y[i];
	.loc 1 73 29 discriminator 2 view .LVU418
	vmovsd	%xmm0, (%rcx)	 # _11, *_9
	.loc 1 73 5 is_stmt 1 discriminator 2 view .LVU419
.LVL110:
	.loc 1 73 14 discriminator 1 view .LVU420
.L74:
	.loc 1 73 14 is_stmt 0 discriminator 1 view .LVU421
	vzeroupper
.LVL111:
 # C:\Users\MattsDesktop\ECSE6320P1SIMD\SimdMain.cpp:74: }
	.loc 1 74 1 view .LVU422
	ret	
.LVL112:
	.p2align 4,,10
	.p2align 3
.L72:
 # C:\Users\MattsDesktop\ECSE6320P1SIMD\SimdMain.cpp:66:     size_t i = 0;
	.loc 1 66 12 view .LVU423
	xorl	%eax, %eax	 # i
	jmp	.L68	 #
	.cfi_endproc
.LFE10037:
	.seh_endproc
	.p2align 4
	.globl	_Z12saxpy_avx512IfEvT_PKS0_PS0_y
	.def	_Z12saxpy_avx512IfEvT_PKS0_PS0_y;	.scl	2;	.type	32;	.endef
	.seh_proc	_Z12saxpy_avx512IfEvT_PKS0_PS0_y
_Z12saxpy_avx512IfEvT_PKS0_PS0_y:
.LVL113:
.LFB10039:
	.loc 1 95 71 is_stmt 1 view -0
	.cfi_startproc
	.loc 1 95 71 is_stmt 0 view .LVU425
	.seh_endprologue
	.loc 1 96 5 is_stmt 1 view .LVU426
.LVL114:
.LBB2669:
.LBI2669:
	.file 8 "C:/msys64/ucrt64/lib/gcc/x86_64-w64-mingw32/14.2.0/include/avx512fintrin.h"
	.loc 8 4033 1 view .LVU427
.LBB2670:
	.loc 8 4035 3 view .LVU428
 # C:/msys64/ucrt64/lib/gcc/x86_64-w64-mingw32/14.2.0/include/avx512fintrin.h:4037:       __A, __A, __A, __A, __A, __A, __A, __A };
	.loc 8 4037 46 is_stmt 0 view .LVU429
	vbroadcastss	%xmm0, %zmm0	 # tmp155, _22
.LVL115:
	.loc 8 4037 46 view .LVU430
.LBE2670:
.LBE2669:
	.loc 1 97 5 is_stmt 1 view .LVU431
	.loc 1 98 5 view .LVU432
.LBB2671:
	.loc 1 98 19 discriminator 1 view .LVU433
	cmpq	$15, %r9	 #, n
	jbe	.L79	 #,
	leaq	-16(%r9), %r11	 #, _49
	movq	%r11, %rax	 # _49, _47
	andq	$-16, %rax	 #, _47
	leaq	16(%rax), %r10	 #, _46
.LBE2671:
 # C:\Users\MattsDesktop\ECSE6320P1SIMD\SimdMain.cpp:97:     size_t i = 0;
	.loc 1 97 12 is_stmt 0 view .LVU434
	xorl	%eax, %eax	 # i
.LVL116:
	.loc 1 97 12 view .LVU435
	.p2align 5
	.p2align 4
	.p2align 3
.L77:
.LVL117:
.LBB2681:
.LBB2672:
	.loc 1 99 9 is_stmt 1 view .LVU436
.LBB2673:
.LBI2673:
	.loc 8 4205 1 view .LVU437
.LBB2674:
	.loc 8 4207 3 view .LVU438
	.loc 8 4207 3 is_stmt 0 view .LVU439
.LBE2674:
.LBE2673:
	.loc 1 100 9 is_stmt 1 view .LVU440
.LBB2675:
.LBI2675:
	.loc 8 4205 1 view .LVU441
.LBB2676:
	.loc 8 4207 3 view .LVU442
	.loc 8 4207 3 is_stmt 0 view .LVU443
.LBE2676:
.LBE2675:
	.loc 1 101 9 is_stmt 1 view .LVU444
.LBB2677:
.LBI2677:
	.loc 8 14190 1 view .LVU445
.LBB2678:
	.loc 8 14192 3 view .LVU446
 # C:/msys64/ucrt64/lib/gcc/x86_64-w64-mingw32/14.2.0/include/avx512fintrin.h:14192:   return (__m512) __builtin_ia32_vfmaddps512_mask ((__v16sf) __A,
	.loc 8 14192 10 is_stmt 0 view .LVU447
	vmovups	(%rdx,%rax,4), %zmm1	 # MEM[(__m512 * {ref-all})x_20(D) + i_40 * 4], tmp131
	vfmadd213ps	(%r8,%rax,4), %zmm0, %zmm1	 # MEM[(__m512 * {ref-all})y_21(D) + i_40 * 4], _22, tmp131
.LVL118:
	.loc 8 14192 10 view .LVU448
.LBE2678:
.LBE2677:
	.loc 1 102 9 is_stmt 1 view .LVU449
.LBB2679:
.LBI2679:
	.loc 8 9400 1 view .LVU450
.LBB2680:
	.loc 8 9402 3 view .LVU451
 # C:/msys64/ucrt64/lib/gcc/x86_64-w64-mingw32/14.2.0/include/avx512fintrin.h:9402:   *(__m512_u *)__P = __A;
	.loc 8 9402 20 is_stmt 0 view .LVU452
	vmovups	%zmm1, (%r8,%rax,4)	 # tmp131, MEM[(__m512_u * {ref-all})y_21(D) + i_40 * 4]
.LVL119:
	.loc 8 9402 20 view .LVU453
.LBE2680:
.LBE2679:
.LBE2672:
	.loc 1 98 5 is_stmt 1 discriminator 2 view .LVU454
 # C:\Users\MattsDesktop\ECSE6320P1SIMD\SimdMain.cpp:98:     for (; i + 15 < n; i += 16) {
	.loc 1 98 26 is_stmt 0 discriminator 2 view .LVU455
	addq	$16, %rax	 #, i
.LVL120:
	.loc 1 98 19 is_stmt 1 discriminator 1 view .LVU456
	cmpq	%r10, %rax	 # _46, i
	jne	.L77	 #,
	andq	$-16, %r11	 #, _50
	leaq	16(%r11), %rax	 #, i
.LVL121:
.L76:
	.loc 1 98 19 is_stmt 0 discriminator 1 view .LVU457
.LBE2681:
	.loc 1 104 5 is_stmt 1 view .LVU458
.LBB2682:
	cmpq	%r9, %rax	 # n, i
	jnb	.L81	 #,
.LBB2683:
	.loc 1 105 9 view .LVU459
 # C:\Users\MattsDesktop\ECSE6320P1SIMD\SimdMain.cpp:105:         __mmask16 mask = (1 << (n - i)) - 1;
	.loc 1 105 35 is_stmt 0 view .LVU460
	subl	%eax, %r9d	 # i, _7
.LVL122:
 # C:\Users\MattsDesktop\ECSE6320P1SIMD\SimdMain.cpp:105:         __mmask16 mask = (1 << (n - i)) - 1;
	.loc 1 105 29 view .LVU461
	movl	$1, %r10d	 #, tmp139
 # C:\Users\MattsDesktop\ECSE6320P1SIMD\SimdMain.cpp:106:         __m512 x_vec = _mm512_maskz_load_ps(mask, &x[i]);
	.loc 1 106 55 view .LVU462
	salq	$2, %rax	 #, _10
 # C:\Users\MattsDesktop\ECSE6320P1SIMD\SimdMain.cpp:105:         __mmask16 mask = (1 << (n - i)) - 1;
	.loc 1 105 29 view .LVU463
	movl	%r9d, %ecx	 # _7, tmp162
 # C:\Users\MattsDesktop\ECSE6320P1SIMD\SimdMain.cpp:107:         __m512 y_vec = _mm512_maskz_load_ps(mask, &y[i]);
	.loc 1 107 51 view .LVU464
	addq	%rax, %r8	 # _10, _12
.LVL123:
 # C:\Users\MattsDesktop\ECSE6320P1SIMD\SimdMain.cpp:105:         __mmask16 mask = (1 << (n - i)) - 1;
	.loc 1 105 29 view .LVU465
	sall	%cl, %r10d	 # tmp162, _8
 # C:\Users\MattsDesktop\ECSE6320P1SIMD\SimdMain.cpp:105:         __mmask16 mask = (1 << (n - i)) - 1;
	.loc 1 105 19 view .LVU466
	leal	-1(%r10), %ecx	 #, mask
	kmovw	%ecx, %k1	 # mask, mask
.LVL124:
	.loc 1 106 9 is_stmt 1 view .LVU467
.LBB2684:
.LBI2684:
	.loc 8 4221 1 view .LVU468
.LBB2685:
	.loc 8 4223 3 view .LVU469
 # C:/msys64/ucrt64/lib/gcc/x86_64-w64-mingw32/14.2.0/include/avx512fintrin.h:4223:   return (__m512) __builtin_ia32_loadaps512_mask ((const __v16sf *) __P,
	.loc 8 4223 10 is_stmt 0 discriminator 1 view .LVU470
	vmovups	(%rdx,%rax), %zmm2{%k1}{z}	 #* _10, tmp140, mask,
.LVL125:
	.loc 8 4223 10 discriminator 1 view .LVU471
.LBE2685:
.LBE2684:
	.loc 1 107 9 is_stmt 1 view .LVU472
.LBB2686:
.LBI2686:
	.loc 8 4221 1 view .LVU473
.LBB2687:
	.loc 8 4223 3 view .LVU474
 # C:/msys64/ucrt64/lib/gcc/x86_64-w64-mingw32/14.2.0/include/avx512fintrin.h:4223:   return (__m512) __builtin_ia32_loadaps512_mask ((const __v16sf *) __P,
	.loc 8 4223 10 is_stmt 0 discriminator 1 view .LVU475
	vmovups	(%r8), %zmm1{%k1}{z}	 #* _12, tmp144, mask,
.LVL126:
	.loc 8 4223 10 discriminator 1 view .LVU476
.LBE2687:
.LBE2686:
	.loc 1 108 9 is_stmt 1 view .LVU477
.LBB2688:
.LBI2688:
	.loc 8 14223 1 view .LVU478
.LBB2689:
	.loc 8 14225 3 view .LVU479
 # C:/msys64/ucrt64/lib/gcc/x86_64-w64-mingw32/14.2.0/include/avx512fintrin.h:14225:   return (__m512) __builtin_ia32_vfmaddps512_maskz ((__v16sf) __A,
	.loc 8 14225 10 is_stmt 0 view .LVU480
	vfmadd132ps	%zmm2, %zmm1, %zmm0{%k1}{z}	 # tmp140, tmp144, tmp147, mask,
.LVL127:
	.loc 8 14225 10 view .LVU481
.LBE2689:
.LBE2688:
	.loc 1 109 9 is_stmt 1 view .LVU482
.LBB2690:
.LBI2690:
	.loc 8 9407 1 view .LVU483
.LBB2691:
	.loc 8 9409 3 view .LVU484
 # C:/msys64/ucrt64/lib/gcc/x86_64-w64-mingw32/14.2.0/include/avx512fintrin.h:9409:   __builtin_ia32_storeups512_mask ((float *) __P, (__v16sf) __A,
	.loc 8 9409 35 is_stmt 0 view .LVU485
	vmovups	%zmm0, (%r8){%k1}	 # tmp147,* _12, mask
.LVL128:
.L81:
	.loc 8 9409 35 view .LVU486
	vzeroupper
.LVL129:
.LBE2691:
.LBE2690:
.LBE2683:
.LBE2682:
 # C:\Users\MattsDesktop\ECSE6320P1SIMD\SimdMain.cpp:111: }
	.loc 1 111 1 view .LVU487
	ret	
.LVL130:
	.p2align 4,,10
	.p2align 3
.L79:
 # C:\Users\MattsDesktop\ECSE6320P1SIMD\SimdMain.cpp:97:     size_t i = 0;
	.loc 1 97 12 view .LVU488
	xorl	%eax, %eax	 # i
	jmp	.L76	 #
	.cfi_endproc
.LFE10039:
	.seh_endproc
	.p2align 4
	.globl	_Z12saxpy_avx512IdEvT_PKS0_PS0_y
	.def	_Z12saxpy_avx512IdEvT_PKS0_PS0_y;	.scl	2;	.type	32;	.endef
	.seh_proc	_Z12saxpy_avx512IdEvT_PKS0_PS0_y
_Z12saxpy_avx512IdEvT_PKS0_PS0_y:
.LVL131:
.LFB10040:
	.loc 1 114 75 is_stmt 1 view -0
	.cfi_startproc
	.loc 1 114 75 is_stmt 0 view .LVU490
	.seh_endprologue
	.loc 1 115 5 is_stmt 1 view .LVU491
.LVL132:
.LBB2692:
.LBI2692:
	.loc 8 4025 1 view .LVU492
.LBB2693:
	.loc 8 4027 3 view .LVU493
 # C:/msys64/ucrt64/lib/gcc/x86_64-w64-mingw32/14.2.0/include/avx512fintrin.h:4028:     { __A, __A, __A, __A, __A, __A, __A, __A };
	.loc 8 4028 46 is_stmt 0 view .LVU494
	vbroadcastsd	%xmm0, %zmm0	 # tmp153, _22
.LVL133:
	.loc 8 4028 46 view .LVU495
.LBE2693:
.LBE2692:
	.loc 1 116 5 is_stmt 1 view .LVU496
	.loc 1 117 5 view .LVU497
.LBB2694:
	.loc 1 117 18 discriminator 1 view .LVU498
	cmpq	$7, %r9	 #, n
	jbe	.L86	 #,
	leaq	-8(%r9), %r11	 #, _46
	movq	%r11, %rax	 # _46, _45
	shrq	$3, %rax	 #, _45
	leaq	8(,%rax,8), %r10	 #, _43
.LBE2694:
 # C:\Users\MattsDesktop\ECSE6320P1SIMD\SimdMain.cpp:116:     size_t i = 0;
	.loc 1 116 12 is_stmt 0 view .LVU499
	xorl	%eax, %eax	 # i
.LVL134:
	.loc 1 116 12 view .LVU500
	.p2align 5
	.p2align 4
	.p2align 3
.L84:
.LVL135:
.LBB2704:
.LBB2695:
	.loc 1 118 9 is_stmt 1 view .LVU501
.LBB2696:
.LBI2696:
	.loc 8 4164 1 view .LVU502
.LBB2697:
	.loc 8 4166 3 view .LVU503
	.loc 8 4166 3 is_stmt 0 view .LVU504
.LBE2697:
.LBE2696:
	.loc 1 119 9 is_stmt 1 view .LVU505
.LBB2698:
.LBI2698:
	.loc 8 4164 1 view .LVU506
.LBB2699:
	.loc 8 4166 3 view .LVU507
	.loc 8 4166 3 is_stmt 0 view .LVU508
.LBE2699:
.LBE2698:
	.loc 1 120 9 is_stmt 1 view .LVU509
.LBB2700:
.LBI2700:
	.loc 8 14146 1 view .LVU510
.LBB2701:
	.loc 8 14148 3 view .LVU511
 # C:/msys64/ucrt64/lib/gcc/x86_64-w64-mingw32/14.2.0/include/avx512fintrin.h:14148:   return (__m512d) __builtin_ia32_vfmaddpd512_mask ((__v8df) __A,
	.loc 8 14148 10 is_stmt 0 view .LVU512
	vmovupd	(%rdx,%rax,8), %zmm1	 # MEM[(__m512d * {ref-all})x_20(D) + i_38 * 8], tmp129
	vfmadd213pd	(%r8,%rax,8), %zmm0, %zmm1	 # MEM[(__m512d * {ref-all})y_21(D) + i_38 * 8], _22, tmp129
.LVL136:
	.loc 8 14148 10 view .LVU513
.LBE2701:
.LBE2700:
	.loc 1 121 9 is_stmt 1 view .LVU514
.LBB2702:
.LBI2702:
	.loc 8 9359 1 view .LVU515
.LBB2703:
	.loc 8 9361 3 view .LVU516
 # C:/msys64/ucrt64/lib/gcc/x86_64-w64-mingw32/14.2.0/include/avx512fintrin.h:9361:   *(__m512d_u *)__P = __A;
	.loc 8 9361 21 is_stmt 0 view .LVU517
	vmovupd	%zmm1, (%r8,%rax,8)	 # tmp129, MEM[(__m512d_u * {ref-all})y_21(D) + i_38 * 8]
.LVL137:
	.loc 8 9361 21 view .LVU518
.LBE2703:
.LBE2702:
.LBE2695:
	.loc 1 117 5 is_stmt 1 discriminator 2 view .LVU519
 # C:\Users\MattsDesktop\ECSE6320P1SIMD\SimdMain.cpp:117:     for (; i + 7 < n; i += 8) {
	.loc 1 117 25 is_stmt 0 discriminator 2 view .LVU520
	addq	$8, %rax	 #, i
.LVL138:
	.loc 1 117 18 is_stmt 1 discriminator 1 view .LVU521
	cmpq	%r10, %rax	 # _43, i
	jne	.L84	 #,
	andq	$-8, %r11	 #, _47
	leaq	8(%r11), %rax	 #, i
.LVL139:
.L83:
	.loc 1 117 18 is_stmt 0 discriminator 1 view .LVU522
.LBE2704:
	.loc 1 123 5 is_stmt 1 view .LVU523
.LBB2705:
	cmpq	%r9, %rax	 # n, i
	jnb	.L88	 #,
.LBB2706:
	.loc 1 124 9 view .LVU524
.LVL140:
	.loc 1 125 9 view .LVU525
 # C:\Users\MattsDesktop\ECSE6320P1SIMD\SimdMain.cpp:124:         __mmask8 mask = (1 << (n - i)) - 1;
	.loc 1 124 34 is_stmt 0 view .LVU526
	subl	%eax, %r9d	 # i, _7
.LVL141:
 # C:\Users\MattsDesktop\ECSE6320P1SIMD\SimdMain.cpp:125:         __m512d x_vec = _mm512_maskz_load_pd(mask, &x[i]);
	.loc 1 125 56 view .LVU527
	leaq	0(,%rax,8), %r10	 #, _10
.LVL142:
.LBB2707:
.LBI2707:
	.loc 8 4180 1 is_stmt 1 view .LVU528
.LBB2708:
	.loc 8 4182 3 view .LVU529
.LBE2708:
.LBE2707:
 # C:\Users\MattsDesktop\ECSE6320P1SIMD\SimdMain.cpp:124:         __mmask8 mask = (1 << (n - i)) - 1;
	.loc 1 124 28 is_stmt 0 view .LVU530
	movl	$1, %eax	 #, tmp137
	movl	%r9d, %ecx	 # _7, tmp160
 # C:\Users\MattsDesktop\ECSE6320P1SIMD\SimdMain.cpp:126:         __m512d y_vec = _mm512_maskz_load_pd(mask, &y[i]);
	.loc 1 126 52 view .LVU531
	addq	%r10, %r8	 # _10, _12
.LVL143:
 # C:\Users\MattsDesktop\ECSE6320P1SIMD\SimdMain.cpp:124:         __mmask8 mask = (1 << (n - i)) - 1;
	.loc 1 124 28 view .LVU532
	sall	%cl, %eax	 # tmp160, _8
 # C:\Users\MattsDesktop\ECSE6320P1SIMD\SimdMain.cpp:124:         __mmask8 mask = (1 << (n - i)) - 1;
	.loc 1 124 18 view .LVU533
	subl	$1, %eax	 #, mask_19
	kmovw	%eax, %k1	 # mask_19, mask_19
.LBB2710:
.LBB2709:
 # C:/msys64/ucrt64/lib/gcc/x86_64-w64-mingw32/14.2.0/include/avx512fintrin.h:4182:   return (__m512d) __builtin_ia32_loadapd512_mask ((const __v8df *) __P,
	.loc 8 4182 10 discriminator 1 view .LVU534
	vmovupd	(%rdx,%r10), %zmm2{%k1}{z}	 #* _10, tmp139, mask_19,
.LVL144:
	.loc 8 4182 10 discriminator 1 view .LVU535
.LBE2709:
.LBE2710:
	.loc 1 126 9 is_stmt 1 view .LVU536
.LBB2711:
.LBI2711:
	.loc 8 4180 1 view .LVU537
.LBB2712:
	.loc 8 4182 3 view .LVU538
 # C:/msys64/ucrt64/lib/gcc/x86_64-w64-mingw32/14.2.0/include/avx512fintrin.h:4182:   return (__m512d) __builtin_ia32_loadapd512_mask ((const __v8df *) __P,
	.loc 8 4182 10 is_stmt 0 discriminator 1 view .LVU539
	vmovupd	(%r8), %zmm1{%k1}{z}	 #* _12, tmp143, mask_19,
.LVL145:
	.loc 8 4182 10 discriminator 1 view .LVU540
.LBE2712:
.LBE2711:
	.loc 1 127 9 is_stmt 1 view .LVU541
.LBB2713:
.LBI2713:
	.loc 8 14179 1 view .LVU542
.LBB2714:
	.loc 8 14181 3 view .LVU543
 # C:/msys64/ucrt64/lib/gcc/x86_64-w64-mingw32/14.2.0/include/avx512fintrin.h:14181:   return (__m512d) __builtin_ia32_vfmaddpd512_maskz ((__v8df) __A,
	.loc 8 14181 10 is_stmt 0 view .LVU544
	vfmadd132pd	%zmm2, %zmm1, %zmm0{%k1}{z}	 # tmp139, tmp143, tmp146, mask_19,
.LVL146:
	.loc 8 14181 10 view .LVU545
.LBE2714:
.LBE2713:
	.loc 1 128 9 is_stmt 1 view .LVU546
.LBB2715:
.LBI2715:
	.loc 8 9366 1 view .LVU547
.LBB2716:
	.loc 8 9368 3 view .LVU548
 # C:/msys64/ucrt64/lib/gcc/x86_64-w64-mingw32/14.2.0/include/avx512fintrin.h:9368:   __builtin_ia32_storeupd512_mask ((double *) __P, (__v8df) __A,
	.loc 8 9368 35 is_stmt 0 view .LVU549
	vmovupd	%zmm0, (%r8){%k1}	 # tmp146,* _12, mask_19
.LVL147:
.L88:
	.loc 8 9368 35 view .LVU550
	vzeroupper
.LVL148:
.LBE2716:
.LBE2715:
.LBE2706:
.LBE2705:
 # C:\Users\MattsDesktop\ECSE6320P1SIMD\SimdMain.cpp:130: }
	.loc 1 130 1 view .LVU551
	ret	
.LVL149:
	.p2align 4,,10
	.p2align 3
.L86:
 # C:\Users\MattsDesktop\ECSE6320P1SIMD\SimdMain.cpp:116:     size_t i = 0;
	.loc 1 116 12 view .LVU552
	xorl	%eax, %eax	 # i
	jmp	.L83	 #
	.cfi_endproc
.LFE10040:
	.seh_endproc
	.p2align 4
	.globl	_Z12saxpy_avx512IiEvT_PKS0_PS0_y
	.def	_Z12saxpy_avx512IiEvT_PKS0_PS0_y;	.scl	2;	.type	32;	.endef
	.seh_proc	_Z12saxpy_avx512IiEvT_PKS0_PS0_y
_Z12saxpy_avx512IiEvT_PKS0_PS0_y:
.LVL150:
.LFB10041:
	.loc 1 133 79 is_stmt 1 view -0
	.cfi_startproc
	.loc 1 133 79 is_stmt 0 view .LVU554
	.seh_endprologue
	.loc 1 134 5 is_stmt 1 view .LVU555
.LVL151:
.LBB2717:
.LBI2717:
	.loc 8 7322 1 view .LVU556
.LBB2718:
	.loc 8 7324 3 view .LVU557
 # C:/msys64/ucrt64/lib/gcc/x86_64-w64-mingw32/14.2.0/include/avx512fintrin.h:7324:   return (__m512i)(__v16si)
	.loc 8 7324 10 is_stmt 0 view .LVU558
	vpbroadcastd	%ecx, %zmm1	 # tmp157, _23
.LVL152:
	.loc 8 7324 10 view .LVU559
.LBE2718:
.LBE2717:
	.loc 1 135 5 is_stmt 1 view .LVU560
	.loc 1 136 5 view .LVU561
.LBB2719:
	.loc 1 136 19 discriminator 1 view .LVU562
	cmpq	$15, %r9	 #, n
	jbe	.L93	 #,
	leaq	-16(%r9), %r11	 #, _65
	movq	%r11, %rax	 # _65, _63
	andq	$-16, %rax	 #, _63
	leaq	16(%rax), %r10	 #, _61
.LBE2719:
 # C:\Users\MattsDesktop\ECSE6320P1SIMD\SimdMain.cpp:135:     size_t i = 0;
	.loc 1 135 12 is_stmt 0 view .LVU563
	xorl	%eax, %eax	 # i
.LVL153:
	.loc 1 135 12 view .LVU564
	.p2align 5
	.p2align 4
	.p2align 3
.L91:
.LVL154:
.LBB2737:
.LBB2720:
	.loc 1 137 9 is_stmt 1 view .LVU565
.LBB2721:
.LBI2721:
	.loc 8 4325 1 view .LVU566
.LBB2722:
	.loc 8 4327 3 view .LVU567
	.loc 8 4327 3 is_stmt 0 view .LVU568
.LBE2722:
.LBE2721:
	.loc 1 138 9 is_stmt 1 view .LVU569
.LBB2723:
.LBI2723:
	.loc 8 4325 1 view .LVU570
.LBB2724:
	.loc 8 4327 3 view .LVU571
	.loc 8 4327 3 is_stmt 0 view .LVU572
.LBE2724:
.LBE2723:
	.loc 1 139 9 is_stmt 1 view .LVU573
.LBB2725:
.LBI2725:
	.loc 8 4380 1 view .LVU574
.LBB2726:
	.loc 8 4382 3 view .LVU575
	.loc 8 4382 3 is_stmt 0 view .LVU576
.LBE2726:
.LBE2725:
	.loc 1 140 9 is_stmt 1 view .LVU577
.LBB2728:
.LBI2728:
	.loc 8 4669 1 view .LVU578
.LBB2729:
	.loc 8 4671 3 view .LVU579
	.loc 8 4671 3 is_stmt 0 view .LVU580
.LBE2729:
.LBE2728:
	.loc 1 141 9 is_stmt 1 view .LVU581
.LBB2731:
.LBI2731:
	.loc 8 9489 1 view .LVU582
.LBB2732:
	.loc 8 9491 3 view .LVU583
.LBE2732:
.LBE2731:
.LBB2734:
.LBB2727:
 # C:/msys64/ucrt64/lib/gcc/x86_64-w64-mingw32/14.2.0/include/avx512fintrin.h:4382:   return (__m512i) ((__v16su) __A * (__v16su) __B);
	.loc 8 4382 35 is_stmt 0 view .LVU584
	vpmulld	(%rdx,%rax,4), %zmm1, %zmm0	 # MEM[(__m512i * {ref-all})x_21(D) + i_48 * 4], _23, _29
.LBE2727:
.LBE2734:
.LBB2735:
.LBB2730:
 # C:/msys64/ucrt64/lib/gcc/x86_64-w64-mingw32/14.2.0/include/avx512fintrin.h:4671:   return (__m512i) ((__v16su) __A + (__v16su) __B);
	.loc 8 4671 35 view .LVU585
	vpaddd	(%r8,%rax,4), %zmm0, %zmm0	 # MEM[(__m512i * {ref-all})y_22(D) + i_48 * 4], _29, _25
.LBE2730:
.LBE2735:
.LBB2736:
.LBB2733:
 # C:/msys64/ucrt64/lib/gcc/x86_64-w64-mingw32/14.2.0/include/avx512fintrin.h:9491:   *(__m512i_u *)__P = __A;
	.loc 8 9491 21 view .LVU586
	vmovdqu64	%zmm0, (%r8,%rax,4)	 # _25, MEM[(__m512i_u * {ref-all})y_22(D) + i_48 * 4]
.LVL155:
	.loc 8 9491 21 view .LVU587
.LBE2733:
.LBE2736:
.LBE2720:
	.loc 1 136 5 is_stmt 1 discriminator 2 view .LVU588
 # C:\Users\MattsDesktop\ECSE6320P1SIMD\SimdMain.cpp:136:     for (; i + 15 < n; i += 16) {
	.loc 1 136 26 is_stmt 0 discriminator 2 view .LVU589
	addq	$16, %rax	 #, i
.LVL156:
	.loc 1 136 19 is_stmt 1 discriminator 1 view .LVU590
	cmpq	%r10, %rax	 # _61, i
	jne	.L91	 #,
	andq	$-16, %r11	 #, _66
	leaq	16(%r11), %rax	 #, i
.LVL157:
.L90:
	.loc 1 136 19 is_stmt 0 discriminator 1 view .LVU591
.LBE2737:
	.loc 1 145 5 is_stmt 1 view .LVU592
.LBB2738:
	cmpq	%r9, %rax	 # n, i
	jnb	.L95	 #,
.LBB2739:
	.loc 1 146 9 view .LVU593
.LVL158:
	.loc 1 147 9 view .LVU594
 # C:\Users\MattsDesktop\ECSE6320P1SIMD\SimdMain.cpp:146:         __mmask16 mask = (1 << (n - i)) - 1;
	.loc 1 146 35 is_stmt 0 view .LVU595
	subl	%eax, %r9d	 # i, _7
.LVL159:
 # C:\Users\MattsDesktop\ECSE6320P1SIMD\SimdMain.cpp:147:         __m512i x_vec = _mm512_maskz_load_epi32(mask, &x[i]);
	.loc 1 147 59 view .LVU596
	leaq	0(,%rax,4), %r10	 #, _10
.LVL160:
.LBB2740:
.LBI2740:
	.loc 8 4348 1 is_stmt 1 view .LVU597
.LBB2741:
	.loc 8 4350 3 view .LVU598
.LBE2741:
.LBE2740:
 # C:\Users\MattsDesktop\ECSE6320P1SIMD\SimdMain.cpp:146:         __mmask16 mask = (1 << (n - i)) - 1;
	.loc 1 146 29 is_stmt 0 view .LVU599
	movl	$1, %eax	 #, tmp144
	movl	%r9d, %ecx	 # _7, tmp163
.LVL161:
 # C:\Users\MattsDesktop\ECSE6320P1SIMD\SimdMain.cpp:148:         __m512i y_vec = _mm512_maskz_load_epi32(mask, &y[i]);
	.loc 1 148 55 view .LVU600
	addq	%r10, %r8	 # _10, _12
.LVL162:
 # C:\Users\MattsDesktop\ECSE6320P1SIMD\SimdMain.cpp:146:         __mmask16 mask = (1 << (n - i)) - 1;
	.loc 1 146 29 view .LVU601
	sall	%cl, %eax	 # tmp163, _8
 # C:\Users\MattsDesktop\ECSE6320P1SIMD\SimdMain.cpp:146:         __mmask16 mask = (1 << (n - i)) - 1;
	.loc 1 146 19 view .LVU602
	subl	$1, %eax	 #, mask_20
	kmovw	%eax, %k1	 # mask_20, mask_20
.LBB2743:
.LBB2742:
 # C:/msys64/ucrt64/lib/gcc/x86_64-w64-mingw32/14.2.0/include/avx512fintrin.h:4350:   return (__m512i) __builtin_ia32_movdqa32load512_mask ((const __v16si *) __P,
	.loc 8 4350 56 view .LVU603
	vmovdqu32	(%rdx,%r10), %zmm2{%k1}{z}	 #* _10, tmp146, mask_20,
.LVL163:
	.loc 8 4350 56 view .LVU604
.LBE2742:
.LBE2743:
	.loc 1 148 9 is_stmt 1 view .LVU605
.LBB2744:
.LBI2744:
	.loc 8 4348 1 view .LVU606
.LBB2745:
	.loc 8 4350 3 view .LVU607
 # C:/msys64/ucrt64/lib/gcc/x86_64-w64-mingw32/14.2.0/include/avx512fintrin.h:4350:   return (__m512i) __builtin_ia32_movdqa32load512_mask ((const __v16si *) __P,
	.loc 8 4350 56 is_stmt 0 view .LVU608
	vmovdqu32	(%r8), %zmm0{%k1}{z}	 #* _12, tmp150, mask_20,
.LVL164:
	.loc 8 4350 56 view .LVU609
.LBE2745:
.LBE2744:
	.loc 1 149 9 is_stmt 1 view .LVU610
.LBB2746:
.LBI2746:
	.loc 8 4380 1 view .LVU611
.LBB2747:
	.loc 8 4382 3 view .LVU612
	.loc 8 4382 3 is_stmt 0 view .LVU613
.LBE2747:
.LBE2746:
	.loc 1 150 9 is_stmt 1 view .LVU614
.LBB2749:
.LBI2749:
	.loc 8 4669 1 view .LVU615
.LBB2750:
	.loc 8 4671 3 view .LVU616
	.loc 8 4671 3 is_stmt 0 view .LVU617
.LBE2750:
.LBE2749:
	.loc 1 151 9 is_stmt 1 view .LVU618
.LBB2752:
.LBI2752:
	.loc 8 9503 1 view .LVU619
.LBB2753:
	.loc 8 9505 3 view .LVU620
.LBE2753:
.LBE2752:
.LBB2755:
.LBB2748:
 # C:/msys64/ucrt64/lib/gcc/x86_64-w64-mingw32/14.2.0/include/avx512fintrin.h:4382:   return (__m512i) ((__v16su) __A * (__v16su) __B);
	.loc 8 4382 35 is_stmt 0 view .LVU621
	vpmulld	%zmm2, %zmm1, %zmm1	 # tmp146, _23, _37
.LVL165:
	.loc 8 4382 35 view .LVU622
.LBE2748:
.LBE2755:
.LBB2756:
.LBB2751:
 # C:/msys64/ucrt64/lib/gcc/x86_64-w64-mingw32/14.2.0/include/avx512fintrin.h:4671:   return (__m512i) ((__v16su) __A + (__v16su) __B);
	.loc 8 4671 35 view .LVU623
	vpaddd	%zmm0, %zmm1, %zmm1	 # tmp150, _37, _34
.LBE2751:
.LBE2756:
.LBB2757:
.LBB2754:
 # C:/msys64/ucrt64/lib/gcc/x86_64-w64-mingw32/14.2.0/include/avx512fintrin.h:9505:   __builtin_ia32_storedqusi512_mask ((int *) __P, (__v16si) __A,
	.loc 8 9505 37 view .LVU624
	vmovdqu32	%zmm1, (%r8){%k1}	 # _34,* _12, mask_20
.LVL166:
.L95:
	.loc 8 9505 37 view .LVU625
	vzeroupper
.LVL167:
.LBE2754:
.LBE2757:
.LBE2739:
.LBE2738:
 # C:\Users\MattsDesktop\ECSE6320P1SIMD\SimdMain.cpp:153: }
	.loc 1 153 1 view .LVU626
	ret	
.LVL168:
	.p2align 4,,10
	.p2align 3
.L93:
 # C:\Users\MattsDesktop\ECSE6320P1SIMD\SimdMain.cpp:135:     size_t i = 0;
	.loc 1 135 12 view .LVU627
	xorl	%eax, %eax	 # i
	jmp	.L90	 #
	.cfi_endproc
.LFE10041:
	.seh_endproc
	.section .rdata,"dr"
.LC0:
	.ascii "Failed to open CSV file: \0"
.LC1:
	.ascii "\12\0"
	.align 8
.LC2:
	.ascii "Kernel,Type,N,GFLOP/s,Time(ms),y[0]\12\0"
.LC3:
	.ascii ",\0"
	.section	.text$_Z10log_to_csvIfEvRKNSt7__cxx1112basic_stringIcSt11char_traitsIcESaIcEEES7_yddT_,"x"
	.linkonce discard
	.p2align 4
	.globl	_Z10log_to_csvIfEvRKNSt7__cxx1112basic_stringIcSt11char_traitsIcESaIcEEES7_yddT_
	.def	_Z10log_to_csvIfEvRKNSt7__cxx1112basic_stringIcSt11char_traitsIcESaIcEEES7_yddT_;	.scl	2;	.type	32;	.endef
	.seh_proc	_Z10log_to_csvIfEvRKNSt7__cxx1112basic_stringIcSt11char_traitsIcESaIcEEES7_yddT_
_Z10log_to_csvIfEvRKNSt7__cxx1112basic_stringIcSt11char_traitsIcESaIcEEES7_yddT_:
.LVL169:
.LFB10672:
	.loc 1 12 6 is_stmt 1 view -0
	.cfi_startproc
	.loc 1 12 6 is_stmt 0 view .LVU629
	pushq	%r15	 #
	.seh_pushreg	%r15
	.cfi_def_cfa_offset 16
	.cfi_offset 15, -16
	pushq	%r14	 #
	.seh_pushreg	%r14
	.cfi_def_cfa_offset 24
	.cfi_offset 14, -24
	pushq	%r13	 #
	.seh_pushreg	%r13
	.cfi_def_cfa_offset 32
	.cfi_offset 13, -32
	pushq	%r12	 #
	.seh_pushreg	%r12
	.cfi_def_cfa_offset 40
	.cfi_offset 12, -40
	pushq	%rbp	 #
	.seh_pushreg	%rbp
	.cfi_def_cfa_offset 48
	.cfi_offset 6, -48
	pushq	%rdi	 #
	.seh_pushreg	%rdi
	.cfi_def_cfa_offset 56
	.cfi_offset 5, -56
	pushq	%rsi	 #
	.seh_pushreg	%rsi
	.cfi_def_cfa_offset 64
	.cfi_offset 4, -64
	pushq	%rbx	 #
	.seh_pushreg	%rbx
	.cfi_def_cfa_offset 72
	.cfi_offset 3, -72
	subq	$584, %rsp	 #,
	.seh_stackalloc	584
	.cfi_def_cfa_offset 656
	vmovups	%xmm6, 560(%rsp)	 #,
	.seh_savexmm	%xmm6, 560
	.cfi_offset 23, -96
	.seh_endprologue
.LVL170:
.LBB3021:
.LBB3022:
.LBB3023:
.LBB3024:
.LBB3025:
.LBB3026:
 # C:/msys64/ucrt64/include/c++/14.2.0/bits/basic_ios.h:466: 	_M_streambuf(0), _M_ctype(0), _M_num_put(0), _M_num_get(0)
	.file 9 "C:/msys64/ucrt64/include/c++/14.2.0/bits/basic_ios.h"
	.loc 9 466 59 view .LVU630
	leaq	296(%rsp), %r13	 #, tmp274
.LBE3026:
.LBE3025:
.LBE3024:
.LBE3023:
.LBE3022:
.LBE3021:
 # C:\Users\MattsDesktop\ECSE6320P1SIMD\SimdMain.cpp:12: void log_to_csv(const std::string& filename, const std::string& kernel, size_t n, double gflops, double time_ms, T y0) {
	.loc 1 12 6 view .LVU631
	movq	%rcx, %rdi	 # tmp276, filename
.LVL171:
.LBB3087:
.LBI3021:
	.file 10 "C:/msys64/ucrt64/include/c++/14.2.0/fstream"
	.loc 10 874 7 is_stmt 1 view .LVU632
.LBB3081:
.LBB3075:
.LBB3037:
.LBI3024:
	.loc 9 464 7 view .LVU633
.LBE3037:
.LBE3075:
.LBE3081:
.LBE3087:
 # C:\Users\MattsDesktop\ECSE6320P1SIMD\SimdMain.cpp:12: void log_to_csv(const std::string& filename, const std::string& kernel, size_t n, double gflops, double time_ms, T y0) {
	.loc 1 12 6 is_stmt 0 view .LVU634
	movq	%rdx, %r12	 # tmp277, kernel
	movq	%r8, 672(%rsp)	 # tmp278, n
.LBB3088:
.LBB3082:
.LBB3076:
.LBB3038:
.LBB3032:
.LBB3027:
 # C:/msys64/ucrt64/include/c++/14.2.0/bits/basic_ios.h:466: 	_M_streambuf(0), _M_ctype(0), _M_num_put(0), _M_num_get(0)
	.loc 9 466 59 view .LVU635
	movq	%r13, %rcx	 # tmp274,
.LVL172:
	.loc 9 466 59 view .LVU636
.LBE3027:
.LBE3032:
.LBE3038:
.LBE3076:
.LBE3082:
.LBE3088:
 # C:\Users\MattsDesktop\ECSE6320P1SIMD\SimdMain.cpp:12: void log_to_csv(const std::string& filename, const std::string& kernel, size_t n, double gflops, double time_ms, T y0) {
	.loc 1 12 6 view .LVU637
	vmovsd	%xmm3, %xmm3, %xmm6	 # tmp279, gflops
.LBB3089:
.LBB3083:
.LBB3077:
.LBB3039:
.LBB3033:
.LBB3028:
 # C:/msys64/ucrt64/include/c++/14.2.0/bits/basic_ios.h:466: 	_M_streambuf(0), _M_ctype(0), _M_num_put(0), _M_num_get(0)
	.loc 9 466 59 view .LVU638
	leaq	80(%rsp), %r15	 #, tmp272
.LVL173:
	.loc 9 466 59 view .LVU639
	call	_ZNSt8ios_baseC2Ev	 #
.LVL174:
 # C:/msys64/ucrt64/include/c++/14.2.0/bits/basic_ios.h:466: 	_M_streambuf(0), _M_ctype(0), _M_num_put(0), _M_num_get(0)
	.loc 9 466 59 discriminator 1 view .LVU640
	movq	.refptr._ZTVSt9basic_iosIcSt11char_traitsIcEE(%rip), %rax	 #, tmp296
.LBE3028:
.LBE3033:
.LBE3039:
.LBB3040:
.LBB3041:
.LBB3042:
 # C:/msys64/ucrt64/include/c++/14.2.0/ostream:438:       { this->init(0); }
	.file 11 "C:/msys64/ucrt64/include/c++/14.2.0/ostream"
	.loc 11 438 19 view .LVU641
	xorl	%edx, %edx	 #
.LBE3042:
.LBE3041:
.LBE3040:
.LBB3049:
.LBB3034:
.LBB3029:
 # C:/msys64/ucrt64/include/c++/14.2.0/bits/basic_ios.h:465:       : ios_base(), _M_tie(0), _M_fill(char_type()), _M_fill_init(false), 
	.loc 9 465 21 view .LVU642
	movq	$0, 512(%rsp)	 #, MEM[(struct basic_ios *)&file + 216B]._M_tie
 # C:/msys64/ucrt64/include/c++/14.2.0/bits/basic_ios.h:466: 	_M_streambuf(0), _M_ctype(0), _M_num_put(0), _M_num_get(0)
	.loc 9 466 2 view .LVU643
	movq	$0, 528(%rsp)	 #, MEM[(struct basic_ios *)&file + 216B]._M_streambuf
 # C:/msys64/ucrt64/include/c++/14.2.0/bits/basic_ios.h:466: 	_M_streambuf(0), _M_ctype(0), _M_num_put(0), _M_num_get(0)
	.loc 9 466 19 view .LVU644
	movq	$0, 536(%rsp)	 #, MEM[(struct basic_ios *)&file + 216B]._M_ctype
 # C:/msys64/ucrt64/include/c++/14.2.0/bits/basic_ios.h:466: 	_M_streambuf(0), _M_ctype(0), _M_num_put(0), _M_num_get(0)
	.loc 9 466 59 discriminator 1 view .LVU645
	addq	$16, %rax	 #, tmp156
	movq	%rax, 296(%rsp)	 # tmp156, MEM[(struct basic_ios *)&file + 216B].D.51970._vptr.ios_base
 # C:/msys64/ucrt64/include/c++/14.2.0/bits/basic_ios.h:465:       : ios_base(), _M_tie(0), _M_fill(char_type()), _M_fill_init(false), 
	.loc 9 465 32 view .LVU646
	xorl	%eax, %eax	 #
	movw	%ax, 520(%rsp)	 #, MEM <unsigned short> [(void *)&file + 440B]
.LBE3029:
.LBE3034:
.LBE3049:
.LBB3050:
.LBB3046:
.LBB3043:
 # C:/msys64/ucrt64/include/c++/14.2.0/ostream:438:       { this->init(0); }
	.loc 11 438 7 view .LVU647
	movq	.refptr._ZTTSt14basic_ofstreamIcSt11char_traitsIcEE(%rip), %rax	 #, tmp157
.LBE3043:
.LBE3046:
.LBE3050:
.LBB3051:
.LBB3035:
.LBB3030:
 # C:/msys64/ucrt64/include/c++/14.2.0/bits/basic_ios.h:466: 	_M_streambuf(0), _M_ctype(0), _M_num_put(0), _M_num_get(0)
	.loc 9 466 32 view .LVU648
	movq	$0, 544(%rsp)	 #, MEM[(struct basic_ios *)&file + 216B]._M_num_put
.LBE3030:
.LBE3035:
.LBE3051:
.LBB3052:
.LBB3047:
.LBB3044:
 # C:/msys64/ucrt64/include/c++/14.2.0/ostream:438:       { this->init(0); }
	.loc 11 438 7 view .LVU649
	movq	8(%rax), %rsi	 # MEM[(const void * *)&_ZTTSt14basic_ofstreamIcSt11char_traitsIcEE + 8B], _66
	movq	16(%rax), %r14	 # MEM[(const void * *)&_ZTTSt14basic_ofstreamIcSt11char_traitsIcEE + 16B], _70
.LBE3044:
.LBE3047:
.LBE3052:
.LBB3053:
.LBB3036:
.LBB3031:
 # C:/msys64/ucrt64/include/c++/14.2.0/bits/basic_ios.h:466: 	_M_streambuf(0), _M_ctype(0), _M_num_put(0), _M_num_get(0)
	.loc 9 466 47 view .LVU650
	movq	$0, 552(%rsp)	 #, MEM[(struct basic_ios *)&file + 216B]._M_num_get
.LVL175:
	.loc 9 466 47 view .LVU651
.LBE3031:
.LBE3036:
.LBE3053:
.LBB3054:
.LBI3040:
	.loc 11 437 7 is_stmt 1 view .LVU652
.LBB3048:
.LBB3045:
 # C:/msys64/ucrt64/include/c++/14.2.0/ostream:438:       { this->init(0); }
	.loc 11 438 7 is_stmt 0 view .LVU653
	movq	-24(%rsi), %rcx	 # MEM[(long long int *)_66 + -24B], _69
	movq	%rsi, 80(%rsp)	 # _66, MEM[(struct basic_ostream *)&file]._vptr.basic_ostream
	addq	%r15, %rcx	 # tmp272, _69
	movq	%r14, (%rcx)	 # _70, MEM[(struct basic_ios *)_69].D.51970._vptr.ios_base
.LEHB0:
 # C:/msys64/ucrt64/include/c++/14.2.0/ostream:438:       { this->init(0); }
	.loc 11 438 19 view .LVU654
	call	_ZNSt9basic_iosIcSt11char_traitsIcEE4initEPSt15basic_streambufIcS1_E	 #
.LVL176:
.LEHE0:
	.loc 11 438 19 view .LVU655
.LBE3045:
.LBE3048:
.LBE3054:
 # C:/msys64/ucrt64/include/c++/14.2.0/fstream:876:       : __ostream_type(), _M_filebuf()
	.loc 10 876 38 discriminator 1 view .LVU656
	movq	.refptr._ZTVSt14basic_ofstreamIcSt11char_traitsIcEE(%rip), %rbx	 #, tmp271
 # C:/msys64/ucrt64/include/c++/14.2.0/fstream:876:       : __ostream_type(), _M_filebuf()
	.loc 10 876 27 discriminator 1 view .LVU657
	leaq	88(%rsp), %rbp	 #, tmp273
	movq	%rbp, %rcx	 # tmp273,
 # C:/msys64/ucrt64/include/c++/14.2.0/fstream:876:       : __ostream_type(), _M_filebuf()
	.loc 10 876 38 discriminator 1 view .LVU658
	leaq	24(%rbx), %rax	 #, tmp162
	movq	%rax, 80(%rsp)	 # tmp162, MEM[(struct basic_ofstream *)&file].D.107333._vptr.basic_ostream
	leaq	64(%rbx), %rax	 #, tmp164
	movq	%rax, 296(%rsp)	 # tmp164, MEM[(struct basic_ios *)&file + 216B].D.51970._vptr.ios_base
.LEHB1:
 # C:/msys64/ucrt64/include/c++/14.2.0/fstream:876:       : __ostream_type(), _M_filebuf()
	.loc 10 876 27 discriminator 1 view .LVU659
	call	_ZNSt13basic_filebufIcSt11char_traitsIcEEC1Ev	 #
.LVL177:
.LEHE1:
 # C:/msys64/ucrt64/include/c++/14.2.0/fstream:878: 	this->init(&_M_filebuf);
	.loc 10 878 12 view .LVU660
	movq	%rbp, %rdx	 # tmp273,
	movq	%r13, %rcx	 # tmp274,
.LEHB2:
	call	_ZNSt9basic_iosIcSt11char_traitsIcEE4initEPSt15basic_streambufIcS1_E	 #
.LVL178:
.LBB3055:
.LBI3055:
	.loc 10 1009 7 is_stmt 1 view .LVU661
.LBB3056:
.LBB3057:
.LBI3057:
	.loc 10 341 7 view .LVU662
.LBB3058:
 # C:/msys64/ucrt64/include/c++/14.2.0/fstream:342:       { return open(__s.c_str(), __mode); }
	.loc 10 342 20 is_stmt 0 discriminator 1 view .LVU663
	movq	(%rdi), %rdx	 # MEM[(char * *)filename_7(D)], MEM[(char * *)filename_7(D)]
	movl	$17, %r8d	 #,
	movq	%rbp, %rcx	 # tmp273,
	call	_ZNSt13basic_filebufIcSt11char_traitsIcEE4openEPKcSt13_Ios_Openmode	 #
.LVL179:
	.loc 10 342 20 discriminator 1 view .LVU664
.LBE3058:
.LBE3057:
.LBB3059:
.LBB3060:
 # C:/msys64/ucrt64/include/c++/14.2.0/fstream:973: 	  this->setstate(ios_base::failbit);
	.loc 10 973 18 view .LVU665
	movq	80(%rsp), %rdx	 # file.D.107333._vptr.basic_ostream, file.D.107333._vptr.basic_ostream
	movq	-24(%rdx), %rcx	 # MEM[(long long int *)pretmp_96 + -24B], _116
	addq	%r15, %rcx	 # tmp272, _116
.LBE3060:
.LBE3059:
 # C:/msys64/ucrt64/include/c++/14.2.0/fstream:1011: 	if (!_M_filebuf.open(__s, __mode | ios_base::out))
	.loc 10 1011 2 discriminator 2 view .LVU666
	testq	%rax, %rax	 # tmp280
	je	.L122	 #,
 # C:/msys64/ucrt64/include/c++/14.2.0/fstream:1016: 	  this->clear();
	.loc 10 1016 15 view .LVU667
	xorl	%edx, %edx	 #
	call	_ZNSt9basic_iosIcSt11char_traitsIcEE5clearESt12_Ios_Iostate	 #
.LVL180:
.LEHE2:
	.loc 10 1016 15 view .LVU668
.LBE3056:
.LBE3055:
.LBE3077:
.LBE3083:
.LBE3089:
.LBB3090:
.LBI3090:
	.loc 9 129 7 is_stmt 1 view .LVU669
.LBB3091:
.LBI3091:
	.loc 9 205 7 view .LVU670
.LBB3092:
.LBI3092:
	.loc 9 141 7 view .LVU671
	.loc 9 141 7 is_stmt 0 view .LVU672
.LBE3092:
.LBB3093:
.LBI3093:
	.file 12 "C:/msys64/ucrt64/include/c++/14.2.0/bits/ios_base.h"
	.loc 12 181 3 is_stmt 1 view .LVU673
.LBB3094:
	.loc 12 182 5 view .LVU674
	.loc 12 182 5 is_stmt 0 view .LVU675
.LBE3094:
.LBE3093:
.LBE3091:
.LBE3090:
 # C:\Users\MattsDesktop\ECSE6320P1SIMD\SimdMain.cpp:14:     if (!file) {
	.loc 1 14 5 discriminator 1 view .LVU676
	testb	$5, 328(%rsp)	 #, MEM[(const struct basic_ios *)&file + 216B].D.51970._M_streambuf_state
	jne	.L123	 #,
.L120:
 # C:\Users\MattsDesktop\ECSE6320P1SIMD\SimdMain.cpp:19:     if (!csv_header_written) {
	.loc 1 19 5 view .LVU677
	cmpb	$0, _ZL18csv_header_written(%rip)	 #, csv_header_written
	je	.L124	 #,
.L107:
.LVL181:
.LBB3099:
.LBI3099:
	.file 13 "C:/msys64/ucrt64/include/c++/14.2.0/bits/allocator.h"
	.loc 13 161 7 is_stmt 1 view .LVU678
.LBB3100:
.LBI3100:
	.file 14 "C:/msys64/ucrt64/include/c++/14.2.0/bits/new_allocator.h"
	.loc 14 88 7 view .LVU679
	.loc 14 88 7 is_stmt 0 view .LVU680
.LBE3100:
.LBE3099:
.LBB3101:
.LBI3101:
	.file 15 "C:/msys64/ucrt64/include/c++/14.2.0/bits/basic_string.h"
	.loc 15 646 7 is_stmt 1 view .LVU681
.LBB3102:
.LBB3103:
.LBI3103:
	.loc 15 232 7 view .LVU682
	.loc 15 232 7 is_stmt 0 view .LVU683
.LBE3103:
.LBB3104:
.LBI3104:
	.loc 15 193 2 is_stmt 1 view .LVU684
.LBB3105:
.LBB3106:
.LBB3107:
.LBI3107:
	.loc 13 165 7 view .LVU685
.LBB3108:
.LBI3108:
	.loc 14 92 7 view .LVU686
	.loc 14 92 7 is_stmt 0 view .LVU687
.LBE3108:
.LBE3107:
.LBE3106:
.LBE3105:
.LBE3104:
.LBE3102:
.LBE3101:
.LBB3141:
.LBB3142:
 # C:/msys64/ucrt64/include/c++/14.2.0/bits/basic_string.h:4082:       return __ostream_insert(__os, __str.data(), __str.size());
	.loc 15 4082 30 discriminator 2 view .LVU688
	movq	(%r12), %rdx	 # MEM[(const struct basic_string *)kernel_14(D)]._M_dataplus._M_p, MEM[(const struct basic_string *)kernel_14(D)]._M_dataplus._M_p
	movq	8(%r12), %r8	 # MEM[(const struct basic_string *)kernel_14(D)]._M_string_length,
.LBE3142:
.LBE3141:
.LBB3149:
.LBB3139:
.LBB3113:
.LBB3111:
.LBB3109:
 # C:/msys64/ucrt64/include/c++/14.2.0/bits/basic_string.h:194: 	: allocator_type(__a), _M_p(__dat) { }
	.loc 15 194 25 discriminator 1 view .LVU689
	leaq	64(%rsp), %rdi	 #, tmp268
.LVL182:
	.loc 15 194 25 discriminator 1 view .LVU690
.LBE3109:
.LBE3111:
.LBE3113:
.LBE3139:
.LBE3149:
.LBB3150:
.LBB3146:
 # C:/msys64/ucrt64/include/c++/14.2.0/bits/basic_string.h:4082:       return __ostream_insert(__os, __str.data(), __str.size());
	.loc 15 4082 30 discriminator 2 view .LVU691
	movq	%r15, %rcx	 # tmp272,
.LBE3146:
.LBE3150:
.LBB3151:
.LBB3140:
.LBB3114:
.LBB3115:
.LBB3116:
.LBB3117:
.LBB3118:
.LBB3119:
.LBB3120:
.LBB3121:
 # C:/msys64/ucrt64/include/c++/14.2.0/bits/char_traits.h:427: 	return static_cast<char_type*>(__builtin_memcpy(__s1, __s2, __n));
	.file 16 "C:/msys64/ucrt64/include/c++/14.2.0/bits/char_traits.h"
	.loc 16 427 49 view .LVU692
	movl	$1634692198, 64(%rsp)	 #, MEM <char[1:7]> [(void *)&type + 16B]
.LBE3121:
.LBE3120:
.LBE3119:
.LBE3118:
.LBE3117:
.LBE3116:
.LBE3115:
.LBE3114:
.LBB3137:
.LBB3112:
.LBB3110:
 # C:/msys64/ucrt64/include/c++/14.2.0/bits/basic_string.h:194: 	: allocator_type(__a), _M_p(__dat) { }
	.loc 15 194 25 discriminator 1 view .LVU693
	movq	%rdi, 48(%rsp)	 # tmp268, MEM[(struct _Alloc_hider *)&type]._M_p
.LVL183:
	.loc 15 194 25 discriminator 1 view .LVU694
.LBE3110:
.LBE3112:
.LBE3137:
.LBB3138:
.LBB3135:
.LBI3135:
	.loc 16 385 7 is_stmt 1 view .LVU695
	.loc 16 388 2 view .LVU696
	.loc 16 391 2 view .LVU697
	.loc 16 391 2 is_stmt 0 view .LVU698
.LBE3135:
.LBB3136:
.LBI3115:
	.file 17 "C:/msys64/ucrt64/include/c++/14.2.0/bits/basic_string.tcc"
	.loc 17 221 7 is_stmt 1 view .LVU699
.LBB3134:
.LBB3126:
.LBI3126:
	.loc 17 239 13 view .LVU700
	.loc 17 239 13 is_stmt 0 view .LVU701
.LBE3126:
.LBB3127:
.LBI3117:
	.loc 15 487 7 is_stmt 1 view .LVU702
.LBB3125:
.LBI3118:
	.loc 15 430 7 view .LVU703
.LBB3124:
.LBI3119:
	.loc 15 430 7 view .LVU704
.LBB3123:
.LBI3120:
	.loc 16 419 7 view .LVU705
.LBB3122:
	.loc 16 421 2 view .LVU706
	.loc 16 427 2 view .LVU707
 # C:/msys64/ucrt64/include/c++/14.2.0/bits/char_traits.h:427: 	return static_cast<char_type*>(__builtin_memcpy(__s1, __s2, __n));
	.loc 16 427 49 is_stmt 0 view .LVU708
	movl	$842232929, 67(%rsp)	 #, MEM <char[1:7]> [(void *)&type + 16B]
.LVL184:
	.loc 16 427 49 view .LVU709
.LBE3122:
.LBE3123:
.LBE3124:
.LBE3125:
.LBE3127:
.LBB3128:
.LBI3128:
	.loc 15 259 7 is_stmt 1 view .LVU710
.LBB3129:
.LBI3129:
	.loc 15 222 7 view .LVU711
.LBB3130:
 # C:/msys64/ucrt64/include/c++/14.2.0/bits/basic_string.h:223:       { _M_string_length = __length; }
	.loc 15 223 26 is_stmt 0 view .LVU712
	movq	$7, 56(%rsp)	 #, type._M_string_length
.LVL185:
	.loc 15 223 26 view .LVU713
.LBE3130:
.LBE3129:
.LBB3131:
.LBI3131:
	.loc 16 343 7 is_stmt 1 view .LVU714
.LBB3132:
	.loc 16 350 2 view .LVU715
 # C:/msys64/ucrt64/include/c++/14.2.0/bits/char_traits.h:350: 	__c1 = __c2;
	.loc 16 350 7 is_stmt 0 view .LVU716
	movb	$0, 71(%rsp)	 #, MEM[(char_type &)&type + 23]
.LVL186:
	.loc 16 350 7 view .LVU717
.LBE3132:
.LBE3131:
.LBE3128:
.LBB3133:
.LBI3133:
	.loc 17 242 4 is_stmt 1 view .LVU718
	.loc 17 242 4 is_stmt 0 view .LVU719
.LBE3133:
.LBE3134:
.LBE3136:
.LBE3138:
.LBE3140:
.LBE3151:
.LBB3152:
.LBI3152:
	.loc 13 182 7 is_stmt 1 view .LVU720
.LBB3153:
.LBI3153:
	.loc 14 104 7 view .LVU721
	.loc 14 104 7 is_stmt 0 view .LVU722
.LBE3153:
.LBE3152:
.LBB3154:
.LBI3141:
	.loc 15 4077 5 is_stmt 1 view .LVU723
.LBB3147:
.LBB3143:
.LBI3143:
	.loc 15 1076 7 view .LVU724
	.loc 15 1076 7 is_stmt 0 view .LVU725
.LBE3143:
.LBB3144:
.LBI3144:
	.loc 15 2653 7 is_stmt 1 view .LVU726
.LBB3145:
.LBI3145:
	.loc 15 227 7 view .LVU727
.LEHB3:
	.loc 15 227 7 is_stmt 0 view .LVU728
.LBE3145:
.LBE3144:
 # C:/msys64/ucrt64/include/c++/14.2.0/bits/basic_string.h:4082:       return __ostream_insert(__os, __str.data(), __str.size());
	.loc 15 4082 30 discriminator 2 view .LVU729
	call	_ZSt16__ostream_insertIcSt11char_traitsIcEERSt13basic_ostreamIT_T0_ES6_PKS3_x	 #
.LVL187:
.LBE3147:
.LBE3154:
.LBB3155:
.LBB3156:
 # C:/msys64/ucrt64/include/c++/14.2.0/ostream:673: 	__ostream_insert(__out, __s,
	.loc 11 673 18 view .LVU730
	leaq	.LC3(%rip), %r12	 #, tmp270
.LVL188:
	.loc 11 673 18 view .LVU731
.LBE3156:
.LBE3155:
.LBB3158:
.LBB3148:
 # C:/msys64/ucrt64/include/c++/14.2.0/bits/basic_string.h:4082:       return __ostream_insert(__os, __str.data(), __str.size());
	.loc 15 4082 30 discriminator 2 view .LVU732
	movq	%rax, %rcx	 # tmp286, _37
.LVL189:
	.loc 15 4082 30 discriminator 2 view .LVU733
.LBE3148:
.LBE3158:
.LBB3159:
.LBI3155:
	.loc 11 668 5 is_stmt 1 view .LVU734
.LBB3157:
 # C:/msys64/ucrt64/include/c++/14.2.0/ostream:673: 	__ostream_insert(__out, __s,
	.loc 11 673 18 is_stmt 0 view .LVU735
	movl	$1, %r8d	 #,
	movq	%rax, 40(%rsp)	 # _37, %sfp
	movq	%r12, %rdx	 # tmp270,
	call	_ZSt16__ostream_insertIcSt11char_traitsIcEERSt13basic_ostreamIT_T0_ES6_PKS3_x	 #
.LVL190:
	.loc 11 673 18 view .LVU736
.LBE3157:
.LBE3159:
.LBB3160:
.LBI3160:
	.loc 15 4077 5 is_stmt 1 view .LVU737
.LBB3161:
.LBB3162:
.LBI3162:
	.loc 15 1076 7 view .LVU738
	.loc 15 1076 7 is_stmt 0 view .LVU739
.LBE3162:
.LBB3163:
.LBI3163:
	.loc 15 2653 7 is_stmt 1 view .LVU740
.LBB3164:
.LBI3164:
	.loc 15 227 7 view .LVU741
	.loc 15 227 7 is_stmt 0 view .LVU742
.LBE3164:
.LBE3163:
 # C:/msys64/ucrt64/include/c++/14.2.0/bits/basic_string.h:4082:       return __ostream_insert(__os, __str.data(), __str.size());
	.loc 15 4082 30 discriminator 2 view .LVU743
	movq	56(%rsp), %r8	 # type._M_string_length,
	movq	48(%rsp), %rdx	 # type._M_dataplus._M_p,
	movq	40(%rsp), %rcx	 # %sfp, _37
	call	_ZSt16__ostream_insertIcSt11char_traitsIcEERSt13basic_ostreamIT_T0_ES6_PKS3_x	 #
.LVL191:
	movq	%rax, %rcx	 # tmp287, _41
.LVL192:
	.loc 15 4082 30 discriminator 2 view .LVU744
.LBE3161:
.LBE3160:
.LBB3165:
.LBI3165:
	.loc 11 668 5 is_stmt 1 view .LVU745
.LBB3166:
 # C:/msys64/ucrt64/include/c++/14.2.0/ostream:673: 	__ostream_insert(__out, __s,
	.loc 11 673 18 is_stmt 0 view .LVU746
	movl	$1, %r8d	 #,
	movq	%r12, %rdx	 # tmp270,
	movq	%rax, 40(%rsp)	 # _41, %sfp
	call	_ZSt16__ostream_insertIcSt11char_traitsIcEERSt13basic_ostreamIT_T0_ES6_PKS3_x	 #
.LVL193:
	.loc 11 673 18 view .LVU747
.LBE3166:
.LBE3165:
.LBB3167:
.LBI3167:
	.loc 11 213 7 is_stmt 1 view .LVU748
.LBB3168:
 # C:/msys64/ucrt64/include/c++/14.2.0/ostream:214:       { return _M_insert(__n); }
	.loc 11 214 25 is_stmt 0 view .LVU749
	movq	672(%rsp), %rdx	 # n,
	movq	40(%rsp), %rcx	 # %sfp, _41
	call	_ZNSo9_M_insertIyEERSoT_	 #
.LVL194:
	movq	%rax, %rcx	 # tmp288, _42
.LVL195:
	.loc 11 214 25 view .LVU750
.LBE3168:
.LBE3167:
.LBB3169:
.LBI3169:
	.loc 11 668 5 is_stmt 1 view .LVU751
.LBB3170:
 # C:/msys64/ucrt64/include/c++/14.2.0/ostream:673: 	__ostream_insert(__out, __s,
	.loc 11 673 18 is_stmt 0 view .LVU752
	movl	$1, %r8d	 #,
	movq	%r12, %rdx	 # tmp270,
	movq	%rax, 40(%rsp)	 # _42, %sfp
	call	_ZSt16__ostream_insertIcSt11char_traitsIcEERSt13basic_ostreamIT_T0_ES6_PKS3_x	 #
.LVL196:
	.loc 11 673 18 view .LVU753
.LBE3170:
.LBE3169:
.LBB3171:
.LBI3171:
	.loc 11 228 7 is_stmt 1 view .LVU754
.LBB3172:
 # C:/msys64/ucrt64/include/c++/14.2.0/ostream:229:       { return _M_insert(__f); }
	.loc 11 229 25 is_stmt 0 view .LVU755
	movq	40(%rsp), %rcx	 # %sfp, _42
	vmovsd	%xmm6, %xmm6, %xmm1	 # gflops,
	call	_ZNSo9_M_insertIdEERSoT_	 #
.LVL197:
	movq	%rax, %rcx	 # tmp289, _43
.LVL198:
	.loc 11 229 25 view .LVU756
.LBE3172:
.LBE3171:
.LBB3173:
.LBI3173:
	.loc 11 668 5 is_stmt 1 view .LVU757
.LBB3174:
 # C:/msys64/ucrt64/include/c++/14.2.0/ostream:673: 	__ostream_insert(__out, __s,
	.loc 11 673 18 is_stmt 0 view .LVU758
	movl	$1, %r8d	 #,
	movq	%r12, %rdx	 # tmp270,
	movq	%rax, 40(%rsp)	 # _43, %sfp
	call	_ZSt16__ostream_insertIcSt11char_traitsIcEERSt13basic_ostreamIT_T0_ES6_PKS3_x	 #
.LVL199:
	.loc 11 673 18 view .LVU759
.LBE3174:
.LBE3173:
.LBB3175:
.LBI3175:
	.loc 11 228 7 is_stmt 1 view .LVU760
.LBB3176:
 # C:/msys64/ucrt64/include/c++/14.2.0/ostream:229:       { return _M_insert(__f); }
	.loc 11 229 25 is_stmt 0 view .LVU761
	vmovsd	688(%rsp), %xmm1	 # time_ms,
	movq	40(%rsp), %rcx	 # %sfp, _43
	call	_ZNSo9_M_insertIdEERSoT_	 #
.LVL200:
	movq	%rax, %rcx	 # tmp290, _44
.LVL201:
	.loc 11 229 25 view .LVU762
.LBE3176:
.LBE3175:
.LBB3177:
.LBI3177:
	.loc 11 668 5 is_stmt 1 view .LVU763
.LBB3178:
 # C:/msys64/ucrt64/include/c++/14.2.0/ostream:673: 	__ostream_insert(__out, __s,
	.loc 11 673 18 is_stmt 0 view .LVU764
	movl	$1, %r8d	 #,
	movq	%r12, %rdx	 # tmp270,
	movq	%rax, 40(%rsp)	 # _44, %sfp
	call	_ZSt16__ostream_insertIcSt11char_traitsIcEERSt13basic_ostreamIT_T0_ES6_PKS3_x	 #
.LVL202:
	.loc 11 673 18 view .LVU765
.LBE3178:
.LBE3177:
.LBB3179:
.LBI3179:
	.loc 11 232 7 is_stmt 1 view .LVU766
.LBB3180:
 # C:/msys64/ucrt64/include/c++/14.2.0/ostream:236: 	return _M_insert(static_cast<double>(__f));
	.loc 11 236 18 is_stmt 0 view .LVU767
	vcvtss2sd	696(%rsp), %xmm1, %xmm1	 # y0,
	movq	40(%rsp), %rcx	 # %sfp, _44
	call	_ZNSo9_M_insertIdEERSoT_	 #
.LVL203:
	movq	%rax, %rcx	 # tmp291, _46
.LVL204:
	.loc 11 236 18 view .LVU768
.LBE3180:
.LBE3179:
.LBB3181:
.LBI3181:
	.loc 11 668 5 is_stmt 1 view .LVU769
.LBB3182:
 # C:/msys64/ucrt64/include/c++/14.2.0/ostream:673: 	__ostream_insert(__out, __s,
	.loc 11 673 18 is_stmt 0 view .LVU770
	movl	$1, %r8d	 #,
	leaq	.LC1(%rip), %rdx	 #, tmp237
	call	_ZSt16__ostream_insertIcSt11char_traitsIcEERSt13basic_ostreamIT_T0_ES6_PKS3_x	 #
.LVL205:
.LEHE3:
	.loc 11 673 18 view .LVU771
.LBE3182:
.LBE3181:
.LBB3183:
.LBI3183:
	.loc 15 808 7 is_stmt 1 view .LVU772
.LBB3184:
.LBB3185:
.LBI3185:
	.loc 15 285 7 view .LVU773
.LBB3186:
.LBB3187:
.LBI3187:
	.loc 15 267 7 view .LVU774
.LBB3188:
.LBB3189:
.LBI3189:
	.loc 15 227 7 view .LVU775
.LBB3190:
 # C:/msys64/ucrt64/include/c++/14.2.0/bits/basic_string.h:228:       { return _M_dataplus._M_p; }
	.loc 15 228 28 is_stmt 0 view .LVU776
	movq	48(%rsp), %rcx	 # type._M_dataplus._M_p, _129
.LVL206:
	.loc 15 228 28 view .LVU777
.LBE3190:
.LBE3189:
.LBB3191:
.LBI3191:
	.loc 15 243 7 is_stmt 1 view .LVU778
	.loc 15 243 7 is_stmt 0 view .LVU779
.LBE3191:
 # C:/msys64/ucrt64/include/c++/14.2.0/bits/basic_string.h:269: 	if (_M_data() == _M_local_data())
	.loc 15 269 2 discriminator 2 view .LVU780
	cmpq	%rdi, %rcx	 # tmp268, _129
	je	.L108	 #,
.LVL207:
	.loc 15 269 2 discriminator 2 view .LVU781
.LBE3188:
.LBE3187:
.LBB3192:
.LBI3192:
	.loc 15 293 7 is_stmt 1 view .LVU782
.LBB3193:
.LBB3194:
.LBI3194:
	.file 18 "C:/msys64/ucrt64/include/c++/14.2.0/bits/alloc_traits.h"
	.loc 18 512 7 view .LVU783
.LBB3195:
.LBI3195:
	.loc 14 156 7 view .LVU784
.LBE3195:
.LBE3194:
 # C:/msys64/ucrt64/include/c++/14.2.0/bits/basic_string.h:294:       { _Alloc_traits::deallocate(_M_get_allocator(), _M_data(), __size + 1); }
	.loc 15 294 34 is_stmt 0 view .LVU785
	movq	64(%rsp), %rax	 # type.D.32833._M_allocated_capacity, tmp304
	leaq	1(%rax), %rdx	 #, _132
.LVL208:
.LBB3198:
.LBB3197:
.LBB3196:
 # C:/msys64/ucrt64/include/c++/14.2.0/bits/new_allocator.h:172: 	_GLIBCXX_OPERATOR_DELETE(_GLIBCXX_SIZED_DEALLOC(__p, __n));
	.loc 14 172 26 view .LVU786
	call	_ZdlPvy	 #
.LVL209:
.L108:
	.loc 14 172 26 view .LVU787
.LBE3196:
.LBE3197:
.LBE3198:
.LBE3193:
.LBE3192:
.LBE3186:
.LBE3185:
.LBB3199:
.LBI3199:
	.loc 15 186 14 is_stmt 1 view .LVU788
.LBB3200:
.LBI3200:
	.loc 13 182 7 view .LVU789
.LBB3201:
.LBI3201:
	.loc 14 104 7 view .LVU790
	.loc 14 104 7 is_stmt 0 view .LVU791
.LBE3201:
.LBE3200:
.LBE3199:
.LBE3184:
.LBE3183:
.LBB3202:
.LBI3202:
	.loc 10 911 7 is_stmt 1 view .LVU792
.LBB3203:
 # C:/msys64/ucrt64/include/c++/14.2.0/fstream:912:       { }
	.loc 10 912 9 is_stmt 0 view .LVU793
	leaq	24(%rbx), %rax	 #, tmp243
.LBB3204:
.LBB3205:
 # C:/msys64/ucrt64/include/c++/14.2.0/fstream:259: 	  { this->close(); }
	.loc 10 259 17 view .LVU794
	movq	%rbp, %rcx	 # tmp273,
.LBE3205:
.LBE3204:
 # C:/msys64/ucrt64/include/c++/14.2.0/fstream:912:       { }
	.loc 10 912 9 view .LVU795
	addq	$64, %rbx	 #, tmp245
	movq	%rax, 80(%rsp)	 # tmp243, file.D.107333._vptr.basic_ostream
.LBB3211:
.LBB3208:
 # C:/msys64/ucrt64/include/c++/14.2.0/fstream:262:       }
	.loc 10 262 7 view .LVU796
	movq	.refptr._ZTVSt13basic_filebufIcSt11char_traitsIcEE(%rip), %rax	 #, tmp305
.LBE3208:
.LBE3211:
 # C:/msys64/ucrt64/include/c++/14.2.0/fstream:912:       { }
	.loc 10 912 9 view .LVU797
	movq	%rbx, 296(%rsp)	 # tmp245, MEM[(struct basic_ios *)&file + 216B].D.51970._vptr.ios_base
.LVL210:
.LBB3212:
.LBI3204:
	.loc 10 256 7 is_stmt 1 view .LVU798
.LBB3209:
 # C:/msys64/ucrt64/include/c++/14.2.0/fstream:262:       }
	.loc 10 262 7 is_stmt 0 view .LVU799
	addq	$16, %rax	 #, tmp247
	movq	%rax, 88(%rsp)	 # tmp247, MEM[(struct basic_filebuf *)&file + 8B].D.106927._vptr.basic_streambuf
.LEHB4:
 # C:/msys64/ucrt64/include/c++/14.2.0/fstream:259: 	  { this->close(); }
	.loc 10 259 17 view .LVU800
	call	_ZNSt13basic_filebufIcSt11char_traitsIcEE5closeEv	 #
.LVL211:
.LEHE4:
.L110:
 # C:/msys64/ucrt64/include/c++/14.2.0/fstream:262:       }
	.loc 10 262 7 view .LVU801
	leaq	160(%rsp), %rcx	 #, tmp251
	call	_ZNSt12__basic_fileIcED1Ev	 #
.LVL212:
.LBB3206:
.LBI3206:
	.file 19 "C:/msys64/ucrt64/include/c++/14.2.0/streambuf"
	.loc 19 204 7 is_stmt 1 view .LVU802
.LBB3207:
 # C:/msys64/ucrt64/include/c++/14.2.0/streambuf:205:       { }
	.loc 19 205 9 is_stmt 0 view .LVU803
	movq	.refptr._ZTVSt15basic_streambufIcSt11char_traitsIcEE(%rip), %rax	 #, tmp306
	leaq	144(%rsp), %rcx	 #, tmp255
	addq	$16, %rax	 #, tmp253
	movq	%rax, 88(%rsp)	 # tmp253, MEM[(struct basic_streambuf *)&file + 8B]._vptr.basic_streambuf
	call	_ZNSt6localeD1Ev	 #
.LVL213:
	.loc 19 205 9 view .LVU804
.LBE3207:
.LBE3206:
.LBE3209:
.LBE3212:
.LBB3213:
.LBI3213:
	.loc 11 101 7 is_stmt 1 view .LVU805
.LBB3214:
 # C:/msys64/ucrt64/include/c++/14.2.0/ostream:101:       ~basic_ostream() { }
	.loc 11 101 26 is_stmt 0 view .LVU806
	movq	-24(%rsi), %rax	 # MEM[(long long int *)_66 + -24B], MEM[(long long int *)_66 + -24B]
	movq	%rsi, 80(%rsp)	 # _66, MEM[(struct basic_ostream *)&file]._vptr.basic_ostream
.LBE3214:
.LBE3213:
.LBB3216:
.LBB3217:
 # C:/msys64/ucrt64/include/c++/14.2.0/bits/basic_ios.h:286:       ~basic_ios() { }
	.loc 9 286 22 view .LVU807
	movq	%r13, %rcx	 # tmp274,
.LBE3217:
.LBE3216:
.LBB3219:
.LBB3215:
 # C:/msys64/ucrt64/include/c++/14.2.0/ostream:101:       ~basic_ostream() { }
	.loc 11 101 26 view .LVU808
	movq	%r14, 80(%rsp,%rax)	 # _70,
.LVL214:
	.loc 11 101 26 view .LVU809
.LBE3215:
.LBE3219:
.LBB3220:
.LBI3216:
	.loc 9 286 7 is_stmt 1 view .LVU810
.LBB3218:
 # C:/msys64/ucrt64/include/c++/14.2.0/bits/basic_ios.h:286:       ~basic_ios() { }
	.loc 9 286 22 is_stmt 0 view .LVU811
	movq	.refptr._ZTVSt9basic_iosIcSt11char_traitsIcEE(%rip), %rax	 #, tmp307
	leaq	16(%rax), %rdi	 #, tmp258
	movq	%rdi, 296(%rsp)	 # tmp258, MEM[(struct basic_ios *)&file + 216B].D.51970._vptr.ios_base
	call	_ZNSt8ios_baseD2Ev	 #
	nop	
.LVL215:
	.loc 9 286 22 view .LVU812
.LBE3218:
.LBE3220:
.LBE3203:
.LBE3202:
 # C:\Users\MattsDesktop\ECSE6320P1SIMD\SimdMain.cpp:29: }
	.loc 1 29 1 view .LVU813
	vmovups	560(%rsp), %xmm6	 #,
.LVL216:
	.loc 1 29 1 view .LVU814
	addq	$584, %rsp	 #,
	.cfi_remember_state
	.cfi_restore 23
	.cfi_def_cfa_offset 72
	popq	%rbx	 #
	.cfi_restore 3
	.cfi_def_cfa_offset 64
	popq	%rsi	 #
	.cfi_restore 4
	.cfi_def_cfa_offset 56
	popq	%rdi	 #
	.cfi_restore 5
	.cfi_def_cfa_offset 48
	popq	%rbp	 #
	.cfi_restore 6
	.cfi_def_cfa_offset 40
	popq	%r12	 #
	.cfi_restore 12
	.cfi_def_cfa_offset 32
	popq	%r13	 #
	.cfi_restore 13
	.cfi_def_cfa_offset 24
	popq	%r14	 #
	.cfi_restore 14
	.cfi_def_cfa_offset 16
	popq	%r15	 #
	.cfi_restore 15
	.cfi_def_cfa_offset 8
	ret	
.LVL217:
	.p2align 4,,10
	.p2align 3
.L124:
	.cfi_restore_state
.LBB3223:
.LBI3223:
	.loc 11 668 5 is_stmt 1 view .LVU815
.LBB3224:
 # C:/msys64/ucrt64/include/c++/14.2.0/ostream:673: 	__ostream_insert(__out, __s,
	.loc 11 673 18 is_stmt 0 view .LVU816
	movl	$36, %r8d	 #,
	leaq	.LC2(%rip), %rdx	 #, tmp221
	movq	%r15, %rcx	 # tmp272,
.LEHB5:
	call	_ZSt16__ostream_insertIcSt11char_traitsIcEERSt13basic_ostreamIT_T0_ES6_PKS3_x	 #
.LVL218:
.LEHE5:
	.loc 11 673 18 view .LVU817
.LBE3224:
.LBE3223:
 # C:\Users\MattsDesktop\ECSE6320P1SIMD\SimdMain.cpp:21:         csv_header_written = true;
	.loc 1 21 28 view .LVU818
	movb	$1, _ZL18csv_header_written(%rip)	 #, csv_header_written
	jmp	.L107	 #
.LVL219:
	.p2align 4,,10
	.p2align 3
.L122:
.LBB3225:
.LBB3084:
.LBB3078:
.LBB3069:
.LBB3068:
.LBB3067:
.LBI3059:
	.loc 10 970 7 is_stmt 1 view .LVU819
.LBB3066:
.LBB3061:
.LBI3061:
	.loc 9 161 7 view .LVU820
.LBB3062:
.LBB3063:
.LBI3063:
	.loc 9 141 7 view .LVU821
	.loc 9 141 7 is_stmt 0 view .LVU822
.LBE3063:
.LBB3064:
.LBI3064:
	.loc 12 186 3 is_stmt 1 view .LVU823
.LBB3065:
	.loc 12 187 5 view .LVU824
 # C:/msys64/ucrt64/include/c++/14.2.0/bits/ios_base.h:187:   { return _Ios_Iostate(static_cast<int>(__a) | static_cast<int>(__b)); }
	.loc 12 187 70 is_stmt 0 view .LVU825
	movl	32(%rcx), %edx	 # MEM[(const struct basic_ios *)_116].D.51970._M_streambuf_state, _91
	orl	$4, %edx	 #, _91
.LEHB6:
.LBE3065:
.LBE3064:
 # C:/msys64/ucrt64/include/c++/14.2.0/bits/basic_ios.h:162:       { this->clear(this->rdstate() | __state); }
	.loc 9 162 20 discriminator 2 view .LVU826
	call	_ZNSt9basic_iosIcSt11char_traitsIcEE5clearESt12_Ios_Iostate	 #
.LVL220:
.LEHE6:
	.loc 9 162 20 discriminator 2 view .LVU827
.LBE3062:
.LBE3061:
.LBE3066:
.LBE3067:
.LBE3068:
.LBE3069:
.LBE3078:
.LBE3084:
.LBE3225:
.LBB3226:
	.loc 9 129 7 is_stmt 1 view .LVU828
.LBB3098:
	.loc 9 205 7 view .LVU829
.LBB3096:
	.loc 9 141 7 view .LVU830
	.loc 9 141 7 is_stmt 0 view .LVU831
.LBE3096:
.LBB3097:
	.loc 12 181 3 is_stmt 1 view .LVU832
.LBB3095:
	.loc 12 182 5 view .LVU833
	.loc 12 182 5 is_stmt 0 view .LVU834
.LBE3095:
.LBE3097:
.LBE3098:
.LBE3226:
 # C:\Users\MattsDesktop\ECSE6320P1SIMD\SimdMain.cpp:14:     if (!file) {
	.loc 1 14 5 discriminator 1 view .LVU835
	testb	$5, 328(%rsp)	 #, MEM[(const struct basic_ios *)&file + 216B].D.51970._M_streambuf_state
	je	.L120	 #,
.L123:
.LVL221:
.LBB3227:
.LBI3227:
	.loc 11 668 5 is_stmt 1 view .LVU836
.LBB3228:
 # C:/msys64/ucrt64/include/c++/14.2.0/ostream:673: 	__ostream_insert(__out, __s,
	.loc 11 673 18 is_stmt 0 view .LVU837
	movq	.refptr._ZSt4cerr(%rip), %r12	 #, tmp275
.LVL222:
	.loc 11 673 18 view .LVU838
	movl	$25, %r8d	 #,
	leaq	.LC0(%rip), %rdx	 #, tmp194
	movq	%r12, %rcx	 # tmp275,
.LEHB7:
	call	_ZSt16__ostream_insertIcSt11char_traitsIcEERSt13basic_ostreamIT_T0_ES6_PKS3_x	 #
.LVL223:
	.loc 11 673 18 view .LVU839
.LBE3228:
.LBE3227:
.LBB3229:
.LBI3229:
	.loc 15 4077 5 is_stmt 1 view .LVU840
.LBB3230:
.LBB3231:
.LBI3231:
	.loc 15 1076 7 view .LVU841
	.loc 15 1076 7 is_stmt 0 view .LVU842
.LBE3231:
.LBB3232:
.LBI3232:
	.loc 15 2653 7 is_stmt 1 view .LVU843
.LBB3233:
.LBI3233:
	.loc 15 227 7 view .LVU844
	.loc 15 227 7 is_stmt 0 view .LVU845
.LBE3233:
.LBE3232:
 # C:/msys64/ucrt64/include/c++/14.2.0/bits/basic_string.h:4082:       return __ostream_insert(__os, __str.data(), __str.size());
	.loc 15 4082 30 discriminator 2 view .LVU846
	movq	(%rdi), %rdx	 # MEM[(const struct basic_string *)filename_7(D)]._M_dataplus._M_p, MEM[(const struct basic_string *)filename_7(D)]._M_dataplus._M_p
	movq	8(%rdi), %r8	 # MEM[(const struct basic_string *)filename_7(D)]._M_string_length,
	movq	%r12, %rcx	 # tmp275,
	call	_ZSt16__ostream_insertIcSt11char_traitsIcEERSt13basic_ostreamIT_T0_ES6_PKS3_x	 #
.LVL224:
	movq	%rax, %rcx	 # tmp284, _33
.LVL225:
	.loc 15 4082 30 discriminator 2 view .LVU847
.LBE3230:
.LBE3229:
.LBB3234:
.LBI3234:
	.loc 11 668 5 is_stmt 1 view .LVU848
.LBB3235:
 # C:/msys64/ucrt64/include/c++/14.2.0/ostream:673: 	__ostream_insert(__out, __s,
	.loc 11 673 18 is_stmt 0 view .LVU849
	movl	$1, %r8d	 #,
	leaq	.LC1(%rip), %rdx	 #, tmp199
	call	_ZSt16__ostream_insertIcSt11char_traitsIcEERSt13basic_ostreamIT_T0_ES6_PKS3_x	 #
.LVL226:
.LEHE7:
	.loc 11 673 18 view .LVU850
.LBE3235:
.LBE3234:
.LBB3236:
.LBI3236:
	.loc 10 911 7 is_stmt 1 view .LVU851
.LBB3237:
 # C:/msys64/ucrt64/include/c++/14.2.0/fstream:912:       { }
	.loc 10 912 9 is_stmt 0 view .LVU852
	leaq	24(%rbx), %rax	 #, tmp201
.LBB3238:
.LBB3239:
 # C:/msys64/ucrt64/include/c++/14.2.0/fstream:259: 	  { this->close(); }
	.loc 10 259 17 view .LVU853
	movq	%rbp, %rcx	 # tmp273,
.LBE3239:
.LBE3238:
 # C:/msys64/ucrt64/include/c++/14.2.0/fstream:912:       { }
	.loc 10 912 9 view .LVU854
	addq	$64, %rbx	 #, tmp203
	movq	%rax, 80(%rsp)	 # tmp201, file.D.107333._vptr.basic_ostream
.LBB3243:
.LBB3240:
 # C:/msys64/ucrt64/include/c++/14.2.0/fstream:262:       }
	.loc 10 262 7 view .LVU855
	movq	.refptr._ZTVSt13basic_filebufIcSt11char_traitsIcEE(%rip), %rax	 #, tmp301
.LBE3240:
.LBE3243:
 # C:/msys64/ucrt64/include/c++/14.2.0/fstream:912:       { }
	.loc 10 912 9 view .LVU856
	movq	%rbx, 296(%rsp)	 # tmp203, MEM[(struct basic_ios *)&file + 216B].D.51970._vptr.ios_base
.LVL227:
.LBB3244:
.LBI3238:
	.loc 10 256 7 is_stmt 1 view .LVU857
.LBB3241:
 # C:/msys64/ucrt64/include/c++/14.2.0/fstream:262:       }
	.loc 10 262 7 is_stmt 0 view .LVU858
	addq	$16, %rax	 #, tmp205
	movq	%rax, 88(%rsp)	 # tmp205, MEM[(struct basic_filebuf *)&file + 8B].D.106927._vptr.basic_streambuf
.LEHB8:
 # C:/msys64/ucrt64/include/c++/14.2.0/fstream:259: 	  { this->close(); }
	.loc 10 259 17 view .LVU859
	call	_ZNSt13basic_filebufIcSt11char_traitsIcEE5closeEv	 #
.LVL228:
.LEHE8:
	jmp	.L110	 #
.LVL229:
.L113:
	.loc 10 259 17 view .LVU860
.LBE3241:
.LBE3244:
.LBE3237:
.LBE3236:
 # C:\Users\MattsDesktop\ECSE6320P1SIMD\SimdMain.cpp:29: }
	.loc 1 29 1 view .LVU861
	movq	%rax, %rbx	 # tmp294, tmp263
	vzeroupper
.LVL230:
.L112:
	.loc 1 29 1 view .LVU862
	movq	%r15, %rcx	 # tmp272,
	call	_ZNSt14basic_ofstreamIcSt11char_traitsIcEED1Ev	 #
.LVL231:
	movq	%rbx, %rcx	 # tmp263,
.LEHB9:
	call	_Unwind_Resume	 #
.LVL232:
.LEHE9:
.L118:
.LBB3247:
.LBB3246:
.LBB3245:
.LBB3242:
 # C:/msys64/ucrt64/include/c++/14.2.0/fstream:260: 	__catch(...)
	.loc 10 260 2 discriminator 1 view .LVU863
	movq	%rax, %rcx	 # tmp285, tmp219
	vzeroupper
.LVL233:
	call	__cxa_begin_catch	 #
.LVL234:
 # C:/msys64/ucrt64/include/c++/14.2.0/fstream:260: 	__catch(...)
	.loc 10 260 2 discriminator 2 view .LVU864
	call	__cxa_end_catch	 #
.LVL235:
	jmp	.L110	 #
.LVL236:
.L117:
	.loc 10 260 2 discriminator 2 view .LVU865
.LBE3242:
.LBE3245:
.LBE3246:
.LBE3247:
.LBB3248:
.LBB3085:
.LBB3079:
 # C:/msys64/ucrt64/include/c++/14.2.0/fstream:880:       }
	.loc 10 880 7 view .LVU866
	movq	%rax, %rbx	 # tmp281, tmp184
	movq	%rbp, %rcx	 # tmp273,
	vzeroupper
.LVL237:
	call	_ZNSt13basic_filebufIcSt11char_traitsIcEED1Ev	 #
.LVL238:
	movq	%rbx, %rax	 # tmp184, tmp183
	jmp	.L102	 #
.L116:
	vzeroupper
.LVL239:
.L102:
.LBB3070:
.LBI3070:
	.loc 11 101 7 is_stmt 1 view .LVU867
.LBB3071:
 # C:/msys64/ucrt64/include/c++/14.2.0/ostream:101:       ~basic_ostream() { }
	.loc 11 101 26 is_stmt 0 view .LVU868
	movq	-24(%rsi), %rdx	 # MEM[(long long int *)_66 + -24B], MEM[(long long int *)_66 + -24B]
	movq	%rsi, 80(%rsp)	 # _66, MEM[(struct basic_ostream *)&file]._vptr.basic_ostream
	movq	%rax, %rbx	 # tmp183, tmp188
	movq	%r14, 80(%rsp,%rdx)	 # _70, MEM[(struct basic_ios *)_76].D.51970._vptr.ios_base
.LVL240:
	.loc 11 101 26 view .LVU869
	jmp	.L103	 #
.LVL241:
.L119:
	.loc 11 101 26 view .LVU870
.LBE3071:
.LBE3070:
.LBE3079:
.LBE3085:
.LBE3248:
.LBB3249:
.LBB3222:
.LBB3221:
.LBB3210:
 # C:/msys64/ucrt64/include/c++/14.2.0/fstream:260: 	__catch(...)
	.loc 10 260 2 discriminator 1 view .LVU871
	movq	%rax, %rcx	 # tmp292, tmp261
	vzeroupper
.LVL242:
	call	__cxa_begin_catch	 #
.LVL243:
 # C:/msys64/ucrt64/include/c++/14.2.0/fstream:260: 	__catch(...)
	.loc 10 260 2 discriminator 2 view .LVU872
	call	__cxa_end_catch	 #
.LVL244:
	jmp	.L110	 #
.LVL245:
.L115:
	.loc 10 260 2 discriminator 2 view .LVU873
.LBE3210:
.LBE3221:
.LBE3222:
.LBE3249:
.LBB3250:
.LBB3086:
.LBB3080:
.LBB3072:
.LBB3073:
 # C:/msys64/ucrt64/include/c++/14.2.0/bits/basic_ios.h:286:       ~basic_ios() { }
	.loc 9 286 22 view .LVU874
	movq	%rax, %rbx	 # tmp283, tmp188
	vzeroupper
.LVL246:
.L103:
	.loc 9 286 22 view .LVU875
.LBE3073:
.LBI3072:
	.loc 9 286 7 is_stmt 1 view .LVU876
.LBB3074:
 # C:/msys64/ucrt64/include/c++/14.2.0/bits/basic_ios.h:286:       ~basic_ios() { }
	.loc 9 286 22 is_stmt 0 view .LVU877
	movq	.refptr._ZTVSt9basic_iosIcSt11char_traitsIcEE(%rip), %rax	 #, tmp300
	movq	%r13, %rcx	 # tmp274,
	leaq	16(%rax), %rdi	 #, tmp191
.LVL247:
	.loc 9 286 22 view .LVU878
	movq	%rdi, 296(%rsp)	 # tmp191, MEM[(struct basic_ios *)&file + 216B].D.51970._vptr.ios_base
	call	_ZNSt8ios_baseD2Ev	 #
.LVL248:
	.loc 9 286 22 view .LVU879
	movq	%rbx, %rcx	 # tmp188,
.LEHB10:
	call	_Unwind_Resume	 #
.LVL249:
.LEHE10:
.L114:
	.loc 9 286 22 view .LVU880
.LBE3074:
.LBE3072:
.LBE3080:
.LBE3086:
.LBE3250:
.LBB3251:
.LBB3252:
 # C:/msys64/ucrt64/include/c++/14.2.0/bits/basic_string.h:809:       { _M_dispose(); }
	.loc 15 809 19 view .LVU881
	leaq	48(%rsp), %rcx	 #, tmp262
	movq	%rax, %rbx	 # tmp293, tmp264
.LVL250:
	.loc 15 809 19 view .LVU882
.LBE3252:
.LBI3251:
	.loc 15 808 7 is_stmt 1 view .LVU883
.LBB3256:
 # C:/msys64/ucrt64/include/c++/14.2.0/bits/basic_string.h:809:       { _M_dispose(); }
	.loc 15 809 19 is_stmt 0 view .LVU884
	vzeroupper
.LVL251:
	call	_ZNSt7__cxx1112basic_stringIcSt11char_traitsIcESaIcEE10_M_disposeEv	 #
.LVL252:
.LBB3253:
.LBI3253:
	.loc 15 186 14 is_stmt 1 view .LVU885
.LBB3254:
.LBI3254:
	.loc 13 182 7 view .LVU886
.LBB3255:
.LBI3255:
	.loc 14 104 7 view .LVU887
	.loc 14 104 7 is_stmt 0 view .LVU888
	jmp	.L112	 #
.LBE3255:
.LBE3254:
.LBE3253:
.LBE3256:
.LBE3251:
	.cfi_endproc
.LFE10672:
	.seh_handler	__gxx_personality_seh0, @unwind, @except
	.seh_handlerdata
	.align 4
.LLSDA10672:
	.byte	0xff
	.byte	0x9b
	.uleb128 .LLSDATT10672-.LLSDATTD10672
.LLSDATTD10672:
	.byte	0x1
	.uleb128 .LLSDACSE10672-.LLSDACSB10672
.LLSDACSB10672:
	.uleb128 .LEHB0-.LFB10672
	.uleb128 .LEHE0-.LEHB0
	.uleb128 .L115-.LFB10672
	.uleb128 0
	.uleb128 .LEHB1-.LFB10672
	.uleb128 .LEHE1-.LEHB1
	.uleb128 .L116-.LFB10672
	.uleb128 0
	.uleb128 .LEHB2-.LFB10672
	.uleb128 .LEHE2-.LEHB2
	.uleb128 .L117-.LFB10672
	.uleb128 0
	.uleb128 .LEHB3-.LFB10672
	.uleb128 .LEHE3-.LEHB3
	.uleb128 .L114-.LFB10672
	.uleb128 0
	.uleb128 .LEHB4-.LFB10672
	.uleb128 .LEHE4-.LEHB4
	.uleb128 .L119-.LFB10672
	.uleb128 0x1
	.uleb128 .LEHB5-.LFB10672
	.uleb128 .LEHE5-.LEHB5
	.uleb128 .L113-.LFB10672
	.uleb128 0
	.uleb128 .LEHB6-.LFB10672
	.uleb128 .LEHE6-.LEHB6
	.uleb128 .L117-.LFB10672
	.uleb128 0
	.uleb128 .LEHB7-.LFB10672
	.uleb128 .LEHE7-.LEHB7
	.uleb128 .L113-.LFB10672
	.uleb128 0
	.uleb128 .LEHB8-.LFB10672
	.uleb128 .LEHE8-.LEHB8
	.uleb128 .L118-.LFB10672
	.uleb128 0x1
	.uleb128 .LEHB9-.LFB10672
	.uleb128 .LEHE9-.LEHB9
	.uleb128 0
	.uleb128 0
	.uleb128 .LEHB10-.LFB10672
	.uleb128 .LEHE10-.LEHB10
	.uleb128 0
	.uleb128 0
.LLSDACSE10672:
	.byte	0x1
	.byte	0
	.align 4
	.long	0

.LLSDATT10672:
	.section	.text$_Z10log_to_csvIfEvRKNSt7__cxx1112basic_stringIcSt11char_traitsIcESaIcEEES7_yddT_,"x"
	.linkonce discard
	.seh_endproc
	.section .rdata,"dr"
	.align 8
.LC6:
	.ascii "cannot create std::vector larger than max_size()\0"
.LC13:
	.ascii " | N = \0"
.LC14:
	.ascii ":\12\0"
.LC15:
	.ascii "  Avg Time: \0"
.LC16:
	.ascii " ms\12\0"
.LC17:
	.ascii "  Avg GFLOP/s: \0"
.LC18:
	.ascii "  y[0] = \0"
.LC19:
	.ascii "\12\12\0"
	.align 8
.LC20:
	.ascii "basic_string: construction from null is not valid\0"
	.section	.text$_Z15sweep_benchmarkIfEvPKcPFvT_PKS2_PS2_yE,"x"
	.linkonce discard
	.p2align 4
	.globl	_Z15sweep_benchmarkIfEvPKcPFvT_PKS2_PS2_yE
	.def	_Z15sweep_benchmarkIfEvPKcPFvT_PKS2_PS2_yE;	.scl	2;	.type	32;	.endef
	.seh_proc	_Z15sweep_benchmarkIfEvPKcPFvT_PKS2_PS2_yE
_Z15sweep_benchmarkIfEvPKcPFvT_PKS2_PS2_yE:
.LVL253:
.LFB10423:
	.loc 1 203 6 is_stmt 1 view -0
	.cfi_startproc
	.loc 1 203 6 is_stmt 0 view .LVU890
	pushq	%r15	 #
	.seh_pushreg	%r15
	.cfi_def_cfa_offset 16
	.cfi_offset 15, -16
	pushq	%r14	 #
	.seh_pushreg	%r14
	.cfi_def_cfa_offset 24
	.cfi_offset 14, -24
	pushq	%r13	 #
	.seh_pushreg	%r13
	.cfi_def_cfa_offset 32
	.cfi_offset 13, -32
	pushq	%r12	 #
	.seh_pushreg	%r12
	.cfi_def_cfa_offset 40
	.cfi_offset 12, -40
	pushq	%rbp	 #
	.seh_pushreg	%rbp
	.cfi_def_cfa_offset 48
	.cfi_offset 6, -48
	pushq	%rdi	 #
	.seh_pushreg	%rdi
	.cfi_def_cfa_offset 56
	.cfi_offset 5, -56
	pushq	%rsi	 #
	.seh_pushreg	%rsi
	.cfi_def_cfa_offset 64
	.cfi_offset 4, -64
	pushq	%rbx	 #
	.seh_pushreg	%rbx
	.cfi_def_cfa_offset 72
	.cfi_offset 3, -72
	subq	$328, %rsp	 #,
	.seh_stackalloc	328
	.cfi_def_cfa_offset 400
	vmovups	%xmm6, 160(%rsp)	 #,
	.seh_savexmm	%xmm6, 160
	vmovups	%xmm7, 176(%rsp)	 #,
	.seh_savexmm	%xmm7, 176
	vmovups	%xmm8, 192(%rsp)	 #,
	.seh_savexmm	%xmm8, 192
	vmovups	%xmm9, 208(%rsp)	 #,
	.seh_savexmm	%xmm9, 208
	vmovups	%xmm10, 224(%rsp)	 #,
	.seh_savexmm	%xmm10, 224
	vmovups	%xmm11, 240(%rsp)	 #,
	.seh_savexmm	%xmm11, 240
	vmovups	%xmm12, 256(%rsp)	 #,
	.seh_savexmm	%xmm12, 256
	vmovups	%xmm13, 272(%rsp)	 #,
	.seh_savexmm	%xmm13, 272
	vmovups	%xmm14, 288(%rsp)	 #,
	.seh_savexmm	%xmm14, 288
	vmovups	%xmm15, 304(%rsp)	 #,
	.seh_savexmm	%xmm15, 304
	.cfi_offset 23, -240
	.cfi_offset 24, -224
	.cfi_offset 25, -208
	.cfi_offset 26, -192
	.cfi_offset 27, -176
	.cfi_offset 28, -160
	.cfi_offset 29, -144
	.cfi_offset 30, -128
	.cfi_offset 31, -112
	.cfi_offset 32, -96
	.seh_endprologue
.LVL254:
.LBB3865:
.LBI3865:
	.loc 13 161 7 is_stmt 1 view .LVU891
.LBB3866:
.LBI3866:
	.loc 14 88 7 view .LVU892
	.loc 14 88 7 is_stmt 0 view .LVU893
.LBE3866:
.LBE3865:
.LBB3867:
.LBI3867:
	.file 20 "C:/msys64/ucrt64/include/c++/14.2.0/bits/stl_vector.h"
	.loc 20 678 7 is_stmt 1 view .LVU894
.LBB3868:
.LBI3868:
	.loc 20 320 7 view .LVU895
.LBB3869:
.LBI3869:
	.loc 20 145 2 view .LVU896
.LBB3870:
.LBI3870:
	.loc 13 165 7 view .LVU897
.LBB3871:
.LBI3871:
	.loc 14 92 7 view .LVU898
	.loc 14 92 7 is_stmt 0 view .LVU899
.LBE3871:
.LBE3870:
.LBB3872:
.LBI3872:
	.loc 20 98 2 is_stmt 1 view .LVU900
	.loc 20 98 2 is_stmt 0 view .LVU901
.LBE3872:
.LBE3869:
.LBE3868:
.LBB3873:
.LBI3873:
	.file 21 "C:/msys64/ucrt64/include/c++/14.2.0/initializer_list"
	.loc 21 77 7 is_stmt 1 view .LVU902
	.loc 21 77 7 is_stmt 0 view .LVU903
.LBE3873:
.LBB3874:
.LBI3874:
	.loc 21 73 7 is_stmt 1 view .LVU904
	.loc 21 73 7 is_stmt 0 view .LVU905
.LBE3874:
.LBB3875:
.LBI3875:
	.loc 20 1689 2 is_stmt 1 view .LVU906
.LBB3876:
.LBB3877:
.LBI3877:
	.loc 20 1917 7 view .LVU907
.LBB3878:
.LBI3878:
	.loc 13 165 7 view .LVU908
.LBB3879:
.LBI3879:
	.loc 14 92 7 view .LVU909
	.loc 14 92 7 is_stmt 0 view .LVU910
.LBE3879:
.LBE3878:
.LBB3880:
.LBI3880:
	.loc 13 182 7 is_stmt 1 view .LVU911
.LBB3881:
.LBI3881:
	.loc 14 104 7 view .LVU912
	.loc 14 104 7 is_stmt 0 view .LVU913
.LBE3881:
.LBE3880:
.LBE3877:
.LBB3882:
.LBI3882:
	.loc 20 377 7 is_stmt 1 view .LVU914
.LBB3883:
.LBB3884:
.LBI3884:
	.loc 18 477 7 view .LVU915
.LBB3885:
.LBI3885:
	.loc 14 126 7 view .LVU916
	.loc 14 126 7 is_stmt 0 view .LVU917
	vxorps	%xmm8, %xmm8, %xmm8	 # tmp308
.LBE3885:
.LBE3884:
.LBE3883:
.LBE3882:
.LBE3876:
.LBE3875:
.LBE3867:
 # C:\Users\MattsDesktop\ECSE6320P1SIMD\SimdMain.cpp:203: void sweep_benchmark(const char* label, void (*func)(T, const T*, T*, size_t)) {
	.loc 1 203 6 view .LVU918
	vmovq	%rcx, %xmm14	 # tmp287, label
.LBB3939:
.LBB3936:
.LBB3933:
.LBB3898:
.LBB3895:
.LBB3892:
.LBB3889:
.LBB3886:
 # C:/msys64/ucrt64/include/c++/14.2.0/bits/new_allocator.h:151: 	return static_cast<_Tp*>(_GLIBCXX_OPERATOR_NEW(__n * sizeof(_Tp)));
	.loc 14 151 48 view .LVU919
	movl	$80, %ecx	 #,
.LVL255:
	.loc 14 151 48 view .LVU920
.LBE3886:
.LBE3889:
.LBE3892:
.LBE3895:
.LBE3898:
.LBE3933:
.LBE3936:
.LBE3939:
 # C:\Users\MattsDesktop\ECSE6320P1SIMD\SimdMain.cpp:203: void sweep_benchmark(const char* label, void (*func)(T, const T*, T*, size_t)) {
	.loc 1 203 6 view .LVU921
	movq	%rdx, %r14	 # tmp288, func
.LEHB11:
.LBB3940:
.LBB3937:
.LBB3934:
.LBB3899:
.LBB3896:
.LBB3893:
.LBB3890:
.LBB3887:
 # C:/msys64/ucrt64/include/c++/14.2.0/bits/new_allocator.h:151: 	return static_cast<_Tp*>(_GLIBCXX_OPERATOR_NEW(__n * sizeof(_Tp)));
	.loc 14 151 48 view .LVU922
	call	_Znwy	 #
.LVL256:
.LEHE11:
	.loc 14 151 48 view .LVU923
.LBE3887:
.LBE3890:
.LBE3893:
.LBE3896:
.LBE3899:
.LBB3900:
.LBB3901:
.LBB3902:
.LBB3903:
.LBB3904:
.LBB3905:
.LBB3906:
.LBB3907:
.LBB3908:
.LBB3909:
.LBB3910:
 # C:/msys64/ucrt64/include/c++/14.2.0/bits/stl_algobase.h:452: 	    __builtin_memmove(__result, __first, sizeof(_Tp) * _Num);
	.file 22 "C:/msys64/ucrt64/include/c++/14.2.0/bits/stl_algobase.h"
	.loc 22 452 23 view .LVU924
	movl	$268435456, %edx	 #,
	vmovdqu64	.LC5(%rip), %zmm0	 #, tmp166
	vmovss	.LC7(%rip), %xmm12	 #, tmp266
.LBE3910:
.LBE3909:
.LBE3908:
.LBE3907:
.LBE3906:
.LBE3905:
.LBE3904:
.LBE3903:
.LBE3902:
.LBE3901:
.LBE3900:
.LBB3930:
.LBB3897:
.LBB3894:
.LBB3891:
.LBB3888:
 # C:/msys64/ucrt64/include/c++/14.2.0/bits/new_allocator.h:151: 	return static_cast<_Tp*>(_GLIBCXX_OPERATOR_NEW(__n * sizeof(_Tp)));
	.loc 14 151 48 view .LVU925
	movq	%rax, %rcx	 # tmp289, _173
	movq	%rax, 72(%rsp)	 # _173, %sfp
.LVL257:
	.loc 14 151 48 view .LVU926
.LBE3888:
.LBE3891:
.LBE3894:
.LBE3897:
.LBE3930:
.LBB3931:
.LBI3900:
	.file 23 "C:/msys64/ucrt64/include/c++/14.2.0/bits/stl_uninitialized.h"
	.loc 23 366 5 is_stmt 1 view .LVU927
.LBB3928:
.LBI3901:
	.loc 23 163 5 view .LVU928
.LBB3926:
.LBB3924:
.LBI3903:
	.loc 23 145 9 view .LVU929
.LBB3922:
.LBI3904:
	.loc 22 642 5 view .LVU930
.LBB3920:
.LBI3905:
	.loc 22 553 5 view .LVU931
.LBB3918:
.LBI3906:
	.loc 22 547 5 view .LVU932
.LBB3916:
.LBI3907:
	.loc 22 512 5 view .LVU933
.LBB3914:
.LBB3912:
.LBI3909:
	.loc 22 448 2 view .LVU934
	.loc 22 448 2 is_stmt 0 view .LVU935
.LBE3912:
.LBE3914:
.LBE3916:
.LBE3918:
.LBE3920:
.LBE3922:
.LBE3924:
.LBE3926:
.LBE3928:
.LBE3931:
.LBE3934:
.LBE3937:
.LBE3940:
.LBB3941:
.LBB3942:
.LBB3943:
.LBB3944:
.LBB3945:
.LBB3946:
.LBB3947:
.LBB3948:
.LBB3949:
 # C:/msys64/ucrt64/include/c++/14.2.0/bits/chrono.h:214: 	      static_cast<_CR>(__d.count()) / static_cast<_CR>(_CF::den)));
	.file 24 "C:/msys64/ucrt64/include/c++/14.2.0/bits/chrono.h"
	.loc 24 214 38 discriminator 1 view .LVU936
	vmovsd	.LC10(%rip), %xmm10	 #, tmp267
.LBE3949:
.LBE3948:
.LBE3947:
.LBE3946:
.LBE3945:
.LBE3944:
.LBE3943:
.LBE3942:
.LBE3941:
.LBB4463:
.LBB3938:
.LBB3935:
.LBB3932:
.LBB3929:
.LBB3927:
.LBB3925:
.LBB3923:
.LBB3921:
.LBB3919:
.LBB3917:
.LBB3915:
.LBB3913:
.LBB3911:
 # C:/msys64/ucrt64/include/c++/14.2.0/bits/stl_algobase.h:452: 	    __builtin_memmove(__result, __first, sizeof(_Tp) * _Num);
	.loc 22 452 23 view .LVU937
	vmovdqu64	%zmm0, (%rax)	 # tmp166, MEM <char[1:80]> [(void *)_173]
	movl	$67108864, %eax	 #, tmp339
.LVL258:
	.loc 22 452 23 view .LVU938
	movq	%rax, 64(%rcx)	 # tmp339, MEM <char[1:80]> [(void *)_173]
	movq	%rcx, %rax	 # _173, _173
	movq	%rdx, 72(%rcx)	 #, MEM <char[1:80]> [(void *)_173]
.LVL259:
	.loc 22 452 23 view .LVU939
.LBE3911:
.LBE3913:
.LBE3915:
.LBE3917:
.LBE3919:
.LBE3921:
.LBE3923:
.LBE3925:
.LBE3927:
.LBE3929:
.LBE3932:
.LBE3935:
.LBE3938:
.LBE4463:
.LBB4464:
.LBI4464:
	.loc 13 182 7 is_stmt 1 view .LVU940
.LBB4465:
.LBI4465:
	.loc 14 104 7 view .LVU941
	.loc 14 104 7 is_stmt 0 view .LVU942
.LBE4465:
.LBE4464:
.LBB4466:
.LBB4455:
.LBI4455:
	.loc 20 873 7 is_stmt 1 view .LVU943
.LBB4456:
.LBI4456:
	.file 25 "C:/msys64/ucrt64/include/c++/14.2.0/bits/stl_iterator.h"
	.loc 25 1067 7 view .LVU944
	.loc 25 1067 7 is_stmt 0 view .LVU945
.LBE4456:
.LBE4455:
.LBB4457:
.LBI4457:
	.loc 20 893 7 is_stmt 1 view .LVU946
.LBB4458:
.LBI4458:
	.loc 25 1067 7 view .LVU947
	.loc 25 1067 7 is_stmt 0 view .LVU948
.LBE4458:
.LBE4457:
	.loc 1 220 5 is_stmt 1 discriminator 1 view .LVU949
	addq	$80, %rax	 #, _363
.LVL260:
	.loc 1 220 5 is_stmt 0 discriminator 1 view .LVU950
	movq	%rcx, 56(%rsp)	 # _173, %sfp
	vmovq	%rax, %xmm15	 # _363, _363
	vzeroupper
.LVL261:
	.p2align 4
	.p2align 3
.L126:
.LBB4459:
 # C:\Users\MattsDesktop\ECSE6320P1SIMD\SimdMain.cpp:220:     for (size_t n : sizes) {
	.loc 1 220 5 discriminator 3 view .LVU951
	movq	56(%rsp), %rax	 # %sfp, ivtmp.660
	movq	(%rax), %rdi	 # MEM[(long long unsigned int &)_246], n
.LVL262:
.LBB3987:
.LBI3987:
	.loc 13 161 7 is_stmt 1 view .LVU952
.LBB3988:
.LBI3988:
	.loc 14 88 7 view .LVU953
	.loc 14 88 7 is_stmt 0 view .LVU954
.LBE3988:
.LBE3987:
.LBB3989:
.LBI3989:
	.loc 20 569 7 is_stmt 1 view .LVU955
.LBB3990:
.LBI3990:
	.loc 20 1917 7 view .LVU956
.LBB3991:
.LBB3992:
.LBI3992:
	.loc 13 165 7 view .LVU957
.LBB3993:
.LBI3993:
	.loc 14 92 7 view .LVU958
	.loc 14 92 7 is_stmt 0 view .LVU959
.LBE3993:
.LBE3992:
.LBB3994:
.LBI3994:
	.loc 13 182 7 is_stmt 1 view .LVU960
.LBB3995:
.LBI3995:
	.loc 14 104 7 view .LVU961
.LBE3995:
.LBE3994:
 # C:/msys64/ucrt64/include/c++/14.2.0/bits/stl_vector.h:1919: 	if (__n > _S_max_size(_Tp_alloc_type(__a)))
	.loc 20 1919 2 is_stmt 0 discriminator 3 view .LVU962
	movq	%rdi, %rax	 # n, tmp312
	shrq	$61, %rax	 #, tmp312
	jne	.L200	 #,
.LVL263:
	.loc 20 1919 2 discriminator 3 view .LVU963
.LBE3991:
.LBE3990:
.LBB3997:
.LBI3997:
	.loc 20 332 7 is_stmt 1 view .LVU964
.LBB3998:
.LBI3998:
	.loc 20 145 2 view .LVU965
.LBB3999:
.LBI3999:
	.loc 13 165 7 view .LVU966
.LBB4000:
.LBI4000:
	.loc 14 92 7 view .LVU967
	.loc 14 92 7 is_stmt 0 view .LVU968
.LBE4000:
.LBE3999:
.LBB4001:
.LBI4001:
	.loc 20 98 2 is_stmt 1 view .LVU969
	.loc 20 98 2 is_stmt 0 view .LVU970
.LBE4001:
.LBE3998:
.LBB4002:
.LBI4002:
	.loc 20 396 7 is_stmt 1 view .LVU971
.LBB4003:
.LBB4004:
.LBI4004:
	.loc 20 377 7 view .LVU972
.LBB4005:
 # C:/msys64/ucrt64/include/c++/14.2.0/bits/stl_vector.h:380: 	return __n != 0 ? _Tr::allocate(_M_impl, __n) : pointer();
	.loc 20 380 18 is_stmt 0 view .LVU973
	testq	%rdi, %rdi	 # n
	je	.L201	 #,
.LVL264:
.LBB4006:
.LBI4006:
	.loc 18 477 7 is_stmt 1 view .LVU974
.LBB4007:
.LBI4007:
	.loc 14 126 7 view .LVU975
.LBB4008:
 # C:/msys64/ucrt64/include/c++/14.2.0/bits/new_allocator.h:151: 	return static_cast<_Tp*>(_GLIBCXX_OPERATOR_NEW(__n * sizeof(_Tp)));
	.loc 14 151 48 is_stmt 0 view .LVU976
	leaq	0(,%rdi,4), %r13	 #, _179
	movq	%r13, %rcx	 # _179,
.LEHB12:
	call	_Znwy	 #
.LVL265:
.LEHE12:
	movq	%rax, %r12	 # tmp290, _191
.LVL266:
	.loc 14 151 48 view .LVU977
.LBE4008:
.LBE4007:
.LBE4006:
.LBE4005:
.LBE4004:
 # C:/msys64/ucrt64/include/c++/14.2.0/bits/stl_vector.h:400: 	this->_M_impl._M_end_of_storage = this->_M_impl._M_start + __n;
	.loc 20 400 59 view .LVU978
	leaq	(%rax,%r13), %rdx	 #, _194
.LVL267:
	.loc 20 400 59 view .LVU979
.LBE4003:
.LBE4002:
.LBE3997:
.LBB4013:
.LBI4013:
	.loc 20 1706 7 is_stmt 1 view .LVU980
.LBB4014:
.LBI4014:
	.loc 23 465 5 view .LVU981
.LBB4015:
.LBI4015:
	.loc 23 312 5 view .LVU982
.LBB4016:
.LBB4017:
.LBI4017:
	.loc 23 292 9 view .LVU983
.LBB4018:
.LBI4018:
	.loc 22 1175 5 view .LVU984
.LBB4019:
.LBI4019:
	.loc 22 1140 5 view .LVU985
.LBB4020:
.LBB4021:
.LBB4022:
	.loc 22 951 22 discriminator 1 view .LVU986
	testb	$4, %r13b	 #, _179
	je	.L130	 #,
 # C:/msys64/ucrt64/include/c++/14.2.0/bits/stl_algobase.h:952: 	*__first = __tmp;
	.loc 22 952 11 is_stmt 0 view .LVU987
	vmovss	%xmm12, (%rax)	 # tmp266, MEM[(float *)__first_360]
	.loc 22 951 7 is_stmt 1 discriminator 2 view .LVU988
	leaq	4(%rax), %rax	 #, __first
.LVL268:
	.loc 22 951 22 discriminator 1 view .LVU989
	cmpq	%rdx, %rax	 # _194, __first
	je	.L194	 #,
	.loc 22 951 22 is_stmt 0 discriminator 1 view .LVU990
	.p2align 5
	.p2align 4
	.p2align 3
.L130:
 # C:/msys64/ucrt64/include/c++/14.2.0/bits/stl_algobase.h:952: 	*__first = __tmp;
	.loc 22 952 11 view .LVU991
	vmovss	%xmm12, (%rax)	 # tmp266, MEM[(float *)__first_360]
	.loc 22 951 7 is_stmt 1 discriminator 2 view .LVU992
.LVL269:
	.loc 22 951 22 discriminator 1 view .LVU993
 # C:/msys64/ucrt64/include/c++/14.2.0/bits/stl_algobase.h:951:       for (; __first != __last; ++__first)
	.loc 22 951 7 is_stmt 0 discriminator 2 view .LVU994
	addq	$8, %rax	 #, __first
.LVL270:
 # C:/msys64/ucrt64/include/c++/14.2.0/bits/stl_algobase.h:952: 	*__first = __tmp;
	.loc 22 952 11 view .LVU995
	vmovss	%xmm12, -4(%rax)	 # tmp266, MEM[(float *)__first_360]
	.loc 22 951 7 is_stmt 1 discriminator 2 view .LVU996
.LVL271:
	.loc 22 951 22 discriminator 1 view .LVU997
	cmpq	%rdx, %rax	 # _194, __first
	jne	.L130	 #,
.L194:
.LVL272:
	.loc 22 951 22 is_stmt 0 discriminator 1 view .LVU998
.LBE4022:
.LBE4021:
.LBE4020:
.LBE4019:
.LBE4018:
.LBE4017:
.LBE4016:
.LBE4015:
.LBE4014:
.LBE4013:
.LBE3989:
.LBB4032:
.LBI4032:
	.loc 13 182 7 is_stmt 1 view .LVU999
.LBB4033:
.LBI4033:
	.loc 14 104 7 view .LVU1000
	.loc 14 104 7 is_stmt 0 view .LVU1001
.LBE4033:
.LBE4032:
.LBB4035:
.LBI4035:
	.loc 13 161 7 is_stmt 1 view .LVU1002
.LBB4036:
.LBI4036:
	.loc 14 88 7 view .LVU1003
	.loc 14 88 7 is_stmt 0 view .LVU1004
.LBE4036:
.LBE4035:
.LBB4038:
.LBI4038:
	.loc 20 569 7 is_stmt 1 view .LVU1005
.LBB4039:
.LBI4039:
	.loc 20 1917 7 view .LVU1006
.LBB4040:
.LBI4040:
	.loc 13 165 7 view .LVU1007
.LBB4041:
.LBI4041:
	.loc 14 92 7 view .LVU1008
	.loc 14 92 7 is_stmt 0 view .LVU1009
.LBE4041:
.LBE4040:
.LBB4043:
.LBI4043:
	.loc 13 182 7 is_stmt 1 view .LVU1010
.LBB4044:
.LBI4044:
	.loc 14 104 7 view .LVU1011
	.loc 14 104 7 is_stmt 0 view .LVU1012
.LBE4044:
.LBE4043:
.LBE4039:
.LBB4048:
.LBI4048:
	.loc 20 332 7 is_stmt 1 view .LVU1013
.LBB4049:
.LBI4049:
	.loc 20 145 2 view .LVU1014
.LBB4050:
.LBI4050:
	.loc 13 165 7 view .LVU1015
.LBB4051:
.LBI4051:
	.loc 14 92 7 view .LVU1016
	.loc 14 92 7 is_stmt 0 view .LVU1017
.LBE4051:
.LBE4050:
.LBB4053:
.LBI4053:
	.loc 20 98 2 is_stmt 1 view .LVU1018
	.loc 20 98 2 is_stmt 0 view .LVU1019
.LBE4053:
.LBE4049:
.LBB4056:
.LBI4056:
	.loc 20 396 7 is_stmt 1 view .LVU1020
.LBB4057:
.LBB4058:
.LBI4058:
	.loc 20 377 7 view .LVU1021
.LBB4059:
.LBB4060:
.LBI4060:
	.loc 18 477 7 view .LVU1022
.LBB4061:
.LBI4061:
	.loc 14 126 7 view .LVU1023
.LBB4062:
 # C:/msys64/ucrt64/include/c++/14.2.0/bits/new_allocator.h:151: 	return static_cast<_Tp*>(_GLIBCXX_OPERATOR_NEW(__n * sizeof(_Tp)));
	.loc 14 151 48 is_stmt 0 view .LVU1024
	movq	%r13, %rcx	 # _179,
.LEHB13:
	call	_Znwy	 #
.LVL273:
.LEHE13:
	.loc 14 151 48 view .LVU1025
	vmovss	.LC8(%rip), %xmm13	 #, tmp259
	movq	%rax, %rbx	 # tmp291, iftmp.15_96
.LVL274:
	.loc 14 151 48 view .LVU1026
.LBE4062:
.LBE4061:
.LBE4060:
.LBE4059:
.LBE4058:
 # C:/msys64/ucrt64/include/c++/14.2.0/bits/stl_vector.h:400: 	this->_M_impl._M_end_of_storage = this->_M_impl._M_start + __n;
	.loc 20 400 59 view .LVU1027
	leaq	(%rax,%r13), %rsi	 #, _158
.LVL275:
	.loc 20 400 59 view .LVU1028
.LBE4057:
.LBE4056:
.LBE4048:
.LBB4071:
.LBI4071:
	.loc 20 1706 7 is_stmt 1 view .LVU1029
.LBB4072:
.LBI4072:
	.loc 23 465 5 view .LVU1030
.LBB4073:
.LBI4073:
	.loc 23 312 5 view .LVU1031
.LBB4074:
.LBB4075:
.LBI4075:
	.loc 23 292 9 view .LVU1032
.LBB4076:
.LBI4076:
	.loc 22 1175 5 view .LVU1033
.LBB4077:
.LBI4077:
	.loc 22 1140 5 view .LVU1034
.LBB4078:
.LBB4079:
.LBB4080:
.LBB4081:
	.loc 22 951 22 discriminator 1 view .LVU1035
	testb	$4, %r13b	 #, _179
	je	.L131	 #,
 # C:/msys64/ucrt64/include/c++/14.2.0/bits/stl_algobase.h:952: 	*__first = __tmp;
	.loc 22 952 11 is_stmt 0 view .LVU1036
	vmovss	%xmm13, (%rax)	 # tmp259, MEM[(float *)__first_294]
	.loc 22 951 7 is_stmt 1 discriminator 2 view .LVU1037
	leaq	4(%rax), %rax	 #, __first
.LVL276:
	.loc 22 951 22 discriminator 1 view .LVU1038
	cmpq	%rax, %rsi	 # __first, _158
	je	.L129	 #,
	.loc 22 951 22 is_stmt 0 discriminator 1 view .LVU1039
	.p2align 5
	.p2align 4
	.p2align 3
.L131:
 # C:/msys64/ucrt64/include/c++/14.2.0/bits/stl_algobase.h:952: 	*__first = __tmp;
	.loc 22 952 11 view .LVU1040
	vmovss	%xmm13, (%rax)	 # tmp259, MEM[(float *)__first_294]
	.loc 22 951 7 is_stmt 1 discriminator 2 view .LVU1041
.LVL277:
	.loc 22 951 22 discriminator 1 view .LVU1042
 # C:/msys64/ucrt64/include/c++/14.2.0/bits/stl_algobase.h:951:       for (; __first != __last; ++__first)
	.loc 22 951 7 is_stmt 0 discriminator 2 view .LVU1043
	addq	$8, %rax	 #, __first
.LVL278:
 # C:/msys64/ucrt64/include/c++/14.2.0/bits/stl_algobase.h:952: 	*__first = __tmp;
	.loc 22 952 11 view .LVU1044
	vmovss	%xmm13, -4(%rax)	 # tmp259, MEM[(float *)__first_294]
	.loc 22 951 7 is_stmt 1 discriminator 2 view .LVU1045
.LVL279:
	.loc 22 951 22 discriminator 1 view .LVU1046
	cmpq	%rax, %rsi	 # __first, _158
	jne	.L131	 #,
.LVL280:
.L129:
	.loc 22 951 22 is_stmt 0 discriminator 1 view .LVU1047
.LBE4081:
.LBE4080:
.LBE4079:
.LBE4078:
.LBE4077:
.LBE4076:
.LBE4075:
.LBE4074:
.LBE4073:
.LBE4072:
.LBE4071:
.LBE4038:
.LBB4100:
.LBI4100:
	.loc 13 182 7 is_stmt 1 view .LVU1048
.LBB4101:
.LBI4101:
	.loc 14 104 7 view .LVU1049
	.loc 14 104 7 is_stmt 0 view .LVU1050
.LBE4101:
.LBE4100:
.LBB4102:
	.loc 1 228 27 is_stmt 1 discriminator 1 view .LVU1051
.LBE4102:
 # C:\Users\MattsDesktop\ECSE6320P1SIMD\SimdMain.cpp:226:         double total_gflops = 0.0;
	.loc 1 226 16 is_stmt 0 view .LVU1052
	vxorpd	%xmm7, %xmm7, %xmm7	 # total_gflops
.LBB4103:
.LBB3985:
.LBB3963:
.LBB3964:
.LBB3965:
.LBB3966:
.LBB3967:
 # C:/msys64/ucrt64/include/c++/14.2.0/bits/stl_algobase.h:951:       for (; __first != __last; ++__first)
	.loc 22 951 22 discriminator 1 view .LVU1053
	movl	$10, %ebp	 #, ivtmp_207
	vmovss	.LC9(%rip), %xmm9	 #, tmp260
	vmovss	.LC8(%rip), %xmm13	 #, tmp259
.LBE3967:
.LBE3966:
.LBE3965:
.LBE3964:
.LBE3963:
 # C:\Users\MattsDesktop\ECSE6320P1SIMD\SimdMain.cpp:241:             total_time += seconds * 1e3;
	.loc 1 241 24 view .LVU1054
	vmovsd	.LC11(%rip), %xmm11	 #, tmp265
.LBE3985:
.LBE4103:
 # C:\Users\MattsDesktop\ECSE6320P1SIMD\SimdMain.cpp:225:         double total_time = 0.0;
	.loc 1 225 16 view .LVU1055
	vmovsd	%xmm7, %xmm7, %xmm6	 #, total_time
.LVL281:
	.p2align 4
	.p2align 3
.L132:
.LBB4104:
.LBB3986:
.LBB3972:
.LBB3971:
.LBB3970:
.LBB3969:
.LBB3968:
	.loc 22 951 22 is_stmt 1 discriminator 1 view .LVU1056
	movq	%rbx, %rax	 # iftmp.15_96, __first
	cmpq	%rsi, %rbx	 # _158, iftmp.15_96
	je	.L135	 #,
	movq	%rsi, %rdx	 # _158, tmp270
	subq	%rbx, %rdx	 # iftmp.15_96, tmp270
	andl	$4, %edx	 #, tmp270
	je	.L133	 #,
 # C:/msys64/ucrt64/include/c++/14.2.0/bits/stl_algobase.h:951:       for (; __first != __last; ++__first)
	.loc 22 951 7 is_stmt 0 discriminator 2 view .LVU1057
	leaq	4(%rbx), %rax	 #, __first
 # C:/msys64/ucrt64/include/c++/14.2.0/bits/stl_algobase.h:952: 	*__first = __tmp;
	.loc 22 952 11 view .LVU1058
	vmovss	%xmm13, (%rbx)	 # tmp259, MEM[(float *)__first_362]
	.loc 22 951 7 is_stmt 1 discriminator 2 view .LVU1059
.LVL282:
	.loc 22 951 22 discriminator 1 view .LVU1060
	cmpq	%rsi, %rax	 # _158, __first
	je	.L135	 #,
	.loc 22 951 22 is_stmt 0 discriminator 1 view .LVU1061
	.p2align 5
	.p2align 4
	.p2align 3
.L133:
 # C:/msys64/ucrt64/include/c++/14.2.0/bits/stl_algobase.h:952: 	*__first = __tmp;
	.loc 22 952 11 view .LVU1062
	vmovss	%xmm13, (%rax)	 # tmp259, MEM[(float *)__first_362]
	.loc 22 951 7 is_stmt 1 discriminator 2 view .LVU1063
.LVL283:
	.loc 22 951 22 discriminator 1 view .LVU1064
 # C:/msys64/ucrt64/include/c++/14.2.0/bits/stl_algobase.h:951:       for (; __first != __last; ++__first)
	.loc 22 951 7 is_stmt 0 discriminator 2 view .LVU1065
	addq	$8, %rax	 #, __first
.LVL284:
 # C:/msys64/ucrt64/include/c++/14.2.0/bits/stl_algobase.h:952: 	*__first = __tmp;
	.loc 22 952 11 view .LVU1066
	vmovss	%xmm13, -4(%rax)	 # tmp259, MEM[(float *)__first_362]
	.loc 22 951 7 is_stmt 1 discriminator 2 view .LVU1067
.LVL285:
	.loc 22 951 22 discriminator 1 view .LVU1068
	cmpq	%rsi, %rax	 # _158, __first
	jne	.L133	 #,
.L135:
.LVL286:
	.loc 22 951 22 is_stmt 0 discriminator 1 view .LVU1069
.LBE3968:
.LBE3969:
.LBE3970:
.LBE3971:
.LBE3972:
 # C:\Users\MattsDesktop\ECSE6320P1SIMD\SimdMain.cpp:230:             func(a, x.data(), y.data(), n); // warm-up
	.loc 1 230 17 discriminator 2 view .LVU1070
	movq	%rdi, %r9	 # n,
	movq	%rbx, %r8	 # iftmp.15_96,
	vmovss	%xmm9, %xmm9, %xmm0	 # tmp260,
	movq	%r12, %rdx	 # _191,
.LEHB14:
	call	*%r14	 # func
.LVL287:
 # C:\Users\MattsDesktop\ECSE6320P1SIMD\SimdMain.cpp:232:             auto start = std::chrono::high_resolution_clock::now();
	.loc 1 232 65 view .LVU1071
	call	_ZNSt6chrono3_V212system_clock3nowEv	 #
.LVL288:
 # C:\Users\MattsDesktop\ECSE6320P1SIMD\SimdMain.cpp:233:             func(a, x.data(), y.data(), n);
	.loc 1 233 17 discriminator 2 view .LVU1072
	movq	%rdi, %r9	 # n,
	movq	%rbx, %r8	 # iftmp.15_96,
	movq	%r12, %rdx	 # _191,
 # C:\Users\MattsDesktop\ECSE6320P1SIMD\SimdMain.cpp:232:             auto start = std::chrono::high_resolution_clock::now();
	.loc 1 232 65 view .LVU1073
	movq	%rax, %r15	 # tmp292, start
.LVL289:
 # C:\Users\MattsDesktop\ECSE6320P1SIMD\SimdMain.cpp:233:             func(a, x.data(), y.data(), n);
	.loc 1 233 17 discriminator 2 view .LVU1074
	vmovss	%xmm9, %xmm9, %xmm0	 # tmp260,
	call	*%r14	 # func
.LVL290:
 # C:\Users\MattsDesktop\ECSE6320P1SIMD\SimdMain.cpp:234:             auto end = std::chrono::high_resolution_clock::now();
	.loc 1 234 63 view .LVU1075
	call	_ZNSt6chrono3_V212system_clock3nowEv	 #
.LVL291:
.LBB3973:
.LBI3973:
	.loc 24 1141 7 is_stmt 1 view .LVU1076
.LBB3974:
.LBI3974:
	.loc 24 949 2 view .LVU1077
	.loc 24 949 2 is_stmt 0 view .LVU1078
.LBE3974:
.LBB3975:
.LBI3975:
	.loc 24 949 2 is_stmt 1 view .LVU1079
	.loc 24 949 2 is_stmt 0 view .LVU1080
.LBE3975:
.LBB3976:
.LBI3976:
	.loc 24 710 7 is_stmt 1 view .LVU1081
.LBB3977:
.LBB3978:
.LBI3978:
	.loc 24 573 23 view .LVU1082
	.loc 24 573 23 is_stmt 0 view .LVU1083
.LBE3978:
.LBE3977:
.LBE3976:
.LBE3973:
.LBB3981:
.LBI3945:
	.loc 24 581 14 is_stmt 1 view .LVU1084
.LBB3959:
.LBI3946:
	.loc 24 275 7 view .LVU1085
.LBB3956:
.LBB3953:
.LBI3948:
	.loc 24 210 4 view .LVU1086
	.loc 24 210 4 is_stmt 0 view .LVU1087
.LBE3953:
.LBE3956:
.LBE3959:
.LBE3981:
.LBB3982:
.LBB3980:
.LBB3979:
 # C:/msys64/ucrt64/include/c++/14.2.0/bits/chrono.h:716: 	return __cd(__cd(__lhs).count() - __cd(__rhs).count());
	.loc 24 716 34 discriminator 2 view .LVU1088
	subq	%r15, %rax	 # start, _23
.LBE3979:
.LBE3980:
.LBE3982:
 # C:\Users\MattsDesktop\ECSE6320P1SIMD\SimdMain.cpp:238:             double flops = 2.0 * n;
	.loc 1 238 32 view .LVU1089
	vcvtsi2sdq	%rdi, %xmm8, %xmm0	 # n, tmp308, tmp310
.LBB3983:
.LBB3960:
.LBB3957:
.LBB3954:
.LBB3951:
 # C:/msys64/ucrt64/include/c++/14.2.0/bits/chrono.h:214: 	      static_cast<_CR>(__d.count()) / static_cast<_CR>(_CF::den)));
	.loc 24 214 8 discriminator 1 view .LVU1090
	vcvtsi2sdq	%rax, %xmm8, %xmm1	 # _23, tmp308, tmp309
.LBE3951:
.LBE3954:
.LBE3957:
.LBE3960:
.LBE3983:
 # C:\Users\MattsDesktop\ECSE6320P1SIMD\SimdMain.cpp:238:             double flops = 2.0 * n;
	.loc 1 238 20 view .LVU1091
	vaddsd	%xmm0, %xmm0, %xmm0	 # _1, _1, flops_69
.LBB3984:
.LBB3961:
.LBB3958:
.LBB3955:
.LBB3952:
 # C:/msys64/ucrt64/include/c++/14.2.0/bits/chrono.h:214: 	      static_cast<_CR>(__d.count()) / static_cast<_CR>(_CF::den)));
	.loc 24 214 38 discriminator 1 view .LVU1092
	vdivsd	%xmm10, %xmm1, %xmm1	 # tmp267, _64, _33
.LBB3950:
.LBI3950:
	.loc 24 573 23 is_stmt 1 view .LVU1093
.LVL292:
	.loc 24 573 23 is_stmt 0 view .LVU1094
.LBE3950:
.LBE3952:
.LBE3955:
.LBE3958:
.LBE3961:
.LBB3962:
.LBI3962:
	.loc 24 589 2 is_stmt 1 view .LVU1095
	.loc 24 589 2 is_stmt 0 view .LVU1096
.LBE3962:
.LBE3984:
 # C:\Users\MattsDesktop\ECSE6320P1SIMD\SimdMain.cpp:239:             double gflops = flops / (seconds * 1e9);
	.loc 1 239 46 view .LVU1097
	vmulsd	%xmm10, %xmm1, %xmm2	 # tmp267, _33, _2
 # C:\Users\MattsDesktop\ECSE6320P1SIMD\SimdMain.cpp:241:             total_time += seconds * 1e3;
	.loc 1 241 24 view .LVU1098
	vfmadd231sd	%xmm11, %xmm1, %xmm6	 # tmp265, _33, total_time
.LVL293:
 # C:\Users\MattsDesktop\ECSE6320P1SIMD\SimdMain.cpp:239:             double gflops = flops / (seconds * 1e9);
	.loc 1 239 20 view .LVU1099
	vdivsd	%xmm2, %xmm0, %xmm0	 # _2, flops_69, gflops
.LVL294:
 # C:\Users\MattsDesktop\ECSE6320P1SIMD\SimdMain.cpp:242:             total_gflops += gflops;
	.loc 1 242 26 view .LVU1100
	vaddsd	%xmm0, %xmm7, %xmm7	 # gflops, total_gflops, total_gflops
.LVL295:
	.loc 1 242 26 view .LVU1101
.LBE3986:
	.loc 1 228 9 is_stmt 1 discriminator 2 view .LVU1102
	.loc 1 228 27 discriminator 1 view .LVU1103
	subl	$1, %ebp	 #, ivtmp_207
.LVL296:
	.loc 1 228 27 is_stmt 0 discriminator 1 view .LVU1104
	jne	.L132	 #,
.LBE4104:
 # C:\Users\MattsDesktop\ECSE6320P1SIMD\SimdMain.cpp:245:         double avg_time = total_time / trials;
	.loc 1 245 16 view .LVU1105
	vmovsd	.LC12(%rip), %xmm0	 #, tmp184
.LVL297:
.LBB4105:
.LBB4106:
 # C:/msys64/ucrt64/include/c++/14.2.0/ostream:670:       if (!__s)
	.loc 11 670 7 view .LVU1106
	vmovq	%xmm14, %rax	 # label, label
.LBE4106:
.LBE4105:
 # C:\Users\MattsDesktop\ECSE6320P1SIMD\SimdMain.cpp:245:         double avg_time = total_time / trials;
	.loc 1 245 16 view .LVU1107
	vdivsd	%xmm0, %xmm6, %xmm6	 # tmp184, total_time, avg_time
.LVL298:
 # C:\Users\MattsDesktop\ECSE6320P1SIMD\SimdMain.cpp:246:         double avg_gflops = total_gflops / trials;
	.loc 1 246 16 view .LVU1108
	vdivsd	%xmm0, %xmm7, %xmm7	 # tmp184, total_gflops, avg_gflops
.LVL299:
.LBB4120:
.LBI4105:
	.loc 11 668 5 is_stmt 1 view .LVU1109
.LBB4118:
 # C:/msys64/ucrt64/include/c++/14.2.0/ostream:670:       if (!__s)
	.loc 11 670 7 is_stmt 0 view .LVU1110
	testq	%rax, %rax	 # label
	je	.L202	 #,
.LVL300:
.LBB4107:
.LBI4107:
	.loc 16 385 7 is_stmt 1 view .LVU1111
.LBB4108:
	.loc 16 388 2 view .LVU1112
	.loc 16 391 2 view .LVU1113
 # C:/msys64/ucrt64/include/c++/14.2.0/bits/char_traits.h:391: 	return __builtin_strlen(__s);
	.loc 16 391 25 is_stmt 0 view .LVU1114
	vmovq	%xmm14, %rcx	 # label,
	call	strlen	 #
.LVL301:
	.loc 16 391 25 view .LVU1115
.LBE4108:
.LBE4107:
 # C:/msys64/ucrt64/include/c++/14.2.0/ostream:673: 	__ostream_insert(__out, __s,
	.loc 11 673 18 view .LVU1116
	movq	.refptr._ZSt4cout(%rip), %rsi	 #, tmp261
.LVL302:
.LBB4110:
.LBB4109:
 # C:/msys64/ucrt64/include/c++/14.2.0/bits/char_traits.h:391: 	return __builtin_strlen(__s);
	.loc 16 391 25 view .LVU1117
	movq	%rax, %r8	 #, tmp294
.LBE4109:
.LBE4110:
 # C:/msys64/ucrt64/include/c++/14.2.0/ostream:673: 	__ostream_insert(__out, __s,
	.loc 11 673 18 view .LVU1118
	vmovq	%xmm14, %rdx	 # label,
	movq	%rsi, %rcx	 # tmp261,
	call	_ZSt16__ostream_insertIcSt11char_traitsIcEERSt13basic_ostreamIT_T0_ES6_PKS3_x	 #
.LVL303:
.L137:
	.loc 11 673 18 view .LVU1119
.LBE4118:
.LBE4120:
.LBB4121:
.LBI4121:
	.loc 11 668 5 is_stmt 1 view .LVU1120
.LBB4122:
 # C:/msys64/ucrt64/include/c++/14.2.0/ostream:673: 	__ostream_insert(__out, __s,
	.loc 11 673 18 is_stmt 0 view .LVU1121
	movl	$7, %r8d	 #,
	leaq	.LC13(%rip), %rdx	 #, tmp196
	movq	%rsi, %rcx	 # tmp261,
	call	_ZSt16__ostream_insertIcSt11char_traitsIcEERSt13basic_ostreamIT_T0_ES6_PKS3_x	 #
.LVL304:
	.loc 11 673 18 view .LVU1122
.LBE4122:
.LBE4121:
.LBB4123:
.LBI4123:
	.loc 11 213 7 is_stmt 1 view .LVU1123
.LBB4124:
 # C:/msys64/ucrt64/include/c++/14.2.0/ostream:214:       { return _M_insert(__n); }
	.loc 11 214 25 is_stmt 0 view .LVU1124
	movq	%rdi, %rdx	 # n,
	movq	%rsi, %rcx	 # tmp261,
	call	_ZNSo9_M_insertIyEERSoT_	 #
.LVL305:
	movq	%rax, %rcx	 # tmp295, _18
.LVL306:
	.loc 11 214 25 view .LVU1125
.LBE4124:
.LBE4123:
.LBB4125:
.LBI4125:
	.loc 11 668 5 is_stmt 1 view .LVU1126
.LBB4126:
 # C:/msys64/ucrt64/include/c++/14.2.0/ostream:673: 	__ostream_insert(__out, __s,
	.loc 11 673 18 is_stmt 0 view .LVU1127
	movl	$2, %r8d	 #,
	leaq	.LC14(%rip), %rdx	 #, tmp199
	call	_ZSt16__ostream_insertIcSt11char_traitsIcEERSt13basic_ostreamIT_T0_ES6_PKS3_x	 #
.LVL307:
	.loc 11 673 18 view .LVU1128
.LBE4126:
.LBE4125:
.LBB4127:
.LBI4127:
	.loc 11 668 5 is_stmt 1 view .LVU1129
.LBB4128:
 # C:/msys64/ucrt64/include/c++/14.2.0/ostream:673: 	__ostream_insert(__out, __s,
	.loc 11 673 18 is_stmt 0 view .LVU1130
	movl	$12, %r8d	 #,
	leaq	.LC15(%rip), %rdx	 #, tmp200
	movq	%rsi, %rcx	 # tmp261,
	call	_ZSt16__ostream_insertIcSt11char_traitsIcEERSt13basic_ostreamIT_T0_ES6_PKS3_x	 #
.LVL308:
	.loc 11 673 18 view .LVU1131
.LBE4128:
.LBE4127:
.LBB4129:
.LBI4129:
	.loc 11 228 7 is_stmt 1 view .LVU1132
.LBB4130:
 # C:/msys64/ucrt64/include/c++/14.2.0/ostream:229:       { return _M_insert(__f); }
	.loc 11 229 25 is_stmt 0 view .LVU1133
	vmovsd	%xmm6, %xmm6, %xmm1	 # avg_time,
	movq	%rsi, %rcx	 # tmp261,
	call	_ZNSo9_M_insertIdEERSoT_	 #
.LVL309:
	movq	%rax, %rcx	 # tmp296, _85
.LVL310:
	.loc 11 229 25 view .LVU1134
.LBE4130:
.LBE4129:
.LBB4131:
.LBI4131:
	.loc 11 668 5 is_stmt 1 view .LVU1135
.LBB4132:
 # C:/msys64/ucrt64/include/c++/14.2.0/ostream:673: 	__ostream_insert(__out, __s,
	.loc 11 673 18 is_stmt 0 view .LVU1136
	movl	$4, %r8d	 #,
	leaq	.LC16(%rip), %rdx	 #, tmp203
	call	_ZSt16__ostream_insertIcSt11char_traitsIcEERSt13basic_ostreamIT_T0_ES6_PKS3_x	 #
.LVL311:
	.loc 11 673 18 view .LVU1137
.LBE4132:
.LBE4131:
.LBB4133:
.LBI4133:
	.loc 11 668 5 is_stmt 1 view .LVU1138
.LBB4134:
 # C:/msys64/ucrt64/include/c++/14.2.0/ostream:673: 	__ostream_insert(__out, __s,
	.loc 11 673 18 is_stmt 0 view .LVU1139
	movl	$15, %r8d	 #,
	leaq	.LC17(%rip), %rdx	 #, tmp204
	movq	%rsi, %rcx	 # tmp261,
	call	_ZSt16__ostream_insertIcSt11char_traitsIcEERSt13basic_ostreamIT_T0_ES6_PKS3_x	 #
.LVL312:
	.loc 11 673 18 view .LVU1140
.LBE4134:
.LBE4133:
.LBB4135:
.LBI4135:
	.loc 11 228 7 is_stmt 1 view .LVU1141
.LBB4136:
 # C:/msys64/ucrt64/include/c++/14.2.0/ostream:229:       { return _M_insert(__f); }
	.loc 11 229 25 is_stmt 0 view .LVU1142
	vmovsd	%xmm7, %xmm7, %xmm1	 # avg_gflops,
	movq	%rsi, %rcx	 # tmp261,
	call	_ZNSo9_M_insertIdEERSoT_	 #
.LVL313:
	movq	%rax, %rcx	 # tmp297, _86
.LVL314:
	.loc 11 229 25 view .LVU1143
.LBE4136:
.LBE4135:
.LBB4137:
.LBI4137:
	.loc 11 668 5 is_stmt 1 view .LVU1144
.LBB4138:
 # C:/msys64/ucrt64/include/c++/14.2.0/ostream:673: 	__ostream_insert(__out, __s,
	.loc 11 673 18 is_stmt 0 view .LVU1145
	movl	$1, %r8d	 #,
	leaq	.LC1(%rip), %rdx	 #, tmp207
	call	_ZSt16__ostream_insertIcSt11char_traitsIcEERSt13basic_ostreamIT_T0_ES6_PKS3_x	 #
.LVL315:
	.loc 11 673 18 view .LVU1146
.LBE4138:
.LBE4137:
.LBB4139:
.LBI4139:
	.loc 11 668 5 is_stmt 1 view .LVU1147
.LBB4140:
 # C:/msys64/ucrt64/include/c++/14.2.0/ostream:673: 	__ostream_insert(__out, __s,
	.loc 11 673 18 is_stmt 0 view .LVU1148
	movl	$9, %r8d	 #,
	leaq	.LC18(%rip), %rdx	 #, tmp208
	movq	%rsi, %rcx	 # tmp261,
	call	_ZSt16__ostream_insertIcSt11char_traitsIcEERSt13basic_ostreamIT_T0_ES6_PKS3_x	 #
.LVL316:
	.loc 11 673 18 view .LVU1149
.LBE4140:
.LBE4139:
.LBB4141:
.LBI4141:
	.loc 11 232 7 is_stmt 1 view .LVU1150
.LBB4142:
 # C:/msys64/ucrt64/include/c++/14.2.0/ostream:236: 	return _M_insert(static_cast<double>(__f));
	.loc 11 236 18 is_stmt 0 view .LVU1151
	movq	%rsi, %rcx	 # tmp261,
	vcvtss2sd	(%rbx), %xmm8, %xmm1	 # MEM[(value_type &)iftmp.15_96], tmp308, tmp311
	call	_ZNSo9_M_insertIdEERSoT_	 #
.LVL317:
	.loc 11 236 18 view .LVU1152
	movq	%rax, %rcx	 # tmp298, _89
.LVL318:
	.loc 11 236 18 view .LVU1153
.LBE4142:
.LBE4141:
.LBB4143:
.LBI4143:
	.loc 11 668 5 is_stmt 1 view .LVU1154
.LBB4144:
 # C:/msys64/ucrt64/include/c++/14.2.0/ostream:673: 	__ostream_insert(__out, __s,
	.loc 11 673 18 is_stmt 0 view .LVU1155
	movl	$2, %r8d	 #,
	leaq	.LC19(%rip), %rdx	 #, tmp212
	call	_ZSt16__ostream_insertIcSt11char_traitsIcEERSt13basic_ostreamIT_T0_ES6_PKS3_x	 #
.LVL319:
.LEHE14:
	.loc 11 673 18 view .LVU1156
.LBE4144:
.LBE4143:
.LBB4145:
.LBB4146:
.LBB4147:
.LBB4148:
.LBB4149:
 # C:/msys64/ucrt64/include/c++/14.2.0/bits/basic_string.h:194: 	: allocator_type(__a), _M_p(__dat) { }
	.loc 15 194 25 discriminator 1 view .LVU1157
	leaq	128(%rsp), %rax	 #, tmp256
	leaq	144(%rsp), %rsi	 #, tmp257
.LBE4149:
.LBE4148:
.LBE4147:
.LBE4146:
.LBE4145:
 # C:\Users\MattsDesktop\ECSE6320P1SIMD\SimdMain.cpp:253:         log_to_csv("saxpy_benchmark.csv", label, n, avg_gflops, avg_time, y[0]);
	.loc 1 253 19 discriminator 1 view .LVU1158
	vmovss	(%rbx), %xmm11	 # MEM[(value_type &)iftmp.15_96], _5
.LVL320:
.LBB4240:
.LBI4240:
	.loc 13 161 7 is_stmt 1 view .LVU1159
.LBB4241:
.LBI4241:
	.loc 14 88 7 view .LVU1160
	.loc 14 88 7 is_stmt 0 view .LVU1161
.LBE4241:
.LBE4240:
.LBB4242:
.LBI4145:
	.loc 15 646 7 is_stmt 1 view .LVU1162
.LBB4235:
.LBB4156:
.LBI4156:
	.loc 15 232 7 view .LVU1163
	.loc 15 232 7 is_stmt 0 view .LVU1164
.LBE4156:
.LBB4157:
.LBI4147:
	.loc 15 193 2 is_stmt 1 view .LVU1165
.LBB4154:
.LBB4152:
.LBB4150:
.LBI4150:
	.loc 13 165 7 view .LVU1166
.LBB4151:
.LBI4151:
	.loc 14 92 7 view .LVU1167
	.loc 14 92 7 is_stmt 0 view .LVU1168
.LBE4151:
.LBE4150:
 # C:/msys64/ucrt64/include/c++/14.2.0/bits/basic_string.h:194: 	: allocator_type(__a), _M_p(__dat) { }
	.loc 15 194 25 discriminator 1 view .LVU1169
	movq	%rax, 64(%rsp)	 # tmp256, %sfp
.LBE4152:
.LBE4154:
.LBE4157:
.LBB4158:
 # C:/msys64/ucrt64/include/c++/14.2.0/bits/basic_string.h:650: 	if (__s == 0)
	.loc 15 650 2 view .LVU1170
	vmovq	%xmm14, %rax	 # label, label
.LVL321:
	.loc 15 650 2 view .LVU1171
.LBE4158:
.LBB4229:
.LBB4155:
.LBB4153:
 # C:/msys64/ucrt64/include/c++/14.2.0/bits/basic_string.h:194: 	: allocator_type(__a), _M_p(__dat) { }
	.loc 15 194 25 discriminator 1 view .LVU1172
	movq	%rsi, 128(%rsp)	 # tmp257, MEM[(struct _Alloc_hider *)&D.114652]._M_p
.LVL322:
	.loc 15 194 25 discriminator 1 view .LVU1173
.LBE4153:
.LBE4155:
.LBE4229:
.LBB4230:
 # C:/msys64/ucrt64/include/c++/14.2.0/bits/basic_string.h:650: 	if (__s == 0)
	.loc 15 650 2 view .LVU1174
	testq	%rax, %rax	 # label
	je	.L203	 #,
.LVL323:
.LBB4159:
.LBI4159:
	.loc 16 385 7 is_stmt 1 view .LVU1175
.LBB4160:
	.loc 16 388 2 view .LVU1176
	.loc 16 391 2 view .LVU1177
 # C:/msys64/ucrt64/include/c++/14.2.0/bits/char_traits.h:391: 	return __builtin_strlen(__s);
	.loc 16 391 25 is_stmt 0 view .LVU1178
	vmovq	%xmm14, %rcx	 # label,
	call	strlen	 #
.LVL324:
	.loc 16 391 25 view .LVU1179
.LBE4160:
.LBE4159:
.LBB4162:
.LBB4163:
 # C:/msys64/ucrt64/include/c++/14.2.0/bits/basic_string.tcc:225: 	size_type __dnew = static_cast<size_type>(std::distance(__beg, __end));
	.loc 17 225 12 discriminator 1 view .LVU1180
	movq	%rax, 96(%rsp)	 # tmp217, MEM[(long long unsigned int *)_87]
.LBE4163:
.LBE4162:
.LBB4224:
.LBB4161:
 # C:/msys64/ucrt64/include/c++/14.2.0/bits/char_traits.h:391: 	return __builtin_strlen(__s);
	.loc 16 391 25 view .LVU1181
	movq	%rax, %r15	 # tmp299, tmp217
.LVL325:
	.loc 16 391 25 view .LVU1182
.LBE4161:
.LBE4224:
.LBB4225:
.LBI4162:
	.loc 17 221 7 is_stmt 1 view .LVU1183
.LBB4220:
 # C:/msys64/ucrt64/include/c++/14.2.0/bits/basic_string.tcc:227: 	if (__dnew > size_type(_S_local_capacity))
	.loc 17 227 2 is_stmt 0 view .LVU1184
	cmpq	$15, %rax	 #, tmp217
	ja	.L204	 #,
.LVL326:
.LBB4164:
.LBI4164:
	.loc 17 239 13 is_stmt 1 view .LVU1185
	.loc 17 239 13 is_stmt 0 view .LVU1186
.LBE4164:
.LBB4165:
.LBI4165:
	.loc 15 227 7 is_stmt 1 view .LVU1187
	.loc 15 227 7 is_stmt 0 view .LVU1188
.LBE4165:
.LBB4166:
.LBI4166:
	.loc 15 487 7 is_stmt 1 view .LVU1189
.LBB4167:
.LBI4167:
	.loc 15 430 7 view .LVU1190
.LBB4168:
 # C:/msys64/ucrt64/include/c++/14.2.0/bits/basic_string.h:432: 	if (__n == 1)
	.loc 15 432 2 is_stmt 0 view .LVU1191
	cmpq	$1, %rax	 #, prephitmp_165
	je	.L205	 #,
.LVL327:
.LBB4169:
.LBI4169:
	.loc 15 430 7 is_stmt 1 view .LVU1192
.LBB4170:
.LBI4170:
	.loc 16 419 7 view .LVU1193
.LBB4171:
	.loc 16 421 2 view .LVU1194
	testq	%rax, %rax	 # tmp217
	jne	.L206	 #,
.LVL328:
.L143:
	.loc 16 421 2 is_stmt 0 view .LVU1195
	movq	%rsi, %rdx	 # tmp257, pretmp_60
	leaq	96(%rsp), %rbp	 #, tmp262
.LVL329:
.L142:
	.loc 16 421 2 view .LVU1196
.LBE4171:
.LBE4170:
.LBE4169:
.LBE4168:
.LBE4167:
.LBE4166:
.LBB4191:
.LBI4191:
	.loc 15 259 7 is_stmt 1 view .LVU1197
.LBB4192:
.LBB4193:
.LBI4193:
	.loc 15 222 7 view .LVU1198
.LBB4194:
 # C:/msys64/ucrt64/include/c++/14.2.0/bits/basic_string.h:223:       { _M_string_length = __length; }
	.loc 15 223 26 is_stmt 0 view .LVU1199
	movq	%rax, 136(%rsp)	 # prephitmp_165, D.114652._M_string_length
.LVL330:
	.loc 15 223 26 view .LVU1200
.LBE4194:
.LBE4193:
.LBB4195:
.LBI4195:
	.loc 15 227 7 is_stmt 1 view .LVU1201
	.loc 15 227 7 is_stmt 0 view .LVU1202
.LBE4195:
.LBB4197:
.LBI4197:
	.loc 16 343 7 is_stmt 1 view .LVU1203
.LBB4198:
	.loc 16 350 2 view .LVU1204
.LBE4198:
.LBE4197:
.LBE4192:
.LBE4191:
.LBE4220:
.LBE4225:
.LBE4230:
.LBE4235:
.LBE4242:
.LBB4243:
.LBB4244:
.LBB4245:
.LBB4246:
.LBB4247:
 # C:/msys64/ucrt64/include/c++/14.2.0/bits/basic_string.h:194: 	: allocator_type(__a), _M_p(__dat) { }
	.loc 15 194 25 is_stmt 0 discriminator 1 view .LVU1205
	leaq	112(%rsp), %r15	 #, tmp263
.LVL331:
	.loc 15 194 25 discriminator 1 view .LVU1206
.LBE4247:
.LBE4246:
.LBE4245:
.LBB4254:
.LBB4255:
.LBB4256:
 # C:/msys64/ucrt64/include/c++/14.2.0/bits/basic_string.tcc:229: 	    _M_data(_M_create(__dnew, size_type(0)));
	.loc 17 229 13 view .LVU1207
	xorl	%r8d, %r8d	 #
	movq	%rbp, %rcx	 # tmp262,
.LBE4256:
.LBE4255:
.LBE4254:
.LBE4244:
.LBE4243:
.LBB4311:
.LBB4236:
.LBB4231:
.LBB4226:
.LBB4221:
.LBB4204:
.LBB4202:
.LBB4200:
.LBB4199:
 # C:/msys64/ucrt64/include/c++/14.2.0/bits/char_traits.h:350: 	__c1 = __c2;
	.loc 16 350 7 view .LVU1208
	movb	$0, (%rdx,%rax)	 #, MEM[(char_type &)_237]
.LVL332:
	.loc 16 350 7 view .LVU1209
.LBE4199:
.LBE4200:
.LBE4202:
.LBE4204:
.LBB4205:
.LBI4205:
	.loc 17 242 4 is_stmt 1 view .LVU1210
	.loc 17 242 4 is_stmt 0 view .LVU1211
.LBE4205:
.LBE4221:
.LBE4226:
.LBE4231:
.LBE4236:
.LBE4311:
.LBB4312:
.LBI4312:
	.loc 13 161 7 is_stmt 1 view .LVU1212
.LBB4313:
.LBI4313:
	.loc 14 88 7 view .LVU1213
	.loc 14 88 7 is_stmt 0 view .LVU1214
.LBE4313:
.LBE4312:
.LBB4314:
.LBI4243:
	.loc 15 646 7 is_stmt 1 view .LVU1215
.LBB4308:
.LBB4301:
.LBI4301:
	.loc 15 232 7 view .LVU1216
	.loc 15 232 7 is_stmt 0 view .LVU1217
.LBE4301:
.LBB4302:
.LBI4245:
	.loc 15 193 2 is_stmt 1 view .LVU1218
.LBB4252:
.LBB4250:
.LBB4248:
.LBI4248:
	.loc 13 165 7 view .LVU1219
.LBB4249:
.LBI4249:
	.loc 14 92 7 view .LVU1220
	.loc 14 92 7 is_stmt 0 view .LVU1221
.LBE4249:
.LBE4248:
.LBE4250:
.LBE4252:
.LBE4302:
.LBB4303:
.LBB4296:
.LBB4292:
 # C:/msys64/ucrt64/include/c++/14.2.0/bits/basic_string.tcc:229: 	    _M_data(_M_create(__dnew, size_type(0)));
	.loc 17 229 13 view .LVU1222
	leaq	88(%rsp), %rdx	 #, tmp230
.LBE4292:
.LBE4296:
.LBE4303:
.LBB4304:
.LBB4253:
.LBB4251:
 # C:/msys64/ucrt64/include/c++/14.2.0/bits/basic_string.h:194: 	: allocator_type(__a), _M_p(__dat) { }
	.loc 15 194 25 discriminator 1 view .LVU1223
	movq	%r15, 96(%rsp)	 # tmp263, MEM[(struct _Alloc_hider *)_87]._M_p
.LVL333:
	.loc 15 194 25 discriminator 1 view .LVU1224
.LBE4251:
.LBE4253:
.LBE4304:
.LBB4305:
.LBB4297:
.LBI4297:
	.loc 16 385 7 is_stmt 1 view .LVU1225
	.loc 16 388 2 view .LVU1226
	.loc 16 391 2 view .LVU1227
	.loc 16 391 2 is_stmt 0 view .LVU1228
.LBE4297:
.LBB4298:
.LBI4255:
	.loc 17 221 7 is_stmt 1 view .LVU1229
.LBB4293:
 # C:/msys64/ucrt64/include/c++/14.2.0/bits/basic_string.tcc:225: 	size_type __dnew = static_cast<size_type>(std::distance(__beg, __end));
	.loc 17 225 12 is_stmt 0 discriminator 1 view .LVU1230
	movq	$19, 88(%rsp)	 #, __dnew
.LEHB15:
 # C:/msys64/ucrt64/include/c++/14.2.0/bits/basic_string.tcc:229: 	    _M_data(_M_create(__dnew, size_type(0)));
	.loc 17 229 13 view .LVU1231
	call	_ZNSt7__cxx1112basic_stringIcSt11char_traitsIcESaIcEE9_M_createERyy	 #
.LVL334:
.LEHE15:
.LBB4257:
.LBI4257:
	.loc 15 217 7 is_stmt 1 view .LVU1232
.LBE4257:
.LBB4259:
.LBB4260:
 # C:/msys64/ucrt64/include/c++/14.2.0/bits/basic_string.h:255:       { _M_allocated_capacity = __capacity; }
	.loc 15 255 31 is_stmt 0 view .LVU1233
	movq	88(%rsp), %rdx	 # __dnew, __dnew
.LBE4260:
.LBE4259:
.LBB4262:
.LBB4258:
 # C:/msys64/ucrt64/include/c++/14.2.0/bits/basic_string.h:218:       { _M_dataplus._M_p = __p; }
	.loc 15 218 26 view .LVU1234
	movq	%rax, 96(%rsp)	 # _243, MEM[(struct basic_string *)_87]._M_dataplus._M_p
.LVL335:
	.loc 15 218 26 view .LVU1235
.LBE4258:
.LBE4262:
.LBB4263:
.LBI4259:
	.loc 15 254 7 is_stmt 1 view .LVU1236
.LBE4263:
.LBE4293:
.LBE4298:
.LBE4305:
.LBE4308:
.LBE4314:
 # C:\Users\MattsDesktop\ECSE6320P1SIMD\SimdMain.cpp:253:         log_to_csv("saxpy_benchmark.csv", label, n, avg_gflops, avg_time, y[0]);
	.loc 1 253 19 is_stmt 0 discriminator 4 view .LVU1237
	movq	%rdi, %r8	 # n,
	movq	%rbp, %rcx	 # tmp262,
.LBB4315:
.LBB4309:
.LBB4306:
.LBB4299:
.LBB4294:
.LBB4264:
.LBB4265:
.LBB4266:
.LBB4267:
.LBB4268:
 # C:/msys64/ucrt64/include/c++/14.2.0/bits/char_traits.h:427: 	return static_cast<char_type*>(__builtin_memcpy(__s1, __s2, __n));
	.loc 16 427 49 view .LVU1238
	movabsq	$7305506520730984819, %r10	 #, tmp352
.LBE4268:
.LBE4267:
.LBE4266:
.LBE4265:
.LBE4264:
.LBE4294:
.LBE4299:
.LBE4306:
.LBE4309:
.LBE4315:
 # C:\Users\MattsDesktop\ECSE6320P1SIMD\SimdMain.cpp:253:         log_to_csv("saxpy_benchmark.csv", label, n, avg_gflops, avg_time, y[0]);
	.loc 1 253 19 discriminator 4 view .LVU1239
	vmovsd	%xmm7, %xmm7, %xmm3	 # avg_gflops,
.LBB4316:
.LBB4310:
.LBB4307:
.LBB4300:
.LBB4295:
.LBB4277:
.LBB4275:
.LBB4273:
.LBB4271:
.LBB4269:
 # C:/msys64/ucrt64/include/c++/14.2.0/bits/char_traits.h:427: 	return static_cast<char_type*>(__builtin_memcpy(__s1, __s2, __n));
	.loc 16 427 49 view .LVU1240
	movabsq	$3344892911025677166, %r11	 #,
.LBE4269:
.LBE4271:
.LBE4273:
.LBE4275:
.LBE4277:
.LBB4278:
.LBB4261:
 # C:/msys64/ucrt64/include/c++/14.2.0/bits/basic_string.h:255:       { _M_allocated_capacity = __capacity; }
	.loc 15 255 31 view .LVU1241
	movq	%rdx, 112(%rsp)	 # __dnew, MEM[(struct basic_string *)_87].D.32833._M_allocated_capacity
.LVL336:
	.loc 15 255 31 view .LVU1242
.LBE4261:
.LBE4278:
.LBB4279:
.LBI4279:
	.loc 17 239 13 is_stmt 1 view .LVU1243
	.loc 17 239 13 is_stmt 0 view .LVU1244
.LBE4279:
.LBB4280:
.LBI4264:
	.loc 15 487 7 is_stmt 1 view .LVU1245
.LBB4276:
.LBI4265:
	.loc 15 430 7 view .LVU1246
.LBB4274:
.LBI4266:
	.loc 15 430 7 view .LVU1247
.LBB4272:
.LBI4267:
	.loc 16 419 7 view .LVU1248
.LBB4270:
	.loc 16 421 2 view .LVU1249
	.loc 16 427 2 view .LVU1250
 # C:/msys64/ucrt64/include/c++/14.2.0/bits/char_traits.h:427: 	return static_cast<char_type*>(__builtin_memcpy(__s1, __s2, __n));
	.loc 16 427 49 is_stmt 0 view .LVU1251
	movq	%r11, 8(%rax)	 #, MEM <char[1:19]> [(void *)_243]
	movq	%r10, (%rax)	 # tmp352, MEM <char[1:19]> [(void *)_243]
	movl	$1987273518, 15(%rax)	 #, MEM <char[1:19]> [(void *)_243]
.LVL337:
	.loc 16 427 49 view .LVU1252
.LBE4270:
.LBE4272:
.LBE4274:
.LBE4276:
.LBE4280:
.LBB4281:
.LBI4281:
	.loc 15 259 7 is_stmt 1 view .LVU1253
.LBB4282:
.LBB4283:
.LBI4283:
	.loc 15 222 7 view .LVU1254
.LBE4283:
.LBB4285:
.LBB4286:
 # C:/msys64/ucrt64/include/c++/14.2.0/bits/char_traits.h:350: 	__c1 = __c2;
	.loc 16 350 7 is_stmt 0 view .LVU1255
	movq	96(%rsp), %rax	 # MEM[(struct basic_string *)_87]._M_dataplus._M_p, MEM[(struct basic_string *)_87]._M_dataplus._M_p
.LBE4286:
.LBE4285:
.LBB4288:
.LBB4284:
 # C:/msys64/ucrt64/include/c++/14.2.0/bits/basic_string.h:223:       { _M_string_length = __length; }
	.loc 15 223 26 view .LVU1256
	movq	%rdx, 104(%rsp)	 # __dnew, MEM[(struct basic_string *)_87]._M_string_length
.LVL338:
	.loc 15 223 26 view .LVU1257
.LBE4284:
.LBE4288:
.LBB4289:
.LBI4289:
	.loc 15 227 7 is_stmt 1 view .LVU1258
	.loc 15 227 7 is_stmt 0 view .LVU1259
.LBE4289:
.LBB4290:
.LBI4285:
	.loc 16 343 7 is_stmt 1 view .LVU1260
.LBB4287:
	.loc 16 350 2 view .LVU1261
 # C:/msys64/ucrt64/include/c++/14.2.0/bits/char_traits.h:350: 	__c1 = __c2;
	.loc 16 350 7 is_stmt 0 view .LVU1262
	movb	$0, (%rax,%rdx)	 #, MEM[(char_type &)_249]
.LVL339:
	.loc 16 350 7 view .LVU1263
.LBE4287:
.LBE4290:
.LBE4282:
.LBE4281:
.LBB4291:
.LBI4291:
	.loc 17 242 4 is_stmt 1 view .LVU1264
	.loc 17 242 4 is_stmt 0 view .LVU1265
.LBE4291:
.LBE4295:
.LBE4300:
.LBE4307:
.LBE4310:
.LBE4316:
 # C:\Users\MattsDesktop\ECSE6320P1SIMD\SimdMain.cpp:253:         log_to_csv("saxpy_benchmark.csv", label, n, avg_gflops, avg_time, y[0]);
	.loc 1 253 19 discriminator 4 view .LVU1266
	movq	64(%rsp), %rdx	 # %sfp,
	vmovss	%xmm11, 40(%rsp)	 # _5,
	vmovsd	%xmm6, 32(%rsp)	 # avg_time,
.LEHB16:
	call	_Z10log_to_csvIfEvRKNSt7__cxx1112basic_stringIcSt11char_traitsIcESaIcEEES7_yddT_	 #
.LVL340:
.LEHE16:
.LBB4317:
.LBI4317:
	.loc 15 808 7 is_stmt 1 view .LVU1267
.LBB4318:
.LBB4319:
.LBI4319:
	.loc 15 285 7 view .LVU1268
.LBB4320:
.LBB4321:
.LBI4321:
	.loc 15 267 7 view .LVU1269
.LBB4322:
.LBB4323:
.LBI4323:
	.loc 15 227 7 view .LVU1270
.LBB4324:
 # C:/msys64/ucrt64/include/c++/14.2.0/bits/basic_string.h:228:       { return _M_dataplus._M_p; }
	.loc 15 228 28 is_stmt 0 view .LVU1271
	movq	96(%rsp), %rcx	 # MEM[(struct basic_string *)_87]._M_dataplus._M_p, _255
.LVL341:
	.loc 15 228 28 view .LVU1272
.LBE4324:
.LBE4323:
.LBB4325:
.LBI4325:
	.loc 15 243 7 is_stmt 1 view .LVU1273
	.loc 15 243 7 is_stmt 0 view .LVU1274
.LBE4325:
 # C:/msys64/ucrt64/include/c++/14.2.0/bits/basic_string.h:269: 	if (_M_data() == _M_local_data())
	.loc 15 269 2 discriminator 2 view .LVU1275
	cmpq	%r15, %rcx	 # tmp263, _255
	je	.L144	 #,
.LVL342:
	.loc 15 269 2 discriminator 2 view .LVU1276
.LBE4322:
.LBE4321:
.LBB4326:
.LBI4326:
	.loc 15 293 7 is_stmt 1 view .LVU1277
.LBB4327:
.LBB4328:
.LBI4328:
	.loc 18 512 7 view .LVU1278
.LBB4329:
.LBI4329:
	.loc 14 156 7 view .LVU1279
.LBE4329:
.LBE4328:
 # C:/msys64/ucrt64/include/c++/14.2.0/bits/basic_string.h:294:       { _Alloc_traits::deallocate(_M_get_allocator(), _M_data(), __size + 1); }
	.loc 15 294 34 is_stmt 0 view .LVU1280
	movq	112(%rsp), %rax	 # MEM[(struct basic_string *)_87].D.32833._M_allocated_capacity, tmp353
	leaq	1(%rax), %rdx	 #, _258
.LVL343:
.LBB4332:
.LBB4331:
.LBB4330:
 # C:/msys64/ucrt64/include/c++/14.2.0/bits/new_allocator.h:172: 	_GLIBCXX_OPERATOR_DELETE(_GLIBCXX_SIZED_DEALLOC(__p, __n));
	.loc 14 172 26 view .LVU1281
	call	_ZdlPvy	 #
.LVL344:
.L144:
	.loc 14 172 26 view .LVU1282
.LBE4330:
.LBE4331:
.LBE4332:
.LBE4327:
.LBE4326:
.LBE4320:
.LBE4319:
.LBB4333:
.LBI4333:
	.loc 15 186 14 is_stmt 1 view .LVU1283
.LBB4334:
.LBI4334:
	.loc 13 182 7 view .LVU1284
.LBB4335:
.LBI4335:
	.loc 14 104 7 view .LVU1285
	.loc 14 104 7 is_stmt 0 view .LVU1286
.LBE4335:
.LBE4334:
.LBE4333:
.LBE4318:
.LBE4317:
.LBB4336:
.LBI4336:
	.loc 13 182 7 is_stmt 1 view .LVU1287
.LBB4337:
.LBI4337:
	.loc 14 104 7 view .LVU1288
	.loc 14 104 7 is_stmt 0 view .LVU1289
.LBE4337:
.LBE4336:
.LBB4338:
.LBI4338:
	.loc 15 808 7 is_stmt 1 view .LVU1290
.LBB4339:
.LBB4340:
.LBI4340:
	.loc 15 285 7 view .LVU1291
.LBB4341:
.LBB4342:
.LBI4342:
	.loc 15 267 7 view .LVU1292
.LBB4343:
.LBB4344:
.LBI4344:
	.loc 15 227 7 view .LVU1293
.LBB4345:
 # C:/msys64/ucrt64/include/c++/14.2.0/bits/basic_string.h:228:       { return _M_dataplus._M_p; }
	.loc 15 228 28 is_stmt 0 view .LVU1294
	movq	128(%rsp), %rcx	 # D.114652._M_dataplus._M_p, _250
.LVL345:
	.loc 15 228 28 view .LVU1295
.LBE4345:
.LBE4344:
.LBB4346:
.LBI4346:
	.loc 15 243 7 is_stmt 1 view .LVU1296
	.loc 15 243 7 is_stmt 0 view .LVU1297
.LBE4346:
 # C:/msys64/ucrt64/include/c++/14.2.0/bits/basic_string.h:269: 	if (_M_data() == _M_local_data())
	.loc 15 269 2 discriminator 2 view .LVU1298
	cmpq	%rsi, %rcx	 # tmp257, _250
	je	.L145	 #,
.LVL346:
	.loc 15 269 2 discriminator 2 view .LVU1299
.LBE4343:
.LBE4342:
.LBB4347:
.LBI4347:
	.loc 15 293 7 is_stmt 1 view .LVU1300
.LBB4348:
.LBB4349:
.LBI4349:
	.loc 18 512 7 view .LVU1301
.LBB4350:
.LBI4350:
	.loc 14 156 7 view .LVU1302
.LBE4350:
.LBE4349:
 # C:/msys64/ucrt64/include/c++/14.2.0/bits/basic_string.h:294:       { _Alloc_traits::deallocate(_M_get_allocator(), _M_data(), __size + 1); }
	.loc 15 294 34 is_stmt 0 view .LVU1303
	movq	144(%rsp), %rax	 # D.114652.D.32833._M_allocated_capacity, tmp354
	leaq	1(%rax), %rdx	 #, _253
.LVL347:
.LBB4353:
.LBB4352:
.LBB4351:
 # C:/msys64/ucrt64/include/c++/14.2.0/bits/new_allocator.h:172: 	_GLIBCXX_OPERATOR_DELETE(_GLIBCXX_SIZED_DEALLOC(__p, __n));
	.loc 14 172 26 view .LVU1304
	call	_ZdlPvy	 #
.LVL348:
.L145:
	.loc 14 172 26 view .LVU1305
.LBE4351:
.LBE4352:
.LBE4353:
.LBE4348:
.LBE4347:
.LBE4341:
.LBE4340:
.LBB4354:
.LBI4354:
	.loc 15 186 14 is_stmt 1 view .LVU1306
.LBB4355:
.LBI4355:
	.loc 13 182 7 view .LVU1307
.LBB4356:
.LBI4356:
	.loc 14 104 7 view .LVU1308
	.loc 14 104 7 is_stmt 0 view .LVU1309
.LBE4356:
.LBE4355:
.LBE4354:
.LBE4339:
.LBE4338:
.LBB4357:
.LBI4357:
	.loc 13 182 7 is_stmt 1 view .LVU1310
.LBB4358:
.LBI4358:
	.loc 14 104 7 view .LVU1311
	.loc 14 104 7 is_stmt 0 view .LVU1312
.LBE4358:
.LBE4357:
.LBB4359:
.LBI4359:
	.loc 20 733 7 is_stmt 1 view .LVU1313
.LBB4360:
.LBI4360:
	.loc 20 300 7 view .LVU1314
	.loc 20 300 7 is_stmt 0 view .LVU1315
.LBE4360:
.LBB4361:
.LBI4361:
	.loc 18 941 5 is_stmt 1 view .LVU1316
	.loc 18 941 5 is_stmt 0 view .LVU1317
.LBE4361:
.LBB4362:
.LBI4362:
	.loc 20 366 7 is_stmt 1 view .LVU1318
.LBB4363:
.LBI4363:
	.loc 20 385 7 view .LVU1319
.LBB4364:
.LBB4365:
.LBI4365:
	.loc 18 512 7 view .LVU1320
.LBB4366:
.LBI4366:
	.loc 14 156 7 view .LVU1321
.LBB4367:
 # C:/msys64/ucrt64/include/c++/14.2.0/bits/new_allocator.h:172: 	_GLIBCXX_OPERATOR_DELETE(_GLIBCXX_SIZED_DEALLOC(__p, __n));
	.loc 14 172 26 is_stmt 0 view .LVU1322
	movq	%r13, %rdx	 # _179,
	movq	%rbx, %rcx	 # iftmp.15_96,
	call	_ZdlPvy	 #
.LVL349:
	.loc 14 172 26 view .LVU1323
.LBE4367:
.LBE4366:
.LBE4365:
.LBE4364:
.LBE4363:
.LBB4368:
.LBI4368:
	.loc 20 132 14 is_stmt 1 view .LVU1324
.LBB4369:
.LBI4369:
	.loc 13 182 7 view .LVU1325
.LBB4370:
.LBI4370:
	.loc 14 104 7 view .LVU1326
	.loc 14 104 7 is_stmt 0 view .LVU1327
.LBE4370:
.LBE4369:
.LBE4368:
.LBE4362:
.LBE4359:
.LBB4371:
.LBI4371:
	.loc 20 733 7 is_stmt 1 view .LVU1328
.LBB4372:
.LBI4372:
	.loc 20 300 7 view .LVU1329
	.loc 20 300 7 is_stmt 0 view .LVU1330
.LBE4372:
.LBB4373:
.LBI4373:
	.loc 18 941 5 is_stmt 1 view .LVU1331
	.loc 18 941 5 is_stmt 0 view .LVU1332
.LBE4373:
.LBB4374:
.LBI4374:
	.loc 20 366 7 is_stmt 1 view .LVU1333
.LBB4375:
.LBI4375:
	.loc 20 385 7 view .LVU1334
.LBB4376:
 # C:/msys64/ucrt64/include/c++/14.2.0/bits/stl_vector.h:388: 	if (__p)
	.loc 20 388 2 is_stmt 0 view .LVU1335
	testq	%r12, %r12	 # _191
	je	.L146	 #,
.LVL350:
.LBB4377:
.LBI4377:
	.loc 18 512 7 is_stmt 1 view .LVU1336
.LBB4378:
.LBI4378:
	.loc 14 156 7 view .LVU1337
.LBB4379:
 # C:/msys64/ucrt64/include/c++/14.2.0/bits/new_allocator.h:172: 	_GLIBCXX_OPERATOR_DELETE(_GLIBCXX_SIZED_DEALLOC(__p, __n));
	.loc 14 172 26 is_stmt 0 view .LVU1338
	movq	%r13, %rdx	 # _179,
	movq	%r12, %rcx	 # _191,
	call	_ZdlPvy	 #
.LVL351:
	.loc 14 172 26 view .LVU1339
.LBE4379:
.LBE4378:
.LBE4377:
.LBE4376:
.LBE4375:
.LBB4380:
.LBI4380:
	.loc 20 132 14 is_stmt 1 view .LVU1340
.LBB4381:
.LBI4381:
	.loc 13 182 7 view .LVU1341
.LBB4382:
.LBI4382:
	.loc 14 104 7 view .LVU1342
	.loc 14 104 7 is_stmt 0 view .LVU1343
.LBE4382:
.LBE4381:
.LBE4380:
.LBE4374:
.LBE4371:
.LBE4459:
	.loc 1 220 5 is_stmt 1 discriminator 2 view .LVU1344
	.loc 1 220 5 discriminator 1 view .LVU1345
.L146:
.LBB4460:
.LBB4387:
.LBB4386:
.LBB4385:
	.loc 20 132 14 view .LVU1346
.LBB4384:
	.loc 13 182 7 view .LVU1347
.LBB4383:
	.loc 14 104 7 view .LVU1348
	.loc 14 104 7 is_stmt 0 view .LVU1349
.LBE4383:
.LBE4384:
.LBE4385:
.LBE4386:
.LBE4387:
.LBE4460:
	.loc 1 220 5 is_stmt 1 discriminator 2 view .LVU1350
	.loc 1 220 5 discriminator 1 view .LVU1351
	addq	$8, 56(%rsp)	 #, %sfp
.LVL352:
	.loc 1 220 5 is_stmt 0 discriminator 1 view .LVU1352
	movq	56(%rsp), %rax	 # %sfp, ivtmp.660
	vmovq	%xmm15, %rcx	 # _363, _363
	cmpq	%rcx, %rax	 # _363, ivtmp.660
	jne	.L126	 #,
.LVL353:
	.loc 1 220 5 discriminator 1 view .LVU1353
.LBE4466:
.LBB4467:
.LBI4467:
	.loc 20 733 7 is_stmt 1 view .LVU1354
.LBB4468:
.LBI4468:
	.loc 20 300 7 view .LVU1355
	.loc 20 300 7 is_stmt 0 view .LVU1356
.LBE4468:
.LBB4469:
.LBI4469:
	.loc 18 941 5 is_stmt 1 view .LVU1357
	.loc 18 941 5 is_stmt 0 view .LVU1358
.LBE4469:
.LBB4470:
.LBI4470:
	.loc 20 366 7 is_stmt 1 view .LVU1359
.LBB4471:
.LBI4471:
	.loc 20 385 7 view .LVU1360
.LBB4472:
.LBB4473:
.LBI4473:
	.loc 18 512 7 view .LVU1361
.LBB4474:
.LBI4474:
	.loc 14 156 7 view .LVU1362
.LBB4475:
 # C:/msys64/ucrt64/include/c++/14.2.0/bits/new_allocator.h:172: 	_GLIBCXX_OPERATOR_DELETE(_GLIBCXX_SIZED_DEALLOC(__p, __n));
	.loc 14 172 26 is_stmt 0 view .LVU1363
	movq	72(%rsp), %rcx	 # %sfp,
	movl	$80, %edx	 #,
.LBE4475:
.LBE4474:
.LBE4473:
.LBE4472:
.LBE4471:
.LBE4470:
.LBE4467:
 # C:\Users\MattsDesktop\ECSE6320P1SIMD\SimdMain.cpp:256: }
	.loc 1 256 1 view .LVU1364
	vmovups	160(%rsp), %xmm6	 #,
.LVL354:
	.loc 1 256 1 view .LVU1365
	vmovups	176(%rsp), %xmm7	 #,
.LVL355:
	.loc 1 256 1 view .LVU1366
	vmovups	192(%rsp), %xmm8	 #,
	vmovups	208(%rsp), %xmm9	 #,
	vmovups	224(%rsp), %xmm10	 #,
	vmovups	240(%rsp), %xmm11	 #,
	vmovups	256(%rsp), %xmm12	 #,
	vmovups	272(%rsp), %xmm13	 #,
	vmovups	288(%rsp), %xmm14	 #,
.LVL356:
	.loc 1 256 1 view .LVU1367
	vmovups	304(%rsp), %xmm15	 #,
	addq	$328, %rsp	 #,
	.cfi_remember_state
	.cfi_restore 32
	.cfi_restore 31
	.cfi_restore 30
	.cfi_restore 29
	.cfi_restore 28
	.cfi_restore 27
	.cfi_restore 26
	.cfi_restore 25
	.cfi_restore 24
	.cfi_restore 23
	.cfi_def_cfa_offset 72
	popq	%rbx	 #
	.cfi_restore 3
	.cfi_def_cfa_offset 64
	popq	%rsi	 #
	.cfi_restore 4
	.cfi_def_cfa_offset 56
	popq	%rdi	 #
	.cfi_restore 5
	.cfi_def_cfa_offset 48
.LVL357:
	.loc 1 256 1 view .LVU1368
	popq	%rbp	 #
	.cfi_restore 6
	.cfi_def_cfa_offset 40
	popq	%r12	 #
	.cfi_restore 12
	.cfi_def_cfa_offset 32
	popq	%r13	 #
	.cfi_restore 13
	.cfi_def_cfa_offset 24
	popq	%r14	 #
	.cfi_restore 14
	.cfi_def_cfa_offset 16
.LVL358:
	.loc 1 256 1 view .LVU1369
	popq	%r15	 #
	.cfi_restore 15
	.cfi_def_cfa_offset 8
.LBB4482:
.LBB4481:
.LBB4480:
.LBB4479:
.LBB4478:
.LBB4477:
.LBB4476:
 # C:/msys64/ucrt64/include/c++/14.2.0/bits/new_allocator.h:172: 	_GLIBCXX_OPERATOR_DELETE(_GLIBCXX_SIZED_DEALLOC(__p, __n));
	.loc 14 172 26 view .LVU1370
	jmp	_ZdlPvy	 #
.LVL359:
.L201:
	.cfi_restore_state
	.loc 14 172 26 view .LVU1371
.LBE4476:
.LBE4477:
.LBE4478:
.LBE4479:
.LBE4480:
.LBE4481:
.LBE4482:
.LBB4483:
.LBB4461:
.LBB4388:
.LBB4029:
	.loc 20 1706 7 is_stmt 1 view .LVU1372
.LBB4028:
	.loc 23 465 5 view .LVU1373
.LBB4027:
	.loc 23 312 5 view .LVU1374
.LBB4026:
.LBB4025:
	.loc 23 292 9 view .LVU1375
.LBB4024:
	.loc 22 1175 5 view .LVU1376
.LBB4023:
	.loc 22 1140 5 view .LVU1377
	.loc 22 1140 5 is_stmt 0 view .LVU1378
.LBE4023:
.LBE4024:
.LBE4025:
.LBE4026:
.LBE4027:
.LBE4028:
.LBE4029:
.LBE4388:
.LBB4389:
	.loc 13 182 7 is_stmt 1 view .LVU1379
.LBB4034:
	.loc 14 104 7 view .LVU1380
	.loc 14 104 7 is_stmt 0 view .LVU1381
.LBE4034:
.LBE4389:
.LBB4390:
	.loc 13 161 7 is_stmt 1 view .LVU1382
.LBB4037:
	.loc 14 88 7 view .LVU1383
	.loc 14 88 7 is_stmt 0 view .LVU1384
.LBE4037:
.LBE4390:
.LBB4391:
	.loc 20 569 7 is_stmt 1 view .LVU1385
.LBB4095:
	.loc 20 1917 7 view .LVU1386
.LBB4046:
	.loc 13 165 7 view .LVU1387
.LBB4042:
	.loc 14 92 7 view .LVU1388
	.loc 14 92 7 is_stmt 0 view .LVU1389
.LBE4042:
.LBE4046:
.LBB4047:
	.loc 13 182 7 is_stmt 1 view .LVU1390
.LBB4045:
	.loc 14 104 7 view .LVU1391
	.loc 14 104 7 is_stmt 0 view .LVU1392
.LBE4045:
.LBE4047:
.LBE4095:
.LBB4096:
	.loc 20 332 7 is_stmt 1 view .LVU1393
.LBB4068:
	.loc 20 145 2 view .LVU1394
.LBB4054:
	.loc 13 165 7 view .LVU1395
.LBB4052:
	.loc 14 92 7 view .LVU1396
	.loc 14 92 7 is_stmt 0 view .LVU1397
.LBE4052:
.LBE4054:
.LBB4055:
	.loc 20 98 2 is_stmt 1 view .LVU1398
	.loc 20 98 2 is_stmt 0 view .LVU1399
.LBE4055:
.LBE4068:
.LBB4069:
	.loc 20 396 7 is_stmt 1 view .LVU1400
.LBB4066:
.LBB4064:
	.loc 20 377 7 view .LVU1401
	.loc 20 377 7 is_stmt 0 view .LVU1402
.LBE4064:
.LBE4066:
.LBE4069:
.LBE4096:
.LBB4097:
	.loc 20 1706 7 is_stmt 1 view .LVU1403
.LBB4093:
	.loc 23 465 5 view .LVU1404
.LBB4091:
	.loc 23 312 5 view .LVU1405
.LBB4089:
.LBB4087:
	.loc 23 292 9 view .LVU1406
.LBB4085:
	.loc 22 1175 5 view .LVU1407
.LBB4083:
	.loc 22 1140 5 view .LVU1408
.LBE4083:
.LBE4085:
.LBE4087:
.LBE4089:
.LBE4091:
.LBE4093:
.LBE4097:
.LBE4391:
.LBB4392:
.LBB4030:
.LBB4012:
.LBB4011:
.LBB4010:
.LBB4009:
 # C:/msys64/ucrt64/include/c++/14.2.0/bits/stl_vector.h:380: 	return __n != 0 ? _Tr::allocate(_M_impl, __n) : pointer();
	.loc 20 380 18 is_stmt 0 view .LVU1409
	xorl	%r13d, %r13d	 # _179
	xorl	%r12d, %r12d	 # _191
.LBE4009:
.LBE4010:
.LBE4011:
.LBE4012:
.LBE4030:
.LBE4392:
.LBB4393:
.LBB4098:
.LBB4070:
.LBB4067:
.LBB4065:
.LBB4063:
 # C:/msys64/ucrt64/include/c++/14.2.0/bits/stl_vector.h:380: 	return __n != 0 ? _Tr::allocate(_M_impl, __n) : pointer();
	.loc 20 380 18 discriminator 2 view .LVU1410
	xorl	%ebx, %ebx	 # iftmp.15_96
.LBE4063:
.LBE4065:
.LBE4067:
.LBE4070:
.LBE4098:
.LBB4099:
.LBB4094:
.LBB4092:
.LBB4090:
.LBB4088:
.LBB4086:
.LBB4084:
.LBB4082:
 # C:/msys64/ucrt64/include/c++/14.2.0/bits/stl_algobase.h:1147: 	return __first;
	.loc 22 1147 9 view .LVU1411
	xorl	%esi, %esi	 # _158
	jmp	.L129	 #
.LVL360:
.L205:
	.loc 22 1147 9 view .LVU1412
.LBE4082:
.LBE4084:
.LBE4086:
.LBE4088:
.LBE4090:
.LBE4092:
.LBE4094:
.LBE4099:
.LBE4393:
.LBB4394:
.LBB4237:
.LBB4232:
.LBB4227:
.LBB4222:
.LBB4206:
.LBB4187:
.LBB4183:
.LBB4178:
.LBI4178:
	.loc 16 343 7 is_stmt 1 view .LVU1413
.LBB4179:
	.loc 16 350 2 view .LVU1414
 # C:/msys64/ucrt64/include/c++/14.2.0/bits/char_traits.h:350: 	__c1 = __c2;
	.loc 16 350 7 is_stmt 0 view .LVU1415
	vmovq	%xmm14, %rcx	 # label, label
	movzbl	(%rcx), %edx	 # MEM[(const char_type &)label_37(D)], MEM[(const char_type &)label_37(D)]
	movb	%dl, 144(%rsp)	 # MEM[(const char_type &)label_37(D)], MEM[(char_type &)&D.114652 + 16]
.LVL361:
 # C:/msys64/ucrt64/include/c++/14.2.0/bits/char_traits.h:351:       }
	.loc 16 351 7 view .LVU1416
	jmp	.L143	 #
.LVL362:
.L204:
	.loc 16 351 7 view .LVU1417
.LBE4179:
.LBE4178:
.LBE4183:
.LBE4187:
.LBE4206:
 # C:/msys64/ucrt64/include/c++/14.2.0/bits/basic_string.tcc:229: 	    _M_data(_M_create(__dnew, size_type(0)));
	.loc 17 229 13 view .LVU1418
	leaq	96(%rsp), %rbp	 #, tmp262
.LVL363:
	.loc 17 229 13 view .LVU1419
	movq	64(%rsp), %rcx	 # %sfp,
	xorl	%r8d, %r8d	 #
	movq	%rbp, %rdx	 # tmp262,
.LEHB17:
	call	_ZNSt7__cxx1112basic_stringIcSt11char_traitsIcESaIcEE9_M_createERyy	 #
.LVL364:
.LEHE17:
.LBB4207:
.LBB4208:
 # C:/msys64/ucrt64/include/c++/14.2.0/bits/basic_string.h:255:       { _M_allocated_capacity = __capacity; }
	.loc 15 255 31 view .LVU1420
	movq	96(%rsp), %rdx	 # MEM[(long long unsigned int *)_87], MEM[(long long unsigned int *)_87]
.LBE4208:
.LBE4207:
.LBB4210:
.LBB4211:
 # C:/msys64/ucrt64/include/c++/14.2.0/bits/basic_string.h:218:       { _M_dataplus._M_p = __p; }
	.loc 15 218 26 view .LVU1421
	movq	%rax, 128(%rsp)	 # _93, D.114652._M_dataplus._M_p
.LBE4211:
.LBE4210:
 # C:/msys64/ucrt64/include/c++/14.2.0/bits/basic_string.tcc:229: 	    _M_data(_M_create(__dnew, size_type(0)));
	.loc 17 229 13 view .LVU1422
	movq	%rax, %rcx	 # tmp300, _93
.LVL365:
.LBB4212:
.LBI4210:
	.loc 15 217 7 is_stmt 1 view .LVU1423
	.loc 15 217 7 is_stmt 0 view .LVU1424
.LBE4212:
.LBB4213:
.LBI4207:
	.loc 15 254 7 is_stmt 1 view .LVU1425
.LBB4209:
 # C:/msys64/ucrt64/include/c++/14.2.0/bits/basic_string.h:255:       { _M_allocated_capacity = __capacity; }
	.loc 15 255 31 is_stmt 0 view .LVU1426
	movq	%rdx, 144(%rsp)	 # MEM[(long long unsigned int *)_87], D.114652.D.32833._M_allocated_capacity
.LVL366:
	.loc 15 255 31 view .LVU1427
.LBE4209:
.LBE4213:
.LBB4214:
	.loc 17 239 13 is_stmt 1 view .LVU1428
	.loc 17 239 13 is_stmt 0 view .LVU1429
.LBE4214:
.LBB4215:
	.loc 15 227 7 is_stmt 1 view .LVU1430
	.loc 15 227 7 is_stmt 0 view .LVU1431
.LBE4215:
.LBB4216:
	.loc 15 487 7 is_stmt 1 view .LVU1432
.LBB4188:
	.loc 15 430 7 view .LVU1433
.L140:
.LBB4184:
.LBB4180:
.LBB4175:
.LBB4172:
	.loc 16 427 2 view .LVU1434
 # C:/msys64/ucrt64/include/c++/14.2.0/bits/char_traits.h:427: 	return static_cast<char_type*>(__builtin_memcpy(__s1, __s2, __n));
	.loc 16 427 49 is_stmt 0 view .LVU1435
	vmovq	%xmm14, %rdx	 # label,
	movq	%r15, %r8	 # tmp217,
	call	memcpy	 #
.LVL367:
	.loc 16 427 49 view .LVU1436
.LBE4172:
.LBE4175:
.LBE4180:
.LBE4184:
.LBE4188:
.LBE4216:
 # C:/msys64/ucrt64/include/c++/14.2.0/bits/basic_string.tcc:251: 	_M_set_length(__dnew);
	.loc 17 251 15 view .LVU1437
	movq	96(%rsp), %rax	 # MEM[(long long unsigned int *)_87], prephitmp_165
.LBB4217:
.LBB4203:
.LBB4201:
.LBB4196:
 # C:/msys64/ucrt64/include/c++/14.2.0/bits/basic_string.h:228:       { return _M_dataplus._M_p; }
	.loc 15 228 28 view .LVU1438
	movq	128(%rsp), %rdx	 # D.114652._M_dataplus._M_p, pretmp_60
.LBE4196:
.LBE4201:
.LBE4203:
.LBE4217:
.LBB4218:
.LBB4189:
.LBB4185:
.LBB4181:
.LBB4176:
.LBB4173:
 # C:/msys64/ucrt64/include/c++/14.2.0/bits/char_traits.h:427: 	return static_cast<char_type*>(__builtin_memcpy(__s1, __s2, __n));
	.loc 16 427 66 view .LVU1439
	jmp	.L142	 #
.LVL368:
.L202:
	.loc 16 427 66 view .LVU1440
.LBE4173:
.LBE4176:
.LBE4181:
.LBE4185:
.LBE4189:
.LBE4218:
.LBE4222:
.LBE4227:
.LBE4232:
.LBE4237:
.LBE4394:
.LBB4395:
.LBB4119:
.LBB4111:
.LBI4111:
	.loc 11 668 5 is_stmt 1 view .LVU1441
.LBB4112:
 # C:/msys64/ucrt64/include/c++/14.2.0/ostream:671: 	__out.setstate(ios_base::badbit);
	.loc 11 671 16 is_stmt 0 view .LVU1442
	movq	.refptr._ZSt4cout(%rip), %rsi	 #, tmp261
.LVL369:
	.loc 11 671 16 view .LVU1443
	movq	(%rsi), %rax	 # cout._vptr.basic_ostream, cout._vptr.basic_ostream
.LVL370:
	.loc 11 671 16 view .LVU1444
	movq	-24(%rax), %rcx	 # MEM[(long long int *)_212 + -24B], _215
	addq	%rsi, %rcx	 # tmp261, _215
.LVL371:
.LBB4113:
.LBI4113:
	.loc 9 161 7 is_stmt 1 view .LVU1445
.LBB4114:
.LBB4115:
.LBI4115:
	.loc 9 141 7 view .LVU1446
	.loc 9 141 7 is_stmt 0 view .LVU1447
.LBE4115:
.LBB4116:
.LBI4116:
	.loc 12 186 3 is_stmt 1 view .LVU1448
.LBB4117:
	.loc 12 187 5 view .LVU1449
 # C:/msys64/ucrt64/include/c++/14.2.0/bits/ios_base.h:187:   { return _Ios_Iostate(static_cast<int>(__a) | static_cast<int>(__b)); }
	.loc 12 187 70 is_stmt 0 view .LVU1450
	movl	32(%rcx), %edx	 # MEM[(const struct basic_ios *)_215].D.51970._M_streambuf_state, _217
	orl	$1, %edx	 #, _217
.LEHB18:
.LBE4117:
.LBE4116:
 # C:/msys64/ucrt64/include/c++/14.2.0/bits/basic_ios.h:162:       { this->clear(this->rdstate() | __state); }
	.loc 9 162 20 discriminator 2 view .LVU1451
	call	_ZNSt9basic_iosIcSt11char_traitsIcEE5clearESt12_Ios_Iostate	 #
.LVL372:
.LEHE18:
	.loc 9 162 20 discriminator 2 view .LVU1452
	jmp	.L137	 #
.LVL373:
.L206:
	.loc 9 162 20 discriminator 2 view .LVU1453
.LBE4114:
.LBE4113:
.LBE4112:
.LBE4111:
.LBE4119:
.LBE4395:
.LBB4396:
.LBB4238:
.LBB4233:
.LBB4228:
.LBB4223:
.LBB4219:
.LBB4190:
.LBB4186:
.LBB4182:
.LBB4177:
.LBB4174:
	movq	%rsi, %rcx	 # tmp257, _93
	leaq	96(%rsp), %rbp	 #, tmp262
.LVL374:
	.loc 9 162 20 discriminator 2 view .LVU1454
	jmp	.L140	 #
.LVL375:
.L200:
	.loc 9 162 20 discriminator 2 view .LVU1455
.LBE4174:
.LBE4177:
.LBE4182:
.LBE4186:
.LBE4190:
.LBE4219:
.LBE4223:
.LBE4228:
.LBE4233:
.LBE4238:
.LBE4396:
.LBB4397:
.LBB4031:
.LBB3996:
 # C:/msys64/ucrt64/include/c++/14.2.0/bits/stl_vector.h:1920: 	  __throw_length_error(
	.loc 20 1920 24 view .LVU1456
	leaq	.LC6(%rip), %rcx	 #, tmp168
.LEHB19:
	call	_ZSt20__throw_length_errorPKc	 #
.LVL376:
.LEHE19:
.L160:
	.loc 20 1920 24 view .LVU1457
.LBE3996:
.LBE4031:
.LBE4397:
 # C:\Users\MattsDesktop\ECSE6320P1SIMD\SimdMain.cpp:253:         log_to_csv("saxpy_benchmark.csv", label, n, avg_gflops, avg_time, y[0]);
	.loc 1 253 19 view .LVU1458
	movq	%rax, %rsi	 # tmp307, tmp250
.LVL377:
.LBB4398:
.LBI4398:
	.loc 20 733 7 is_stmt 1 view .LVU1459
.LBB4399:
.LBI4399:
	.loc 20 300 7 view .LVU1460
	.loc 20 300 7 is_stmt 0 view .LVU1461
.LBE4399:
.LBB4400:
.LBI4400:
	.loc 18 941 5 is_stmt 1 view .LVU1462
	.loc 18 941 5 is_stmt 0 view .LVU1463
.LBE4400:
.LBB4401:
.LBI4401:
	.loc 20 366 7 is_stmt 1 view .LVU1464
.LBB4402:
.LBI4402:
	.loc 20 385 7 view .LVU1465
	vzeroupper
.LVL378:
.L157:
.LBB4403:
.LBB4404:
.LBI4404:
	.loc 18 512 7 view .LVU1466
.LBB4405:
.LBB4406:
.LBI4406:
	.loc 14 156 7 view .LVU1467
.LBB4407:
 # C:/msys64/ucrt64/include/c++/14.2.0/bits/new_allocator.h:172: 	_GLIBCXX_OPERATOR_DELETE(_GLIBCXX_SIZED_DEALLOC(__p, __n));
	.loc 14 172 26 is_stmt 0 view .LVU1468
	movq	%r13, %rdx	 # _179,
	movq	%rbx, %rcx	 # iftmp.15_96,
	call	_ZdlPvy	 #
.LVL379:
.L153:
	.loc 14 172 26 view .LVU1469
.LBE4407:
.LBE4406:
.LBE4405:
.LBE4404:
.LBE4403:
.LBE4402:
.LBB4410:
.LBI4410:
	.loc 20 132 14 is_stmt 1 view .LVU1470
.LBB4411:
.LBI4411:
	.loc 13 182 7 view .LVU1471
.LBB4412:
.LBI4412:
	.loc 14 104 7 view .LVU1472
	.loc 14 104 7 is_stmt 0 view .LVU1473
.LBE4412:
.LBE4411:
.LBE4410:
.LBE4401:
.LBE4398:
.LBB4419:
.LBI4419:
	.loc 20 733 7 is_stmt 1 view .LVU1474
.LBB4420:
.LBI4420:
	.loc 20 300 7 view .LVU1475
	.loc 20 300 7 is_stmt 0 view .LVU1476
.LBE4420:
.LBB4421:
.LBI4421:
	.loc 18 941 5 is_stmt 1 view .LVU1477
	.loc 18 941 5 is_stmt 0 view .LVU1478
.LBE4421:
.LBB4422:
.LBI4422:
	.loc 20 366 7 is_stmt 1 view .LVU1479
.LBB4423:
.LBI4423:
	.loc 20 385 7 view .LVU1480
.LBB4424:
 # C:/msys64/ucrt64/include/c++/14.2.0/bits/stl_vector.h:388: 	if (__p)
	.loc 20 388 2 is_stmt 0 view .LVU1481
	testq	%r12, %r12	 # _191
	je	.L156	 #,
.LVL380:
.L155:
.LBB4425:
.LBI4425:
	.loc 18 512 7 is_stmt 1 view .LVU1482
.LBB4426:
.LBB4427:
.LBI4427:
	.loc 14 156 7 view .LVU1483
.LBB4428:
 # C:/msys64/ucrt64/include/c++/14.2.0/bits/new_allocator.h:172: 	_GLIBCXX_OPERATOR_DELETE(_GLIBCXX_SIZED_DEALLOC(__p, __n));
	.loc 14 172 26 is_stmt 0 view .LVU1484
	movq	%r13, %rdx	 # _179,
	movq	%r12, %rcx	 # _191,
	call	_ZdlPvy	 #
.LVL381:
	.loc 14 172 26 view .LVU1485
.LBE4428:
.LBE4427:
.LBE4426:
.LBE4425:
.LBE4424:
.LBE4423:
.LBB4434:
.LBI4434:
	.loc 20 132 14 is_stmt 1 view .LVU1486
.LBB4435:
.LBI4435:
	.loc 13 182 7 view .LVU1487
.LBB4436:
.LBI4436:
	.loc 14 104 7 view .LVU1488
.L156:
	.loc 14 104 7 is_stmt 0 view .LVU1489
.LBE4436:
.LBE4435:
.LBE4434:
.LBE4422:
.LBE4419:
.LBE4461:
.LBE4483:
.LBB4484:
.LBI4484:
	.loc 20 733 7 is_stmt 1 view .LVU1490
.LBB4485:
.LBI4485:
	.loc 20 300 7 view .LVU1491
	.loc 20 300 7 is_stmt 0 view .LVU1492
.LBE4485:
.LBB4486:
.LBI4486:
	.loc 18 941 5 is_stmt 1 view .LVU1493
	.loc 18 941 5 is_stmt 0 view .LVU1494
.LBE4486:
.LBB4487:
.LBI4487:
	.loc 20 366 7 is_stmt 1 view .LVU1495
.LBB4488:
.LBI4488:
	.loc 20 385 7 view .LVU1496
.LBB4489:
.LBB4490:
.LBI4490:
	.loc 18 512 7 view .LVU1497
.LBB4491:
.LBI4491:
	.loc 14 156 7 view .LVU1498
.LBB4492:
 # C:/msys64/ucrt64/include/c++/14.2.0/bits/new_allocator.h:172: 	_GLIBCXX_OPERATOR_DELETE(_GLIBCXX_SIZED_DEALLOC(__p, __n));
	.loc 14 172 26 is_stmt 0 view .LVU1499
	movq	72(%rsp), %rcx	 # %sfp,
	movl	$80, %edx	 #,
	call	_ZdlPvy	 #
.LVL382:
	.loc 14 172 26 view .LVU1500
.LBE4492:
.LBE4491:
.LBE4490:
.LBE4489:
.LBE4488:
.LBB4497:
.LBI4497:
	.loc 20 132 14 is_stmt 1 view .LVU1501
.LBB4498:
.LBI4498:
	.loc 13 182 7 view .LVU1502
.LBB4499:
.LBI4499:
	.loc 14 104 7 view .LVU1503
	.loc 14 104 7 is_stmt 0 view .LVU1504
	movq	%rsi, %rcx	 # tmp254,
.LEHB20:
	call	_Unwind_Resume	 #
.LVL383:
.LEHE20:
.L162:
	.loc 14 104 7 view .LVU1505
.LBE4499:
.LBE4498:
.LBE4497:
.LBE4487:
.LBE4484:
.LBB4502:
.LBB4462:
.LBB4439:
.LBB4440:
 # C:/msys64/ucrt64/include/c++/14.2.0/bits/basic_string.h:809:       { _M_dispose(); }
	.loc 15 809 19 view .LVU1506
	movq	%rbp, %rcx	 # tmp262,
	movq	%rax, %rsi	 # tmp302, tmp246
.LVL384:
	.loc 15 809 19 view .LVU1507
.LBE4440:
.LBI4439:
	.loc 15 808 7 is_stmt 1 view .LVU1508
.LBB4444:
 # C:/msys64/ucrt64/include/c++/14.2.0/bits/basic_string.h:809:       { _M_dispose(); }
	.loc 15 809 19 is_stmt 0 view .LVU1509
	vzeroupper
.LVL385:
	call	_ZNSt7__cxx1112basic_stringIcSt11char_traitsIcESaIcEE10_M_disposeEv	 #
.LVL386:
.LBB4441:
.LBI4441:
	.loc 15 186 14 is_stmt 1 view .LVU1510
.LBB4442:
.LBI4442:
	.loc 13 182 7 view .LVU1511
.LBB4443:
.LBI4443:
	.loc 14 104 7 view .LVU1512
.L150:
	.loc 14 104 7 is_stmt 0 view .LVU1513
.LBE4443:
.LBE4442:
.LBE4441:
.LBE4444:
.LBE4439:
.LBB4445:
.LBI4445:
	.loc 13 182 7 is_stmt 1 view .LVU1514
.LBB4446:
.LBI4446:
	.loc 14 104 7 view .LVU1515
	.loc 14 104 7 is_stmt 0 view .LVU1516
.LBE4446:
.LBE4445:
.LBB4447:
.LBI4447:
	.loc 15 808 7 is_stmt 1 view .LVU1517
.LBB4448:
 # C:/msys64/ucrt64/include/c++/14.2.0/bits/basic_string.h:809:       { _M_dispose(); }
	.loc 15 809 19 is_stmt 0 view .LVU1518
	movq	64(%rsp), %rcx	 # %sfp,
	call	_ZNSt7__cxx1112basic_stringIcSt11char_traitsIcESaIcEE10_M_disposeEv	 #
.LVL387:
.LBB4449:
.LBI4449:
	.loc 15 186 14 is_stmt 1 view .LVU1519
.LBB4450:
.LBI4450:
	.loc 13 182 7 view .LVU1520
.LBB4451:
.LBI4451:
	.loc 14 104 7 view .LVU1521
	.loc 14 104 7 is_stmt 0 view .LVU1522
	jmp	.L157	 #
.LVL388:
.L161:
	.loc 14 104 7 view .LVU1523
.LBE4451:
.LBE4450:
.LBE4449:
 # C:/msys64/ucrt64/include/c++/14.2.0/bits/basic_string.h:809:       { _M_dispose(); }
	.loc 15 809 19 view .LVU1524
	movq	%rax, %rsi	 # tmp303, tmp245
	vzeroupper
.LVL389:
	jmp	.L150	 #
.LVL390:
.L203:
	.loc 15 809 19 view .LVU1525
.LBE4448:
.LBE4447:
.LBB4452:
.LBB4239:
.LBB4234:
 # C:/msys64/ucrt64/include/c++/14.2.0/bits/basic_string.h:651: 	  std::__throw_logic_error(__N("basic_string: "
	.loc 15 651 28 view .LVU1526
	leaq	.LC20(%rip), %rcx	 #, tmp215
.LEHB21:
	call	_ZSt19__throw_logic_errorPKc	 #
.LVL391:
.LEHE21:
.L164:
	.loc 15 651 28 view .LVU1527
.LBE4234:
.LBE4239:
.LBE4452:
.LBB4453:
.LBB4415:
.LBB4413:
.LBB4408:
 # C:/msys64/ucrt64/include/c++/14.2.0/bits/stl_vector.h:388: 	if (__p)
	.loc 20 388 2 view .LVU1528
	movq	%rax, %rsi	 # tmp304, tmp250
.LVL392:
	.loc 20 388 2 view .LVU1529
.LBE4408:
.LBE4413:
.LBE4415:
	.loc 20 733 7 is_stmt 1 view .LVU1530
.LBB4416:
	.loc 20 300 7 view .LVU1531
	.loc 20 300 7 is_stmt 0 view .LVU1532
.LBE4416:
.LBB4417:
	.loc 18 941 5 is_stmt 1 view .LVU1533
	.loc 18 941 5 is_stmt 0 view .LVU1534
.LBE4417:
.LBB4418:
	.loc 20 366 7 is_stmt 1 view .LVU1535
.LBB4414:
	.loc 20 385 7 view .LVU1536
.LBB4409:
 # C:/msys64/ucrt64/include/c++/14.2.0/bits/stl_vector.h:388: 	if (__p)
	.loc 20 388 2 is_stmt 0 view .LVU1537
	testq	%rbx, %rbx	 # iftmp.15_96
	je	.L199	 #,
	vzeroupper
.LVL393:
	jmp	.L157	 #
.LVL394:
.L163:
	.loc 20 388 2 view .LVU1538
.LBE4409:
.LBE4414:
.LBE4418:
.LBE4453:
.LBB4454:
.LBB4438:
.LBB4437:
.LBB4433:
.LBB4432:
.LBB4431:
.LBB4430:
.LBB4429:
 # C:/msys64/ucrt64/include/c++/14.2.0/bits/new_allocator.h:172: 	_GLIBCXX_OPERATOR_DELETE(_GLIBCXX_SIZED_DEALLOC(__p, __n));
	.loc 14 172 26 view .LVU1539
	movq	%rax, %rsi	 # tmp305, tmp252
	vzeroupper
.LVL395:
	jmp	.L155	 #
.LVL396:
.L159:
	.loc 14 172 26 view .LVU1540
.LBE4429:
.LBE4430:
.LBE4431:
.LBE4432:
.LBE4433:
.LBE4437:
.LBE4438:
.LBE4454:
.LBE4462:
.LBE4502:
.LBB4503:
.LBB4501:
.LBB4500:
.LBB4496:
.LBB4495:
.LBB4494:
.LBB4493:
	movq	%rax, %rsi	 # tmp306, tmp254
	vzeroupper
.LVL397:
	jmp	.L156	 #
.LVL398:
.L199:
	.loc 14 172 26 view .LVU1541
	vzeroupper
.LVL399:
	jmp	.L153	 #
.LBE4493:
.LBE4494:
.LBE4495:
.LBE4496:
.LBE4500:
.LBE4501:
.LBE4503:
	.cfi_endproc
.LFE10423:
	.seh_handler	__gxx_personality_seh0, @unwind, @except
	.seh_handlerdata
.LLSDA10423:
	.byte	0xff
	.byte	0xff
	.byte	0x1
	.uleb128 .LLSDACSE10423-.LLSDACSB10423
.LLSDACSB10423:
	.uleb128 .LEHB11-.LFB10423
	.uleb128 .LEHE11-.LEHB11
	.uleb128 0
	.uleb128 0
	.uleb128 .LEHB12-.LFB10423
	.uleb128 .LEHE12-.LEHB12
	.uleb128 .L159-.LFB10423
	.uleb128 0
	.uleb128 .LEHB13-.LFB10423
	.uleb128 .LEHE13-.LEHB13
	.uleb128 .L163-.LFB10423
	.uleb128 0
	.uleb128 .LEHB14-.LFB10423
	.uleb128 .LEHE14-.LEHB14
	.uleb128 .L164-.LFB10423
	.uleb128 0
	.uleb128 .LEHB15-.LFB10423
	.uleb128 .LEHE15-.LEHB15
	.uleb128 .L161-.LFB10423
	.uleb128 0
	.uleb128 .LEHB16-.LFB10423
	.uleb128 .LEHE16-.LEHB16
	.uleb128 .L162-.LFB10423
	.uleb128 0
	.uleb128 .LEHB17-.LFB10423
	.uleb128 .LEHE17-.LEHB17
	.uleb128 .L160-.LFB10423
	.uleb128 0
	.uleb128 .LEHB18-.LFB10423
	.uleb128 .LEHE18-.LEHB18
	.uleb128 .L164-.LFB10423
	.uleb128 0
	.uleb128 .LEHB19-.LFB10423
	.uleb128 .LEHE19-.LEHB19
	.uleb128 .L159-.LFB10423
	.uleb128 0
	.uleb128 .LEHB20-.LFB10423
	.uleb128 .LEHE20-.LEHB20
	.uleb128 0
	.uleb128 0
	.uleb128 .LEHB21-.LFB10423
	.uleb128 .LEHE21-.LEHB21
	.uleb128 .L160-.LFB10423
	.uleb128 0
.LLSDACSE10423:
	.section	.text$_Z15sweep_benchmarkIfEvPKcPFvT_PKS2_PS2_yE,"x"
	.linkonce discard
	.seh_endproc
	.section	.text$_Z10log_to_csvIdEvRKNSt7__cxx1112basic_stringIcSt11char_traitsIcESaIcEEES7_yddT_,"x"
	.linkonce discard
	.p2align 4
	.globl	_Z10log_to_csvIdEvRKNSt7__cxx1112basic_stringIcSt11char_traitsIcESaIcEEES7_yddT_
	.def	_Z10log_to_csvIdEvRKNSt7__cxx1112basic_stringIcSt11char_traitsIcESaIcEEES7_yddT_;	.scl	2;	.type	32;	.endef
	.seh_proc	_Z10log_to_csvIdEvRKNSt7__cxx1112basic_stringIcSt11char_traitsIcESaIcEEES7_yddT_
_Z10log_to_csvIdEvRKNSt7__cxx1112basic_stringIcSt11char_traitsIcESaIcEEES7_yddT_:
.LVL400:
.LFB10690:
	.loc 1 12 6 is_stmt 1 view -0
	.cfi_startproc
	.loc 1 12 6 is_stmt 0 view .LVU1543
	pushq	%r15	 #
	.seh_pushreg	%r15
	.cfi_def_cfa_offset 16
	.cfi_offset 15, -16
	pushq	%r14	 #
	.seh_pushreg	%r14
	.cfi_def_cfa_offset 24
	.cfi_offset 14, -24
	pushq	%r13	 #
	.seh_pushreg	%r13
	.cfi_def_cfa_offset 32
	.cfi_offset 13, -32
	pushq	%r12	 #
	.seh_pushreg	%r12
	.cfi_def_cfa_offset 40
	.cfi_offset 12, -40
	pushq	%rbp	 #
	.seh_pushreg	%rbp
	.cfi_def_cfa_offset 48
	.cfi_offset 6, -48
	pushq	%rdi	 #
	.seh_pushreg	%rdi
	.cfi_def_cfa_offset 56
	.cfi_offset 5, -56
	pushq	%rsi	 #
	.seh_pushreg	%rsi
	.cfi_def_cfa_offset 64
	.cfi_offset 4, -64
	pushq	%rbx	 #
	.seh_pushreg	%rbx
	.cfi_def_cfa_offset 72
	.cfi_offset 3, -72
	subq	$584, %rsp	 #,
	.seh_stackalloc	584
	.cfi_def_cfa_offset 656
	vmovups	%xmm6, 560(%rsp)	 #,
	.seh_savexmm	%xmm6, 560
	.cfi_offset 23, -96
	.seh_endprologue
.LVL401:
.LBB4710:
.LBB4711:
.LBB4712:
.LBB4713:
.LBB4714:
.LBB4715:
 # C:/msys64/ucrt64/include/c++/14.2.0/bits/basic_ios.h:466: 	_M_streambuf(0), _M_ctype(0), _M_num_put(0), _M_num_get(0)
	.loc 9 466 59 view .LVU1544
	leaq	296(%rsp), %r13	 #, tmp272
.LBE4715:
.LBE4714:
.LBE4713:
.LBE4712:
.LBE4711:
.LBE4710:
 # C:\Users\MattsDesktop\ECSE6320P1SIMD\SimdMain.cpp:12: void log_to_csv(const std::string& filename, const std::string& kernel, size_t n, double gflops, double time_ms, T y0) {
	.loc 1 12 6 view .LVU1545
	movq	%rcx, %rdi	 # tmp274, filename
.LVL402:
.LBB4776:
.LBI4710:
	.loc 10 874 7 is_stmt 1 view .LVU1546
.LBB4770:
.LBB4764:
.LBB4726:
.LBI4713:
	.loc 9 464 7 view .LVU1547
.LBE4726:
.LBE4764:
.LBE4770:
.LBE4776:
 # C:\Users\MattsDesktop\ECSE6320P1SIMD\SimdMain.cpp:12: void log_to_csv(const std::string& filename, const std::string& kernel, size_t n, double gflops, double time_ms, T y0) {
	.loc 1 12 6 is_stmt 0 view .LVU1548
	movq	%rdx, %r12	 # tmp275, kernel
	movq	%r8, 672(%rsp)	 # tmp276, n
.LBB4777:
.LBB4771:
.LBB4765:
.LBB4727:
.LBB4721:
.LBB4716:
 # C:/msys64/ucrt64/include/c++/14.2.0/bits/basic_ios.h:466: 	_M_streambuf(0), _M_ctype(0), _M_num_put(0), _M_num_get(0)
	.loc 9 466 59 view .LVU1549
	movq	%r13, %rcx	 # tmp272,
.LVL403:
	.loc 9 466 59 view .LVU1550
.LBE4716:
.LBE4721:
.LBE4727:
.LBE4765:
.LBE4771:
.LBE4777:
 # C:\Users\MattsDesktop\ECSE6320P1SIMD\SimdMain.cpp:12: void log_to_csv(const std::string& filename, const std::string& kernel, size_t n, double gflops, double time_ms, T y0) {
	.loc 1 12 6 view .LVU1551
	vmovsd	%xmm3, %xmm3, %xmm6	 # tmp277, gflops
.LBB4778:
.LBB4772:
.LBB4766:
.LBB4728:
.LBB4722:
.LBB4717:
 # C:/msys64/ucrt64/include/c++/14.2.0/bits/basic_ios.h:466: 	_M_streambuf(0), _M_ctype(0), _M_num_put(0), _M_num_get(0)
	.loc 9 466 59 view .LVU1552
	leaq	80(%rsp), %r15	 #, tmp270
.LVL404:
	.loc 9 466 59 view .LVU1553
	call	_ZNSt8ios_baseC2Ev	 #
.LVL405:
 # C:/msys64/ucrt64/include/c++/14.2.0/bits/basic_ios.h:466: 	_M_streambuf(0), _M_ctype(0), _M_num_put(0), _M_num_get(0)
	.loc 9 466 59 discriminator 1 view .LVU1554
	movq	.refptr._ZTVSt9basic_iosIcSt11char_traitsIcEE(%rip), %rax	 #, tmp294
.LBE4717:
.LBE4722:
.LBE4728:
.LBB4729:
.LBB4730:
.LBB4731:
 # C:/msys64/ucrt64/include/c++/14.2.0/ostream:438:       { this->init(0); }
	.loc 11 438 19 view .LVU1555
	xorl	%edx, %edx	 #
.LBE4731:
.LBE4730:
.LBE4729:
.LBB4738:
.LBB4723:
.LBB4718:
 # C:/msys64/ucrt64/include/c++/14.2.0/bits/basic_ios.h:465:       : ios_base(), _M_tie(0), _M_fill(char_type()), _M_fill_init(false), 
	.loc 9 465 21 view .LVU1556
	movq	$0, 512(%rsp)	 #, MEM[(struct basic_ios *)&file + 216B]._M_tie
 # C:/msys64/ucrt64/include/c++/14.2.0/bits/basic_ios.h:466: 	_M_streambuf(0), _M_ctype(0), _M_num_put(0), _M_num_get(0)
	.loc 9 466 2 view .LVU1557
	movq	$0, 528(%rsp)	 #, MEM[(struct basic_ios *)&file + 216B]._M_streambuf
 # C:/msys64/ucrt64/include/c++/14.2.0/bits/basic_ios.h:466: 	_M_streambuf(0), _M_ctype(0), _M_num_put(0), _M_num_get(0)
	.loc 9 466 19 view .LVU1558
	movq	$0, 536(%rsp)	 #, MEM[(struct basic_ios *)&file + 216B]._M_ctype
 # C:/msys64/ucrt64/include/c++/14.2.0/bits/basic_ios.h:466: 	_M_streambuf(0), _M_ctype(0), _M_num_put(0), _M_num_get(0)
	.loc 9 466 59 discriminator 1 view .LVU1559
	addq	$16, %rax	 #, tmp155
	movq	%rax, 296(%rsp)	 # tmp155, MEM[(struct basic_ios *)&file + 216B].D.51970._vptr.ios_base
 # C:/msys64/ucrt64/include/c++/14.2.0/bits/basic_ios.h:465:       : ios_base(), _M_tie(0), _M_fill(char_type()), _M_fill_init(false), 
	.loc 9 465 32 view .LVU1560
	xorl	%eax, %eax	 #
	movw	%ax, 520(%rsp)	 #, MEM <unsigned short> [(void *)&file + 440B]
.LBE4718:
.LBE4723:
.LBE4738:
.LBB4739:
.LBB4735:
.LBB4732:
 # C:/msys64/ucrt64/include/c++/14.2.0/ostream:438:       { this->init(0); }
	.loc 11 438 7 view .LVU1561
	movq	.refptr._ZTTSt14basic_ofstreamIcSt11char_traitsIcEE(%rip), %rax	 #, tmp156
.LBE4732:
.LBE4735:
.LBE4739:
.LBB4740:
.LBB4724:
.LBB4719:
 # C:/msys64/ucrt64/include/c++/14.2.0/bits/basic_ios.h:466: 	_M_streambuf(0), _M_ctype(0), _M_num_put(0), _M_num_get(0)
	.loc 9 466 32 view .LVU1562
	movq	$0, 544(%rsp)	 #, MEM[(struct basic_ios *)&file + 216B]._M_num_put
.LBE4719:
.LBE4724:
.LBE4740:
.LBB4741:
.LBB4736:
.LBB4733:
 # C:/msys64/ucrt64/include/c++/14.2.0/ostream:438:       { this->init(0); }
	.loc 11 438 7 view .LVU1563
	movq	8(%rax), %rsi	 # MEM[(const void * *)&_ZTTSt14basic_ofstreamIcSt11char_traitsIcEE + 8B], _65
	movq	16(%rax), %r14	 # MEM[(const void * *)&_ZTTSt14basic_ofstreamIcSt11char_traitsIcEE + 16B], _69
.LBE4733:
.LBE4736:
.LBE4741:
.LBB4742:
.LBB4725:
.LBB4720:
 # C:/msys64/ucrt64/include/c++/14.2.0/bits/basic_ios.h:466: 	_M_streambuf(0), _M_ctype(0), _M_num_put(0), _M_num_get(0)
	.loc 9 466 47 view .LVU1564
	movq	$0, 552(%rsp)	 #, MEM[(struct basic_ios *)&file + 216B]._M_num_get
.LVL406:
	.loc 9 466 47 view .LVU1565
.LBE4720:
.LBE4725:
.LBE4742:
.LBB4743:
.LBI4729:
	.loc 11 437 7 is_stmt 1 view .LVU1566
.LBB4737:
.LBB4734:
 # C:/msys64/ucrt64/include/c++/14.2.0/ostream:438:       { this->init(0); }
	.loc 11 438 7 is_stmt 0 view .LVU1567
	movq	-24(%rsi), %rcx	 # MEM[(long long int *)_65 + -24B], _68
	movq	%rsi, 80(%rsp)	 # _65, MEM[(struct basic_ostream *)&file]._vptr.basic_ostream
	addq	%r15, %rcx	 # tmp270, _68
	movq	%r14, (%rcx)	 # _69, MEM[(struct basic_ios *)_68].D.51970._vptr.ios_base
.LEHB22:
 # C:/msys64/ucrt64/include/c++/14.2.0/ostream:438:       { this->init(0); }
	.loc 11 438 19 view .LVU1568
	call	_ZNSt9basic_iosIcSt11char_traitsIcEE4initEPSt15basic_streambufIcS1_E	 #
.LVL407:
.LEHE22:
	.loc 11 438 19 view .LVU1569
.LBE4734:
.LBE4737:
.LBE4743:
 # C:/msys64/ucrt64/include/c++/14.2.0/fstream:876:       : __ostream_type(), _M_filebuf()
	.loc 10 876 38 discriminator 1 view .LVU1570
	movq	.refptr._ZTVSt14basic_ofstreamIcSt11char_traitsIcEE(%rip), %rbx	 #, tmp269
 # C:/msys64/ucrt64/include/c++/14.2.0/fstream:876:       : __ostream_type(), _M_filebuf()
	.loc 10 876 27 discriminator 1 view .LVU1571
	leaq	88(%rsp), %rbp	 #, tmp271
	movq	%rbp, %rcx	 # tmp271,
 # C:/msys64/ucrt64/include/c++/14.2.0/fstream:876:       : __ostream_type(), _M_filebuf()
	.loc 10 876 38 discriminator 1 view .LVU1572
	leaq	24(%rbx), %rax	 #, tmp161
	movq	%rax, 80(%rsp)	 # tmp161, MEM[(struct basic_ofstream *)&file].D.107333._vptr.basic_ostream
	leaq	64(%rbx), %rax	 #, tmp163
	movq	%rax, 296(%rsp)	 # tmp163, MEM[(struct basic_ios *)&file + 216B].D.51970._vptr.ios_base
.LEHB23:
 # C:/msys64/ucrt64/include/c++/14.2.0/fstream:876:       : __ostream_type(), _M_filebuf()
	.loc 10 876 27 discriminator 1 view .LVU1573
	call	_ZNSt13basic_filebufIcSt11char_traitsIcEEC1Ev	 #
.LVL408:
.LEHE23:
 # C:/msys64/ucrt64/include/c++/14.2.0/fstream:878: 	this->init(&_M_filebuf);
	.loc 10 878 12 view .LVU1574
	movq	%rbp, %rdx	 # tmp271,
	movq	%r13, %rcx	 # tmp272,
.LEHB24:
	call	_ZNSt9basic_iosIcSt11char_traitsIcEE4initEPSt15basic_streambufIcS1_E	 #
.LVL409:
.LBB4744:
.LBI4744:
	.loc 10 1009 7 is_stmt 1 view .LVU1575
.LBB4745:
.LBB4746:
.LBI4746:
	.loc 10 341 7 view .LVU1576
.LBB4747:
 # C:/msys64/ucrt64/include/c++/14.2.0/fstream:342:       { return open(__s.c_str(), __mode); }
	.loc 10 342 20 is_stmt 0 discriminator 1 view .LVU1577
	movq	(%rdi), %rdx	 # MEM[(char * *)filename_7(D)], MEM[(char * *)filename_7(D)]
	movl	$17, %r8d	 #,
	movq	%rbp, %rcx	 # tmp271,
	call	_ZNSt13basic_filebufIcSt11char_traitsIcEE4openEPKcSt13_Ios_Openmode	 #
.LVL410:
	.loc 10 342 20 discriminator 1 view .LVU1578
.LBE4747:
.LBE4746:
.LBB4748:
.LBB4749:
 # C:/msys64/ucrt64/include/c++/14.2.0/fstream:973: 	  this->setstate(ios_base::failbit);
	.loc 10 973 18 view .LVU1579
	movq	80(%rsp), %rdx	 # file.D.107333._vptr.basic_ostream, file.D.107333._vptr.basic_ostream
	movq	-24(%rdx), %rcx	 # MEM[(long long int *)pretmp_95 + -24B], _115
	addq	%r15, %rcx	 # tmp270, _115
.LBE4749:
.LBE4748:
 # C:/msys64/ucrt64/include/c++/14.2.0/fstream:1011: 	if (!_M_filebuf.open(__s, __mode | ios_base::out))
	.loc 10 1011 2 discriminator 2 view .LVU1580
	testq	%rax, %rax	 # tmp278
	je	.L233	 #,
 # C:/msys64/ucrt64/include/c++/14.2.0/fstream:1016: 	  this->clear();
	.loc 10 1016 15 view .LVU1581
	xorl	%edx, %edx	 #
	call	_ZNSt9basic_iosIcSt11char_traitsIcEE5clearESt12_Ios_Iostate	 #
.LVL411:
.LEHE24:
	.loc 10 1016 15 view .LVU1582
.LBE4745:
.LBE4744:
.LBE4766:
.LBE4772:
.LBE4778:
.LBB4779:
.LBI4779:
	.loc 9 129 7 is_stmt 1 view .LVU1583
.LBB4780:
.LBI4780:
	.loc 9 205 7 view .LVU1584
.LBB4781:
.LBI4781:
	.loc 9 141 7 view .LVU1585
	.loc 9 141 7 is_stmt 0 view .LVU1586
.LBE4781:
.LBB4782:
.LBI4782:
	.loc 12 181 3 is_stmt 1 view .LVU1587
.LBB4783:
	.loc 12 182 5 view .LVU1588
	.loc 12 182 5 is_stmt 0 view .LVU1589
.LBE4783:
.LBE4782:
.LBE4780:
.LBE4779:
 # C:\Users\MattsDesktop\ECSE6320P1SIMD\SimdMain.cpp:14:     if (!file) {
	.loc 1 14 5 discriminator 1 view .LVU1590
	testb	$5, 328(%rsp)	 #, MEM[(const struct basic_ios *)&file + 216B].D.51970._M_streambuf_state
	jne	.L234	 #,
.L231:
 # C:\Users\MattsDesktop\ECSE6320P1SIMD\SimdMain.cpp:19:     if (!csv_header_written) {
	.loc 1 19 5 view .LVU1591
	cmpb	$0, _ZL18csv_header_written(%rip)	 #, csv_header_written
	je	.L235	 #,
.L218:
.LVL412:
.LBB4788:
.LBI4788:
	.loc 13 161 7 is_stmt 1 view .LVU1592
.LBB4789:
.LBI4789:
	.loc 14 88 7 view .LVU1593
	.loc 14 88 7 is_stmt 0 view .LVU1594
.LBE4789:
.LBE4788:
.LBB4790:
.LBI4790:
	.loc 15 646 7 is_stmt 1 view .LVU1595
.LBB4791:
.LBB4792:
.LBI4792:
	.loc 15 232 7 view .LVU1596
	.loc 15 232 7 is_stmt 0 view .LVU1597
.LBE4792:
.LBB4793:
.LBI4793:
	.loc 15 193 2 is_stmt 1 view .LVU1598
.LBB4794:
.LBB4795:
.LBB4796:
.LBI4796:
	.loc 13 165 7 view .LVU1599
.LBB4797:
.LBI4797:
	.loc 14 92 7 view .LVU1600
	.loc 14 92 7 is_stmt 0 view .LVU1601
.LBE4797:
.LBE4796:
.LBE4795:
.LBE4794:
.LBE4793:
.LBE4791:
.LBE4790:
.LBB4830:
.LBB4831:
 # C:/msys64/ucrt64/include/c++/14.2.0/bits/basic_string.h:4082:       return __ostream_insert(__os, __str.data(), __str.size());
	.loc 15 4082 30 discriminator 2 view .LVU1602
	movq	(%r12), %rdx	 # MEM[(const struct basic_string *)kernel_14(D)]._M_dataplus._M_p, MEM[(const struct basic_string *)kernel_14(D)]._M_dataplus._M_p
	movq	8(%r12), %r8	 # MEM[(const struct basic_string *)kernel_14(D)]._M_string_length,
.LBE4831:
.LBE4830:
.LBB4838:
.LBB4828:
.LBB4802:
.LBB4800:
.LBB4798:
 # C:/msys64/ucrt64/include/c++/14.2.0/bits/basic_string.h:194: 	: allocator_type(__a), _M_p(__dat) { }
	.loc 15 194 25 discriminator 1 view .LVU1603
	leaq	64(%rsp), %rdi	 #, tmp266
.LVL413:
	.loc 15 194 25 discriminator 1 view .LVU1604
.LBE4798:
.LBE4800:
.LBE4802:
.LBE4828:
.LBE4838:
.LBB4839:
.LBB4835:
 # C:/msys64/ucrt64/include/c++/14.2.0/bits/basic_string.h:4082:       return __ostream_insert(__os, __str.data(), __str.size());
	.loc 15 4082 30 discriminator 2 view .LVU1605
	movq	%r15, %rcx	 # tmp270,
.LBE4835:
.LBE4839:
.LBB4840:
.LBB4829:
.LBB4803:
.LBB4804:
.LBB4805:
.LBB4806:
.LBB4807:
.LBB4808:
.LBB4809:
.LBB4810:
 # C:/msys64/ucrt64/include/c++/14.2.0/bits/char_traits.h:427: 	return static_cast<char_type*>(__builtin_memcpy(__s1, __s2, __n));
	.loc 16 427 49 view .LVU1606
	movl	$1634692198, 64(%rsp)	 #, MEM <char[1:7]> [(void *)&type + 16B]
.LBE4810:
.LBE4809:
.LBE4808:
.LBE4807:
.LBE4806:
.LBE4805:
.LBE4804:
.LBE4803:
.LBB4826:
.LBB4801:
.LBB4799:
 # C:/msys64/ucrt64/include/c++/14.2.0/bits/basic_string.h:194: 	: allocator_type(__a), _M_p(__dat) { }
	.loc 15 194 25 discriminator 1 view .LVU1607
	movq	%rdi, 48(%rsp)	 # tmp266, MEM[(struct _Alloc_hider *)&type]._M_p
.LVL414:
	.loc 15 194 25 discriminator 1 view .LVU1608
.LBE4799:
.LBE4801:
.LBE4826:
.LBB4827:
.LBB4824:
.LBI4824:
	.loc 16 385 7 is_stmt 1 view .LVU1609
	.loc 16 388 2 view .LVU1610
	.loc 16 391 2 view .LVU1611
	.loc 16 391 2 is_stmt 0 view .LVU1612
.LBE4824:
.LBB4825:
.LBI4804:
	.loc 17 221 7 is_stmt 1 view .LVU1613
.LBB4823:
.LBB4815:
.LBI4815:
	.loc 17 239 13 view .LVU1614
	.loc 17 239 13 is_stmt 0 view .LVU1615
.LBE4815:
.LBB4816:
.LBI4806:
	.loc 15 487 7 is_stmt 1 view .LVU1616
.LBB4814:
.LBI4807:
	.loc 15 430 7 view .LVU1617
.LBB4813:
.LBI4808:
	.loc 15 430 7 view .LVU1618
.LBB4812:
.LBI4809:
	.loc 16 419 7 view .LVU1619
.LBB4811:
	.loc 16 421 2 view .LVU1620
	.loc 16 427 2 view .LVU1621
 # C:/msys64/ucrt64/include/c++/14.2.0/bits/char_traits.h:427: 	return static_cast<char_type*>(__builtin_memcpy(__s1, __s2, __n));
	.loc 16 427 49 is_stmt 0 view .LVU1622
	movl	$875983969, 67(%rsp)	 #, MEM <char[1:7]> [(void *)&type + 16B]
.LVL415:
	.loc 16 427 49 view .LVU1623
.LBE4811:
.LBE4812:
.LBE4813:
.LBE4814:
.LBE4816:
.LBB4817:
.LBI4817:
	.loc 15 259 7 is_stmt 1 view .LVU1624
.LBB4818:
.LBI4818:
	.loc 15 222 7 view .LVU1625
.LBB4819:
 # C:/msys64/ucrt64/include/c++/14.2.0/bits/basic_string.h:223:       { _M_string_length = __length; }
	.loc 15 223 26 is_stmt 0 view .LVU1626
	movq	$7, 56(%rsp)	 #, type._M_string_length
.LVL416:
	.loc 15 223 26 view .LVU1627
.LBE4819:
.LBE4818:
.LBB4820:
.LBI4820:
	.loc 16 343 7 is_stmt 1 view .LVU1628
.LBB4821:
	.loc 16 350 2 view .LVU1629
 # C:/msys64/ucrt64/include/c++/14.2.0/bits/char_traits.h:350: 	__c1 = __c2;
	.loc 16 350 7 is_stmt 0 view .LVU1630
	movb	$0, 71(%rsp)	 #, MEM[(char_type &)&type + 23]
.LVL417:
	.loc 16 350 7 view .LVU1631
.LBE4821:
.LBE4820:
.LBE4817:
.LBB4822:
.LBI4822:
	.loc 17 242 4 is_stmt 1 view .LVU1632
	.loc 17 242 4 is_stmt 0 view .LVU1633
.LBE4822:
.LBE4823:
.LBE4825:
.LBE4827:
.LBE4829:
.LBE4840:
.LBB4841:
.LBI4841:
	.loc 13 182 7 is_stmt 1 view .LVU1634
.LBB4842:
.LBI4842:
	.loc 14 104 7 view .LVU1635
	.loc 14 104 7 is_stmt 0 view .LVU1636
.LBE4842:
.LBE4841:
.LBB4843:
.LBI4830:
	.loc 15 4077 5 is_stmt 1 view .LVU1637
.LBB4836:
.LBB4832:
.LBI4832:
	.loc 15 1076 7 view .LVU1638
	.loc 15 1076 7 is_stmt 0 view .LVU1639
.LBE4832:
.LBB4833:
.LBI4833:
	.loc 15 2653 7 is_stmt 1 view .LVU1640
.LBB4834:
.LBI4834:
	.loc 15 227 7 view .LVU1641
.LEHB25:
	.loc 15 227 7 is_stmt 0 view .LVU1642
.LBE4834:
.LBE4833:
 # C:/msys64/ucrt64/include/c++/14.2.0/bits/basic_string.h:4082:       return __ostream_insert(__os, __str.data(), __str.size());
	.loc 15 4082 30 discriminator 2 view .LVU1643
	call	_ZSt16__ostream_insertIcSt11char_traitsIcEERSt13basic_ostreamIT_T0_ES6_PKS3_x	 #
.LVL418:
.LBE4836:
.LBE4843:
.LBB4844:
.LBB4845:
 # C:/msys64/ucrt64/include/c++/14.2.0/ostream:673: 	__ostream_insert(__out, __s,
	.loc 11 673 18 view .LVU1644
	leaq	.LC3(%rip), %r12	 #, tmp268
.LVL419:
	.loc 11 673 18 view .LVU1645
.LBE4845:
.LBE4844:
.LBB4847:
.LBB4837:
 # C:/msys64/ucrt64/include/c++/14.2.0/bits/basic_string.h:4082:       return __ostream_insert(__os, __str.data(), __str.size());
	.loc 15 4082 30 discriminator 2 view .LVU1646
	movq	%rax, %rcx	 # tmp284, _37
.LVL420:
	.loc 15 4082 30 discriminator 2 view .LVU1647
.LBE4837:
.LBE4847:
.LBB4848:
.LBI4844:
	.loc 11 668 5 is_stmt 1 view .LVU1648
.LBB4846:
 # C:/msys64/ucrt64/include/c++/14.2.0/ostream:673: 	__ostream_insert(__out, __s,
	.loc 11 673 18 is_stmt 0 view .LVU1649
	movl	$1, %r8d	 #,
	movq	%rax, 40(%rsp)	 # _37, %sfp
	movq	%r12, %rdx	 # tmp268,
	call	_ZSt16__ostream_insertIcSt11char_traitsIcEERSt13basic_ostreamIT_T0_ES6_PKS3_x	 #
.LVL421:
	.loc 11 673 18 view .LVU1650
.LBE4846:
.LBE4848:
.LBB4849:
.LBI4849:
	.loc 15 4077 5 is_stmt 1 view .LVU1651
.LBB4850:
.LBB4851:
.LBI4851:
	.loc 15 1076 7 view .LVU1652
	.loc 15 1076 7 is_stmt 0 view .LVU1653
.LBE4851:
.LBB4852:
.LBI4852:
	.loc 15 2653 7 is_stmt 1 view .LVU1654
.LBB4853:
.LBI4853:
	.loc 15 227 7 view .LVU1655
	.loc 15 227 7 is_stmt 0 view .LVU1656
.LBE4853:
.LBE4852:
 # C:/msys64/ucrt64/include/c++/14.2.0/bits/basic_string.h:4082:       return __ostream_insert(__os, __str.data(), __str.size());
	.loc 15 4082 30 discriminator 2 view .LVU1657
	movq	56(%rsp), %r8	 # type._M_string_length,
	movq	48(%rsp), %rdx	 # type._M_dataplus._M_p,
	movq	40(%rsp), %rcx	 # %sfp, _37
	call	_ZSt16__ostream_insertIcSt11char_traitsIcEERSt13basic_ostreamIT_T0_ES6_PKS3_x	 #
.LVL422:
	movq	%rax, %rcx	 # tmp285, _41
.LVL423:
	.loc 15 4082 30 discriminator 2 view .LVU1658
.LBE4850:
.LBE4849:
.LBB4854:
.LBI4854:
	.loc 11 668 5 is_stmt 1 view .LVU1659
.LBB4855:
 # C:/msys64/ucrt64/include/c++/14.2.0/ostream:673: 	__ostream_insert(__out, __s,
	.loc 11 673 18 is_stmt 0 view .LVU1660
	movl	$1, %r8d	 #,
	movq	%r12, %rdx	 # tmp268,
	movq	%rax, 40(%rsp)	 # _41, %sfp
	call	_ZSt16__ostream_insertIcSt11char_traitsIcEERSt13basic_ostreamIT_T0_ES6_PKS3_x	 #
.LVL424:
	.loc 11 673 18 view .LVU1661
.LBE4855:
.LBE4854:
.LBB4856:
.LBI4856:
	.loc 11 213 7 is_stmt 1 view .LVU1662
.LBB4857:
 # C:/msys64/ucrt64/include/c++/14.2.0/ostream:214:       { return _M_insert(__n); }
	.loc 11 214 25 is_stmt 0 view .LVU1663
	movq	672(%rsp), %rdx	 # n,
	movq	40(%rsp), %rcx	 # %sfp, _41
	call	_ZNSo9_M_insertIyEERSoT_	 #
.LVL425:
	movq	%rax, %rcx	 # tmp286, _42
.LVL426:
	.loc 11 214 25 view .LVU1664
.LBE4857:
.LBE4856:
.LBB4858:
.LBI4858:
	.loc 11 668 5 is_stmt 1 view .LVU1665
.LBB4859:
 # C:/msys64/ucrt64/include/c++/14.2.0/ostream:673: 	__ostream_insert(__out, __s,
	.loc 11 673 18 is_stmt 0 view .LVU1666
	movl	$1, %r8d	 #,
	movq	%r12, %rdx	 # tmp268,
	movq	%rax, 40(%rsp)	 # _42, %sfp
	call	_ZSt16__ostream_insertIcSt11char_traitsIcEERSt13basic_ostreamIT_T0_ES6_PKS3_x	 #
.LVL427:
	.loc 11 673 18 view .LVU1667
.LBE4859:
.LBE4858:
.LBB4860:
.LBI4860:
	.loc 11 228 7 is_stmt 1 view .LVU1668
.LBB4861:
 # C:/msys64/ucrt64/include/c++/14.2.0/ostream:229:       { return _M_insert(__f); }
	.loc 11 229 25 is_stmt 0 view .LVU1669
	movq	40(%rsp), %rcx	 # %sfp, _42
	vmovsd	%xmm6, %xmm6, %xmm1	 # gflops,
	call	_ZNSo9_M_insertIdEERSoT_	 #
.LVL428:
	movq	%rax, %rcx	 # tmp287, _43
.LVL429:
	.loc 11 229 25 view .LVU1670
.LBE4861:
.LBE4860:
.LBB4862:
.LBI4862:
	.loc 11 668 5 is_stmt 1 view .LVU1671
.LBB4863:
 # C:/msys64/ucrt64/include/c++/14.2.0/ostream:673: 	__ostream_insert(__out, __s,
	.loc 11 673 18 is_stmt 0 view .LVU1672
	movl	$1, %r8d	 #,
	movq	%r12, %rdx	 # tmp268,
	movq	%rax, 40(%rsp)	 # _43, %sfp
	call	_ZSt16__ostream_insertIcSt11char_traitsIcEERSt13basic_ostreamIT_T0_ES6_PKS3_x	 #
.LVL430:
	.loc 11 673 18 view .LVU1673
.LBE4863:
.LBE4862:
.LBB4864:
.LBI4864:
	.loc 11 228 7 is_stmt 1 view .LVU1674
.LBB4865:
 # C:/msys64/ucrt64/include/c++/14.2.0/ostream:229:       { return _M_insert(__f); }
	.loc 11 229 25 is_stmt 0 view .LVU1675
	vmovsd	688(%rsp), %xmm1	 # time_ms,
	movq	40(%rsp), %rcx	 # %sfp, _43
	call	_ZNSo9_M_insertIdEERSoT_	 #
.LVL431:
	movq	%rax, %rcx	 # tmp288, _44
.LVL432:
	.loc 11 229 25 view .LVU1676
.LBE4865:
.LBE4864:
.LBB4866:
.LBI4866:
	.loc 11 668 5 is_stmt 1 view .LVU1677
.LBB4867:
 # C:/msys64/ucrt64/include/c++/14.2.0/ostream:673: 	__ostream_insert(__out, __s,
	.loc 11 673 18 is_stmt 0 view .LVU1678
	movl	$1, %r8d	 #,
	movq	%r12, %rdx	 # tmp268,
	movq	%rax, 40(%rsp)	 # _44, %sfp
	call	_ZSt16__ostream_insertIcSt11char_traitsIcEERSt13basic_ostreamIT_T0_ES6_PKS3_x	 #
.LVL433:
	.loc 11 673 18 view .LVU1679
.LBE4867:
.LBE4866:
.LBB4868:
.LBI4868:
	.loc 11 228 7 is_stmt 1 view .LVU1680
.LBB4869:
 # C:/msys64/ucrt64/include/c++/14.2.0/ostream:229:       { return _M_insert(__f); }
	.loc 11 229 25 is_stmt 0 view .LVU1681
	vmovsd	696(%rsp), %xmm1	 # y0,
	movq	40(%rsp), %rcx	 # %sfp, _44
	call	_ZNSo9_M_insertIdEERSoT_	 #
.LVL434:
	movq	%rax, %rcx	 # tmp289, _45
.LVL435:
	.loc 11 229 25 view .LVU1682
.LBE4869:
.LBE4868:
.LBB4870:
.LBI4870:
	.loc 11 668 5 is_stmt 1 view .LVU1683
.LBB4871:
 # C:/msys64/ucrt64/include/c++/14.2.0/ostream:673: 	__ostream_insert(__out, __s,
	.loc 11 673 18 is_stmt 0 view .LVU1684
	movl	$1, %r8d	 #,
	leaq	.LC1(%rip), %rdx	 #, tmp235
	call	_ZSt16__ostream_insertIcSt11char_traitsIcEERSt13basic_ostreamIT_T0_ES6_PKS3_x	 #
.LVL436:
.LEHE25:
	.loc 11 673 18 view .LVU1685
.LBE4871:
.LBE4870:
.LBB4872:
.LBI4872:
	.loc 15 808 7 is_stmt 1 view .LVU1686
.LBB4873:
.LBB4874:
.LBI4874:
	.loc 15 285 7 view .LVU1687
.LBB4875:
.LBB4876:
.LBI4876:
	.loc 15 267 7 view .LVU1688
.LBB4877:
.LBB4878:
.LBI4878:
	.loc 15 227 7 view .LVU1689
.LBB4879:
 # C:/msys64/ucrt64/include/c++/14.2.0/bits/basic_string.h:228:       { return _M_dataplus._M_p; }
	.loc 15 228 28 is_stmt 0 view .LVU1690
	movq	48(%rsp), %rcx	 # type._M_dataplus._M_p, _128
.LVL437:
	.loc 15 228 28 view .LVU1691
.LBE4879:
.LBE4878:
.LBB4880:
.LBI4880:
	.loc 15 243 7 is_stmt 1 view .LVU1692
	.loc 15 243 7 is_stmt 0 view .LVU1693
.LBE4880:
 # C:/msys64/ucrt64/include/c++/14.2.0/bits/basic_string.h:269: 	if (_M_data() == _M_local_data())
	.loc 15 269 2 discriminator 2 view .LVU1694
	cmpq	%rdi, %rcx	 # tmp266, _128
	je	.L219	 #,
.LVL438:
	.loc 15 269 2 discriminator 2 view .LVU1695
.LBE4877:
.LBE4876:
.LBB4881:
.LBI4881:
	.loc 15 293 7 is_stmt 1 view .LVU1696
.LBB4882:
.LBB4883:
.LBI4883:
	.loc 18 512 7 view .LVU1697
.LBB4884:
.LBI4884:
	.loc 14 156 7 view .LVU1698
.LBE4884:
.LBE4883:
 # C:/msys64/ucrt64/include/c++/14.2.0/bits/basic_string.h:294:       { _Alloc_traits::deallocate(_M_get_allocator(), _M_data(), __size + 1); }
	.loc 15 294 34 is_stmt 0 view .LVU1699
	movq	64(%rsp), %rax	 # type.D.32833._M_allocated_capacity, tmp302
	leaq	1(%rax), %rdx	 #, _131
.LVL439:
.LBB4887:
.LBB4886:
.LBB4885:
 # C:/msys64/ucrt64/include/c++/14.2.0/bits/new_allocator.h:172: 	_GLIBCXX_OPERATOR_DELETE(_GLIBCXX_SIZED_DEALLOC(__p, __n));
	.loc 14 172 26 view .LVU1700
	call	_ZdlPvy	 #
.LVL440:
.L219:
	.loc 14 172 26 view .LVU1701
.LBE4885:
.LBE4886:
.LBE4887:
.LBE4882:
.LBE4881:
.LBE4875:
.LBE4874:
.LBB4888:
.LBI4888:
	.loc 15 186 14 is_stmt 1 view .LVU1702
.LBB4889:
.LBI4889:
	.loc 13 182 7 view .LVU1703
.LBB4890:
.LBI4890:
	.loc 14 104 7 view .LVU1704
	.loc 14 104 7 is_stmt 0 view .LVU1705
.LBE4890:
.LBE4889:
.LBE4888:
.LBE4873:
.LBE4872:
.LBB4891:
.LBI4891:
	.loc 10 911 7 is_stmt 1 view .LVU1706
.LBB4892:
 # C:/msys64/ucrt64/include/c++/14.2.0/fstream:912:       { }
	.loc 10 912 9 is_stmt 0 view .LVU1707
	leaq	24(%rbx), %rax	 #, tmp241
.LBB4893:
.LBB4894:
 # C:/msys64/ucrt64/include/c++/14.2.0/fstream:259: 	  { this->close(); }
	.loc 10 259 17 view .LVU1708
	movq	%rbp, %rcx	 # tmp271,
.LBE4894:
.LBE4893:
 # C:/msys64/ucrt64/include/c++/14.2.0/fstream:912:       { }
	.loc 10 912 9 view .LVU1709
	addq	$64, %rbx	 #, tmp243
	movq	%rax, 80(%rsp)	 # tmp241, file.D.107333._vptr.basic_ostream
.LBB4900:
.LBB4897:
 # C:/msys64/ucrt64/include/c++/14.2.0/fstream:262:       }
	.loc 10 262 7 view .LVU1710
	movq	.refptr._ZTVSt13basic_filebufIcSt11char_traitsIcEE(%rip), %rax	 #, tmp303
.LBE4897:
.LBE4900:
 # C:/msys64/ucrt64/include/c++/14.2.0/fstream:912:       { }
	.loc 10 912 9 view .LVU1711
	movq	%rbx, 296(%rsp)	 # tmp243, MEM[(struct basic_ios *)&file + 216B].D.51970._vptr.ios_base
.LVL441:
.LBB4901:
.LBI4893:
	.loc 10 256 7 is_stmt 1 view .LVU1712
.LBB4898:
 # C:/msys64/ucrt64/include/c++/14.2.0/fstream:262:       }
	.loc 10 262 7 is_stmt 0 view .LVU1713
	addq	$16, %rax	 #, tmp245
	movq	%rax, 88(%rsp)	 # tmp245, MEM[(struct basic_filebuf *)&file + 8B].D.106927._vptr.basic_streambuf
.LEHB26:
 # C:/msys64/ucrt64/include/c++/14.2.0/fstream:259: 	  { this->close(); }
	.loc 10 259 17 view .LVU1714
	call	_ZNSt13basic_filebufIcSt11char_traitsIcEE5closeEv	 #
.LVL442:
.LEHE26:
.L221:
 # C:/msys64/ucrt64/include/c++/14.2.0/fstream:262:       }
	.loc 10 262 7 view .LVU1715
	leaq	160(%rsp), %rcx	 #, tmp249
	call	_ZNSt12__basic_fileIcED1Ev	 #
.LVL443:
.LBB4895:
.LBI4895:
	.loc 19 204 7 is_stmt 1 view .LVU1716
.LBB4896:
 # C:/msys64/ucrt64/include/c++/14.2.0/streambuf:205:       { }
	.loc 19 205 9 is_stmt 0 view .LVU1717
	movq	.refptr._ZTVSt15basic_streambufIcSt11char_traitsIcEE(%rip), %rax	 #, tmp304
	leaq	144(%rsp), %rcx	 #, tmp253
	addq	$16, %rax	 #, tmp251
	movq	%rax, 88(%rsp)	 # tmp251, MEM[(struct basic_streambuf *)&file + 8B]._vptr.basic_streambuf
	call	_ZNSt6localeD1Ev	 #
.LVL444:
	.loc 19 205 9 view .LVU1718
.LBE4896:
.LBE4895:
.LBE4898:
.LBE4901:
.LBB4902:
.LBI4902:
	.loc 11 101 7 is_stmt 1 view .LVU1719
.LBB4903:
 # C:/msys64/ucrt64/include/c++/14.2.0/ostream:101:       ~basic_ostream() { }
	.loc 11 101 26 is_stmt 0 view .LVU1720
	movq	-24(%rsi), %rax	 # MEM[(long long int *)_65 + -24B], MEM[(long long int *)_65 + -24B]
	movq	%rsi, 80(%rsp)	 # _65, MEM[(struct basic_ostream *)&file]._vptr.basic_ostream
.LBE4903:
.LBE4902:
.LBB4905:
.LBB4906:
 # C:/msys64/ucrt64/include/c++/14.2.0/bits/basic_ios.h:286:       ~basic_ios() { }
	.loc 9 286 22 view .LVU1721
	movq	%r13, %rcx	 # tmp272,
.LBE4906:
.LBE4905:
.LBB4908:
.LBB4904:
 # C:/msys64/ucrt64/include/c++/14.2.0/ostream:101:       ~basic_ostream() { }
	.loc 11 101 26 view .LVU1722
	movq	%r14, 80(%rsp,%rax)	 # _69,
.LVL445:
	.loc 11 101 26 view .LVU1723
.LBE4904:
.LBE4908:
.LBB4909:
.LBI4905:
	.loc 9 286 7 is_stmt 1 view .LVU1724
.LBB4907:
 # C:/msys64/ucrt64/include/c++/14.2.0/bits/basic_ios.h:286:       ~basic_ios() { }
	.loc 9 286 22 is_stmt 0 view .LVU1725
	movq	.refptr._ZTVSt9basic_iosIcSt11char_traitsIcEE(%rip), %rax	 #, tmp305
	leaq	16(%rax), %rdi	 #, tmp256
	movq	%rdi, 296(%rsp)	 # tmp256, MEM[(struct basic_ios *)&file + 216B].D.51970._vptr.ios_base
	call	_ZNSt8ios_baseD2Ev	 #
	nop	
.LVL446:
	.loc 9 286 22 view .LVU1726
.LBE4907:
.LBE4909:
.LBE4892:
.LBE4891:
 # C:\Users\MattsDesktop\ECSE6320P1SIMD\SimdMain.cpp:29: }
	.loc 1 29 1 view .LVU1727
	vmovups	560(%rsp), %xmm6	 #,
.LVL447:
	.loc 1 29 1 view .LVU1728
	addq	$584, %rsp	 #,
	.cfi_remember_state
	.cfi_restore 23
	.cfi_def_cfa_offset 72
	popq	%rbx	 #
	.cfi_restore 3
	.cfi_def_cfa_offset 64
	popq	%rsi	 #
	.cfi_restore 4
	.cfi_def_cfa_offset 56
	popq	%rdi	 #
	.cfi_restore 5
	.cfi_def_cfa_offset 48
	popq	%rbp	 #
	.cfi_restore 6
	.cfi_def_cfa_offset 40
	popq	%r12	 #
	.cfi_restore 12
	.cfi_def_cfa_offset 32
	popq	%r13	 #
	.cfi_restore 13
	.cfi_def_cfa_offset 24
	popq	%r14	 #
	.cfi_restore 14
	.cfi_def_cfa_offset 16
	popq	%r15	 #
	.cfi_restore 15
	.cfi_def_cfa_offset 8
	ret	
.LVL448:
	.p2align 4,,10
	.p2align 3
.L235:
	.cfi_restore_state
.LBB4912:
.LBI4912:
	.loc 11 668 5 is_stmt 1 view .LVU1729
.LBB4913:
 # C:/msys64/ucrt64/include/c++/14.2.0/ostream:673: 	__ostream_insert(__out, __s,
	.loc 11 673 18 is_stmt 0 view .LVU1730
	movl	$36, %r8d	 #,
	leaq	.LC2(%rip), %rdx	 #, tmp220
	movq	%r15, %rcx	 # tmp270,
.LEHB27:
	call	_ZSt16__ostream_insertIcSt11char_traitsIcEERSt13basic_ostreamIT_T0_ES6_PKS3_x	 #
.LVL449:
.LEHE27:
	.loc 11 673 18 view .LVU1731
.LBE4913:
.LBE4912:
 # C:\Users\MattsDesktop\ECSE6320P1SIMD\SimdMain.cpp:21:         csv_header_written = true;
	.loc 1 21 28 view .LVU1732
	movb	$1, _ZL18csv_header_written(%rip)	 #, csv_header_written
	jmp	.L218	 #
.LVL450:
	.p2align 4,,10
	.p2align 3
.L233:
.LBB4914:
.LBB4773:
.LBB4767:
.LBB4758:
.LBB4757:
.LBB4756:
.LBI4748:
	.loc 10 970 7 is_stmt 1 view .LVU1733
.LBB4755:
.LBB4750:
.LBI4750:
	.loc 9 161 7 view .LVU1734
.LBB4751:
.LBB4752:
.LBI4752:
	.loc 9 141 7 view .LVU1735
	.loc 9 141 7 is_stmt 0 view .LVU1736
.LBE4752:
.LBB4753:
.LBI4753:
	.loc 12 186 3 is_stmt 1 view .LVU1737
.LBB4754:
	.loc 12 187 5 view .LVU1738
 # C:/msys64/ucrt64/include/c++/14.2.0/bits/ios_base.h:187:   { return _Ios_Iostate(static_cast<int>(__a) | static_cast<int>(__b)); }
	.loc 12 187 70 is_stmt 0 view .LVU1739
	movl	32(%rcx), %edx	 # MEM[(const struct basic_ios *)_115].D.51970._M_streambuf_state, _90
	orl	$4, %edx	 #, _90
.LEHB28:
.LBE4754:
.LBE4753:
 # C:/msys64/ucrt64/include/c++/14.2.0/bits/basic_ios.h:162:       { this->clear(this->rdstate() | __state); }
	.loc 9 162 20 discriminator 2 view .LVU1740
	call	_ZNSt9basic_iosIcSt11char_traitsIcEE5clearESt12_Ios_Iostate	 #
.LVL451:
.LEHE28:
	.loc 9 162 20 discriminator 2 view .LVU1741
.LBE4751:
.LBE4750:
.LBE4755:
.LBE4756:
.LBE4757:
.LBE4758:
.LBE4767:
.LBE4773:
.LBE4914:
.LBB4915:
	.loc 9 129 7 is_stmt 1 view .LVU1742
.LBB4787:
	.loc 9 205 7 view .LVU1743
.LBB4785:
	.loc 9 141 7 view .LVU1744
	.loc 9 141 7 is_stmt 0 view .LVU1745
.LBE4785:
.LBB4786:
	.loc 12 181 3 is_stmt 1 view .LVU1746
.LBB4784:
	.loc 12 182 5 view .LVU1747
	.loc 12 182 5 is_stmt 0 view .LVU1748
.LBE4784:
.LBE4786:
.LBE4787:
.LBE4915:
 # C:\Users\MattsDesktop\ECSE6320P1SIMD\SimdMain.cpp:14:     if (!file) {
	.loc 1 14 5 discriminator 1 view .LVU1749
	testb	$5, 328(%rsp)	 #, MEM[(const struct basic_ios *)&file + 216B].D.51970._M_streambuf_state
	je	.L231	 #,
.L234:
.LVL452:
.LBB4916:
.LBI4916:
	.loc 11 668 5 is_stmt 1 view .LVU1750
.LBB4917:
 # C:/msys64/ucrt64/include/c++/14.2.0/ostream:673: 	__ostream_insert(__out, __s,
	.loc 11 673 18 is_stmt 0 view .LVU1751
	movq	.refptr._ZSt4cerr(%rip), %r12	 #, tmp273
.LVL453:
	.loc 11 673 18 view .LVU1752
	movl	$25, %r8d	 #,
	leaq	.LC0(%rip), %rdx	 #, tmp193
	movq	%r12, %rcx	 # tmp273,
.LEHB29:
	call	_ZSt16__ostream_insertIcSt11char_traitsIcEERSt13basic_ostreamIT_T0_ES6_PKS3_x	 #
.LVL454:
	.loc 11 673 18 view .LVU1753
.LBE4917:
.LBE4916:
.LBB4918:
.LBI4918:
	.loc 15 4077 5 is_stmt 1 view .LVU1754
.LBB4919:
.LBB4920:
.LBI4920:
	.loc 15 1076 7 view .LVU1755
	.loc 15 1076 7 is_stmt 0 view .LVU1756
.LBE4920:
.LBB4921:
.LBI4921:
	.loc 15 2653 7 is_stmt 1 view .LVU1757
.LBB4922:
.LBI4922:
	.loc 15 227 7 view .LVU1758
	.loc 15 227 7 is_stmt 0 view .LVU1759
.LBE4922:
.LBE4921:
 # C:/msys64/ucrt64/include/c++/14.2.0/bits/basic_string.h:4082:       return __ostream_insert(__os, __str.data(), __str.size());
	.loc 15 4082 30 discriminator 2 view .LVU1760
	movq	(%rdi), %rdx	 # MEM[(const struct basic_string *)filename_7(D)]._M_dataplus._M_p, MEM[(const struct basic_string *)filename_7(D)]._M_dataplus._M_p
	movq	8(%rdi), %r8	 # MEM[(const struct basic_string *)filename_7(D)]._M_string_length,
	movq	%r12, %rcx	 # tmp273,
	call	_ZSt16__ostream_insertIcSt11char_traitsIcEERSt13basic_ostreamIT_T0_ES6_PKS3_x	 #
.LVL455:
	movq	%rax, %rcx	 # tmp282, _33
.LVL456:
	.loc 15 4082 30 discriminator 2 view .LVU1761
.LBE4919:
.LBE4918:
.LBB4923:
.LBI4923:
	.loc 11 668 5 is_stmt 1 view .LVU1762
.LBB4924:
 # C:/msys64/ucrt64/include/c++/14.2.0/ostream:673: 	__ostream_insert(__out, __s,
	.loc 11 673 18 is_stmt 0 view .LVU1763
	movl	$1, %r8d	 #,
	leaq	.LC1(%rip), %rdx	 #, tmp198
	call	_ZSt16__ostream_insertIcSt11char_traitsIcEERSt13basic_ostreamIT_T0_ES6_PKS3_x	 #
.LVL457:
.LEHE29:
	.loc 11 673 18 view .LVU1764
.LBE4924:
.LBE4923:
.LBB4925:
.LBI4925:
	.loc 10 911 7 is_stmt 1 view .LVU1765
.LBB4926:
 # C:/msys64/ucrt64/include/c++/14.2.0/fstream:912:       { }
	.loc 10 912 9 is_stmt 0 view .LVU1766
	leaq	24(%rbx), %rax	 #, tmp200
.LBB4927:
.LBB4928:
 # C:/msys64/ucrt64/include/c++/14.2.0/fstream:259: 	  { this->close(); }
	.loc 10 259 17 view .LVU1767
	movq	%rbp, %rcx	 # tmp271,
.LBE4928:
.LBE4927:
 # C:/msys64/ucrt64/include/c++/14.2.0/fstream:912:       { }
	.loc 10 912 9 view .LVU1768
	addq	$64, %rbx	 #, tmp202
	movq	%rax, 80(%rsp)	 # tmp200, file.D.107333._vptr.basic_ostream
.LBB4932:
.LBB4929:
 # C:/msys64/ucrt64/include/c++/14.2.0/fstream:262:       }
	.loc 10 262 7 view .LVU1769
	movq	.refptr._ZTVSt13basic_filebufIcSt11char_traitsIcEE(%rip), %rax	 #, tmp299
.LBE4929:
.LBE4932:
 # C:/msys64/ucrt64/include/c++/14.2.0/fstream:912:       { }
	.loc 10 912 9 view .LVU1770
	movq	%rbx, 296(%rsp)	 # tmp202, MEM[(struct basic_ios *)&file + 216B].D.51970._vptr.ios_base
.LVL458:
.LBB4933:
.LBI4927:
	.loc 10 256 7 is_stmt 1 view .LVU1771
.LBB4930:
 # C:/msys64/ucrt64/include/c++/14.2.0/fstream:262:       }
	.loc 10 262 7 is_stmt 0 view .LVU1772
	addq	$16, %rax	 #, tmp204
	movq	%rax, 88(%rsp)	 # tmp204, MEM[(struct basic_filebuf *)&file + 8B].D.106927._vptr.basic_streambuf
.LEHB30:
 # C:/msys64/ucrt64/include/c++/14.2.0/fstream:259: 	  { this->close(); }
	.loc 10 259 17 view .LVU1773
	call	_ZNSt13basic_filebufIcSt11char_traitsIcEE5closeEv	 #
.LVL459:
.LEHE30:
	jmp	.L221	 #
.LVL460:
.L224:
	.loc 10 259 17 view .LVU1774
.LBE4930:
.LBE4933:
.LBE4926:
.LBE4925:
 # C:\Users\MattsDesktop\ECSE6320P1SIMD\SimdMain.cpp:29: }
	.loc 1 29 1 view .LVU1775
	movq	%rax, %rbx	 # tmp292, tmp261
	vzeroupper
.LVL461:
.L223:
	.loc 1 29 1 view .LVU1776
	movq	%r15, %rcx	 # tmp270,
	call	_ZNSt14basic_ofstreamIcSt11char_traitsIcEED1Ev	 #
.LVL462:
	movq	%rbx, %rcx	 # tmp261,
.LEHB31:
	call	_Unwind_Resume	 #
.LVL463:
.LEHE31:
.L229:
.LBB4936:
.LBB4935:
.LBB4934:
.LBB4931:
 # C:/msys64/ucrt64/include/c++/14.2.0/fstream:260: 	__catch(...)
	.loc 10 260 2 discriminator 1 view .LVU1777
	movq	%rax, %rcx	 # tmp283, tmp218
	vzeroupper
.LVL464:
	call	__cxa_begin_catch	 #
.LVL465:
 # C:/msys64/ucrt64/include/c++/14.2.0/fstream:260: 	__catch(...)
	.loc 10 260 2 discriminator 2 view .LVU1778
	call	__cxa_end_catch	 #
.LVL466:
	jmp	.L221	 #
.LVL467:
.L228:
	.loc 10 260 2 discriminator 2 view .LVU1779
.LBE4931:
.LBE4934:
.LBE4935:
.LBE4936:
.LBB4937:
.LBB4774:
.LBB4768:
 # C:/msys64/ucrt64/include/c++/14.2.0/fstream:880:       }
	.loc 10 880 7 view .LVU1780
	movq	%rax, %rbx	 # tmp279, tmp183
	movq	%rbp, %rcx	 # tmp271,
	vzeroupper
.LVL468:
	call	_ZNSt13basic_filebufIcSt11char_traitsIcEED1Ev	 #
.LVL469:
	movq	%rbx, %rax	 # tmp183, tmp182
	jmp	.L213	 #
.L227:
	vzeroupper
.LVL470:
.L213:
.LBB4759:
.LBI4759:
	.loc 11 101 7 is_stmt 1 view .LVU1781
.LBB4760:
 # C:/msys64/ucrt64/include/c++/14.2.0/ostream:101:       ~basic_ostream() { }
	.loc 11 101 26 is_stmt 0 view .LVU1782
	movq	-24(%rsi), %rdx	 # MEM[(long long int *)_65 + -24B], MEM[(long long int *)_65 + -24B]
	movq	%rsi, 80(%rsp)	 # _65, MEM[(struct basic_ostream *)&file]._vptr.basic_ostream
	movq	%rax, %rbx	 # tmp182, tmp187
	movq	%r14, 80(%rsp,%rdx)	 # _69, MEM[(struct basic_ios *)_75].D.51970._vptr.ios_base
.LVL471:
	.loc 11 101 26 view .LVU1783
	jmp	.L214	 #
.LVL472:
.L230:
	.loc 11 101 26 view .LVU1784
.LBE4760:
.LBE4759:
.LBE4768:
.LBE4774:
.LBE4937:
.LBB4938:
.LBB4911:
.LBB4910:
.LBB4899:
 # C:/msys64/ucrt64/include/c++/14.2.0/fstream:260: 	__catch(...)
	.loc 10 260 2 discriminator 1 view .LVU1785
	movq	%rax, %rcx	 # tmp290, tmp259
	vzeroupper
.LVL473:
	call	__cxa_begin_catch	 #
.LVL474:
 # C:/msys64/ucrt64/include/c++/14.2.0/fstream:260: 	__catch(...)
	.loc 10 260 2 discriminator 2 view .LVU1786
	call	__cxa_end_catch	 #
.LVL475:
	jmp	.L221	 #
.LVL476:
.L226:
	.loc 10 260 2 discriminator 2 view .LVU1787
.LBE4899:
.LBE4910:
.LBE4911:
.LBE4938:
.LBB4939:
.LBB4775:
.LBB4769:
.LBB4761:
.LBB4762:
 # C:/msys64/ucrt64/include/c++/14.2.0/bits/basic_ios.h:286:       ~basic_ios() { }
	.loc 9 286 22 view .LVU1788
	movq	%rax, %rbx	 # tmp281, tmp187
	vzeroupper
.LVL477:
.L214:
	.loc 9 286 22 view .LVU1789
.LBE4762:
.LBI4761:
	.loc 9 286 7 is_stmt 1 view .LVU1790
.LBB4763:
 # C:/msys64/ucrt64/include/c++/14.2.0/bits/basic_ios.h:286:       ~basic_ios() { }
	.loc 9 286 22 is_stmt 0 view .LVU1791
	movq	.refptr._ZTVSt9basic_iosIcSt11char_traitsIcEE(%rip), %rax	 #, tmp298
	movq	%r13, %rcx	 # tmp272,
	leaq	16(%rax), %rdi	 #, tmp190
.LVL478:
	.loc 9 286 22 view .LVU1792
	movq	%rdi, 296(%rsp)	 # tmp190, MEM[(struct basic_ios *)&file + 216B].D.51970._vptr.ios_base
	call	_ZNSt8ios_baseD2Ev	 #
.LVL479:
	.loc 9 286 22 view .LVU1793
	movq	%rbx, %rcx	 # tmp187,
.LEHB32:
	call	_Unwind_Resume	 #
.LVL480:
.LEHE32:
.L225:
	.loc 9 286 22 view .LVU1794
.LBE4763:
.LBE4761:
.LBE4769:
.LBE4775:
.LBE4939:
.LBB4940:
.LBB4941:
 # C:/msys64/ucrt64/include/c++/14.2.0/bits/basic_string.h:809:       { _M_dispose(); }
	.loc 15 809 19 view .LVU1795
	leaq	48(%rsp), %rcx	 #, tmp260
	movq	%rax, %rbx	 # tmp291, tmp262
.LVL481:
	.loc 15 809 19 view .LVU1796
.LBE4941:
.LBI4940:
	.loc 15 808 7 is_stmt 1 view .LVU1797
.LBB4945:
 # C:/msys64/ucrt64/include/c++/14.2.0/bits/basic_string.h:809:       { _M_dispose(); }
	.loc 15 809 19 is_stmt 0 view .LVU1798
	vzeroupper
.LVL482:
	call	_ZNSt7__cxx1112basic_stringIcSt11char_traitsIcESaIcEE10_M_disposeEv	 #
.LVL483:
.LBB4942:
.LBI4942:
	.loc 15 186 14 is_stmt 1 view .LVU1799
.LBB4943:
.LBI4943:
	.loc 13 182 7 view .LVU1800
.LBB4944:
.LBI4944:
	.loc 14 104 7 view .LVU1801
	.loc 14 104 7 is_stmt 0 view .LVU1802
	jmp	.L223	 #
.LBE4944:
.LBE4943:
.LBE4942:
.LBE4945:
.LBE4940:
	.cfi_endproc
.LFE10690:
	.seh_handler	__gxx_personality_seh0, @unwind, @except
	.seh_handlerdata
	.align 4
.LLSDA10690:
	.byte	0xff
	.byte	0x9b
	.uleb128 .LLSDATT10690-.LLSDATTD10690
.LLSDATTD10690:
	.byte	0x1
	.uleb128 .LLSDACSE10690-.LLSDACSB10690
.LLSDACSB10690:
	.uleb128 .LEHB22-.LFB10690
	.uleb128 .LEHE22-.LEHB22
	.uleb128 .L226-.LFB10690
	.uleb128 0
	.uleb128 .LEHB23-.LFB10690
	.uleb128 .LEHE23-.LEHB23
	.uleb128 .L227-.LFB10690
	.uleb128 0
	.uleb128 .LEHB24-.LFB10690
	.uleb128 .LEHE24-.LEHB24
	.uleb128 .L228-.LFB10690
	.uleb128 0
	.uleb128 .LEHB25-.LFB10690
	.uleb128 .LEHE25-.LEHB25
	.uleb128 .L225-.LFB10690
	.uleb128 0
	.uleb128 .LEHB26-.LFB10690
	.uleb128 .LEHE26-.LEHB26
	.uleb128 .L230-.LFB10690
	.uleb128 0x1
	.uleb128 .LEHB27-.LFB10690
	.uleb128 .LEHE27-.LEHB27
	.uleb128 .L224-.LFB10690
	.uleb128 0
	.uleb128 .LEHB28-.LFB10690
	.uleb128 .LEHE28-.LEHB28
	.uleb128 .L228-.LFB10690
	.uleb128 0
	.uleb128 .LEHB29-.LFB10690
	.uleb128 .LEHE29-.LEHB29
	.uleb128 .L224-.LFB10690
	.uleb128 0
	.uleb128 .LEHB30-.LFB10690
	.uleb128 .LEHE30-.LEHB30
	.uleb128 .L229-.LFB10690
	.uleb128 0x1
	.uleb128 .LEHB31-.LFB10690
	.uleb128 .LEHE31-.LEHB31
	.uleb128 0
	.uleb128 0
	.uleb128 .LEHB32-.LFB10690
	.uleb128 .LEHE32-.LEHB32
	.uleb128 0
	.uleb128 0
.LLSDACSE10690:
	.byte	0x1
	.byte	0
	.align 4
	.long	0

.LLSDATT10690:
	.section	.text$_Z10log_to_csvIdEvRKNSt7__cxx1112basic_stringIcSt11char_traitsIcESaIcEEES7_yddT_,"x"
	.linkonce discard
	.seh_endproc
	.section	.text$_Z15sweep_benchmarkIdEvPKcPFvT_PKS2_PS2_yE,"x"
	.linkonce discard
	.p2align 4
	.globl	_Z15sweep_benchmarkIdEvPKcPFvT_PKS2_PS2_yE
	.def	_Z15sweep_benchmarkIdEvPKcPFvT_PKS2_PS2_yE;	.scl	2;	.type	32;	.endef
	.seh_proc	_Z15sweep_benchmarkIdEvPKcPFvT_PKS2_PS2_yE
_Z15sweep_benchmarkIdEvPKcPFvT_PKS2_PS2_yE:
.LVL484:
.LFB10428:
	.loc 1 203 6 is_stmt 1 view -0
	.cfi_startproc
	.loc 1 203 6 is_stmt 0 view .LVU1804
	pushq	%r15	 #
	.seh_pushreg	%r15
	.cfi_def_cfa_offset 16
	.cfi_offset 15, -16
	pushq	%r14	 #
	.seh_pushreg	%r14
	.cfi_def_cfa_offset 24
	.cfi_offset 14, -24
	pushq	%r13	 #
	.seh_pushreg	%r13
	.cfi_def_cfa_offset 32
	.cfi_offset 13, -32
	pushq	%r12	 #
	.seh_pushreg	%r12
	.cfi_def_cfa_offset 40
	.cfi_offset 12, -40
	pushq	%rbp	 #
	.seh_pushreg	%rbp
	.cfi_def_cfa_offset 48
	.cfi_offset 6, -48
	pushq	%rdi	 #
	.seh_pushreg	%rdi
	.cfi_def_cfa_offset 56
	.cfi_offset 5, -56
	pushq	%rsi	 #
	.seh_pushreg	%rsi
	.cfi_def_cfa_offset 64
	.cfi_offset 4, -64
	pushq	%rbx	 #
	.seh_pushreg	%rbx
	.cfi_def_cfa_offset 72
	.cfi_offset 3, -72
	subq	$328, %rsp	 #,
	.seh_stackalloc	328
	.cfi_def_cfa_offset 400
	vmovups	%xmm6, 160(%rsp)	 #,
	.seh_savexmm	%xmm6, 160
	vmovups	%xmm7, 176(%rsp)	 #,
	.seh_savexmm	%xmm7, 176
	vmovups	%xmm8, 192(%rsp)	 #,
	.seh_savexmm	%xmm8, 192
	vmovups	%xmm9, 208(%rsp)	 #,
	.seh_savexmm	%xmm9, 208
	vmovups	%xmm10, 224(%rsp)	 #,
	.seh_savexmm	%xmm10, 224
	vmovups	%xmm11, 240(%rsp)	 #,
	.seh_savexmm	%xmm11, 240
	vmovups	%xmm12, 256(%rsp)	 #,
	.seh_savexmm	%xmm12, 256
	vmovups	%xmm13, 272(%rsp)	 #,
	.seh_savexmm	%xmm13, 272
	vmovups	%xmm14, 288(%rsp)	 #,
	.seh_savexmm	%xmm14, 288
	vmovups	%xmm15, 304(%rsp)	 #,
	.seh_savexmm	%xmm15, 304
	.cfi_offset 23, -240
	.cfi_offset 24, -224
	.cfi_offset 25, -208
	.cfi_offset 26, -192
	.cfi_offset 27, -176
	.cfi_offset 28, -160
	.cfi_offset 29, -144
	.cfi_offset 30, -128
	.cfi_offset 31, -112
	.cfi_offset 32, -96
	.seh_endprologue
.LVL485:
.LBB5490:
.LBI5490:
	.loc 13 161 7 is_stmt 1 view .LVU1805
.LBB5491:
.LBI5491:
	.loc 14 88 7 view .LVU1806
	.loc 14 88 7 is_stmt 0 view .LVU1807
.LBE5491:
.LBE5490:
.LBB5492:
.LBI5492:
	.loc 20 678 7 is_stmt 1 view .LVU1808
.LBB5493:
.LBI5493:
	.loc 20 320 7 view .LVU1809
.LBB5494:
.LBI5494:
	.loc 20 145 2 view .LVU1810
.LBB5495:
.LBI5495:
	.loc 13 165 7 view .LVU1811
.LBB5496:
.LBI5496:
	.loc 14 92 7 view .LVU1812
	.loc 14 92 7 is_stmt 0 view .LVU1813
.LBE5496:
.LBE5495:
.LBB5497:
.LBI5497:
	.loc 20 98 2 is_stmt 1 view .LVU1814
	.loc 20 98 2 is_stmt 0 view .LVU1815
.LBE5497:
.LBE5494:
.LBE5493:
.LBB5498:
.LBI5498:
	.loc 21 77 7 is_stmt 1 view .LVU1816
	.loc 21 77 7 is_stmt 0 view .LVU1817
.LBE5498:
.LBB5499:
.LBI5499:
	.loc 21 73 7 is_stmt 1 view .LVU1818
	.loc 21 73 7 is_stmt 0 view .LVU1819
.LBE5499:
.LBB5500:
.LBI5500:
	.loc 20 1689 2 is_stmt 1 view .LVU1820
.LBB5501:
.LBB5502:
.LBI5502:
	.loc 20 1917 7 view .LVU1821
.LBB5503:
.LBI5503:
	.loc 13 165 7 view .LVU1822
.LBB5504:
.LBI5504:
	.loc 14 92 7 view .LVU1823
	.loc 14 92 7 is_stmt 0 view .LVU1824
.LBE5504:
.LBE5503:
.LBB5505:
.LBI5505:
	.loc 13 182 7 is_stmt 1 view .LVU1825
.LBB5506:
.LBI5506:
	.loc 14 104 7 view .LVU1826
	.loc 14 104 7 is_stmt 0 view .LVU1827
.LBE5506:
.LBE5505:
.LBE5502:
.LBB5507:
.LBI5507:
	.loc 20 377 7 is_stmt 1 view .LVU1828
.LBB5508:
.LBB5509:
.LBI5509:
	.loc 18 477 7 view .LVU1829
.LBB5510:
.LBI5510:
	.loc 14 126 7 view .LVU1830
	.loc 14 126 7 is_stmt 0 view .LVU1831
	vxorps	%xmm10, %xmm10, %xmm10	 # tmp307
.LBE5510:
.LBE5509:
.LBE5508:
.LBE5507:
.LBE5501:
.LBE5500:
.LBE5492:
 # C:\Users\MattsDesktop\ECSE6320P1SIMD\SimdMain.cpp:203: void sweep_benchmark(const char* label, void (*func)(T, const T*, T*, size_t)) {
	.loc 1 203 6 view .LVU1832
	vmovq	%rcx, %xmm14	 # tmp286, label
.LBB5564:
.LBB5561:
.LBB5558:
.LBB5523:
.LBB5520:
.LBB5517:
.LBB5514:
.LBB5511:
 # C:/msys64/ucrt64/include/c++/14.2.0/bits/new_allocator.h:151: 	return static_cast<_Tp*>(_GLIBCXX_OPERATOR_NEW(__n * sizeof(_Tp)));
	.loc 14 151 48 view .LVU1833
	movl	$80, %ecx	 #,
.LVL486:
	.loc 14 151 48 view .LVU1834
.LBE5511:
.LBE5514:
.LBE5517:
.LBE5520:
.LBE5523:
.LBE5558:
.LBE5561:
.LBE5564:
 # C:\Users\MattsDesktop\ECSE6320P1SIMD\SimdMain.cpp:203: void sweep_benchmark(const char* label, void (*func)(T, const T*, T*, size_t)) {
	.loc 1 203 6 view .LVU1835
	movq	%rdx, %r14	 # tmp287, func
.LEHB33:
.LBB5565:
.LBB5562:
.LBB5559:
.LBB5524:
.LBB5521:
.LBB5518:
.LBB5515:
.LBB5512:
 # C:/msys64/ucrt64/include/c++/14.2.0/bits/new_allocator.h:151: 	return static_cast<_Tp*>(_GLIBCXX_OPERATOR_NEW(__n * sizeof(_Tp)));
	.loc 14 151 48 view .LVU1836
	call	_Znwy	 #
.LVL487:
.LEHE33:
	.loc 14 151 48 view .LVU1837
.LBE5512:
.LBE5515:
.LBE5518:
.LBE5521:
.LBE5524:
.LBB5525:
.LBB5526:
.LBB5527:
.LBB5528:
.LBB5529:
.LBB5530:
.LBB5531:
.LBB5532:
.LBB5533:
.LBB5534:
.LBB5535:
 # C:/msys64/ucrt64/include/c++/14.2.0/bits/stl_algobase.h:452: 	    __builtin_memmove(__result, __first, sizeof(_Tp) * _Num);
	.loc 22 452 23 view .LVU1838
	movl	$268435456, %edx	 #,
	vmovdqu64	.LC5(%rip), %zmm0	 #, tmp165
	vmovsd	.LC21(%rip), %xmm12	 #, tmp265
.LBE5535:
.LBE5534:
.LBE5533:
.LBE5532:
.LBE5531:
.LBE5530:
.LBE5529:
.LBE5528:
.LBE5527:
.LBE5526:
.LBE5525:
.LBB5555:
.LBB5522:
.LBB5519:
.LBB5516:
.LBB5513:
 # C:/msys64/ucrt64/include/c++/14.2.0/bits/new_allocator.h:151: 	return static_cast<_Tp*>(_GLIBCXX_OPERATOR_NEW(__n * sizeof(_Tp)));
	.loc 14 151 48 view .LVU1839
	movq	%rax, %rcx	 # tmp288, _172
	movq	%rax, 72(%rsp)	 # _172, %sfp
.LVL488:
	.loc 14 151 48 view .LVU1840
.LBE5513:
.LBE5516:
.LBE5519:
.LBE5522:
.LBE5555:
.LBB5556:
.LBI5525:
	.loc 23 366 5 is_stmt 1 view .LVU1841
.LBB5553:
.LBI5526:
	.loc 23 163 5 view .LVU1842
.LBB5551:
.LBB5549:
.LBI5528:
	.loc 23 145 9 view .LVU1843
.LBB5547:
.LBI5529:
	.loc 22 642 5 view .LVU1844
.LBB5545:
.LBI5530:
	.loc 22 553 5 view .LVU1845
.LBB5543:
.LBI5531:
	.loc 22 547 5 view .LVU1846
.LBB5541:
.LBI5532:
	.loc 22 512 5 view .LVU1847
.LBB5539:
.LBB5537:
.LBI5534:
	.loc 22 448 2 view .LVU1848
	.loc 22 448 2 is_stmt 0 view .LVU1849
.LBE5537:
.LBE5539:
.LBE5541:
.LBE5543:
.LBE5545:
.LBE5547:
.LBE5549:
.LBE5551:
.LBE5553:
.LBE5556:
.LBE5559:
.LBE5562:
.LBE5565:
.LBB5566:
.LBB5567:
.LBB5568:
.LBB5569:
.LBB5570:
.LBB5571:
.LBB5572:
.LBB5573:
.LBB5574:
 # C:/msys64/ucrt64/include/c++/14.2.0/bits/chrono.h:214: 	      static_cast<_CR>(__d.count()) / static_cast<_CR>(_CF::den)));
	.loc 24 214 38 discriminator 1 view .LVU1850
	vmovsd	.LC10(%rip), %xmm9	 #, tmp266
.LBE5574:
.LBE5573:
.LBE5572:
.LBE5571:
.LBE5570:
.LBE5569:
.LBE5568:
.LBE5567:
.LBE5566:
.LBB6088:
.LBB5563:
.LBB5560:
.LBB5557:
.LBB5554:
.LBB5552:
.LBB5550:
.LBB5548:
.LBB5546:
.LBB5544:
.LBB5542:
.LBB5540:
.LBB5538:
.LBB5536:
 # C:/msys64/ucrt64/include/c++/14.2.0/bits/stl_algobase.h:452: 	    __builtin_memmove(__result, __first, sizeof(_Tp) * _Num);
	.loc 22 452 23 view .LVU1851
	vmovdqu64	%zmm0, (%rax)	 # tmp165, MEM <char[1:80]> [(void *)_172]
	movl	$67108864, %eax	 #, tmp337
.LVL489:
	.loc 22 452 23 view .LVU1852
	movq	%rax, 64(%rcx)	 # tmp337, MEM <char[1:80]> [(void *)_172]
	movq	%rcx, %rax	 # _172, _172
	movq	%rdx, 72(%rcx)	 #, MEM <char[1:80]> [(void *)_172]
.LVL490:
	.loc 22 452 23 view .LVU1853
.LBE5536:
.LBE5538:
.LBE5540:
.LBE5542:
.LBE5544:
.LBE5546:
.LBE5548:
.LBE5550:
.LBE5552:
.LBE5554:
.LBE5557:
.LBE5560:
.LBE5563:
.LBE6088:
.LBB6089:
.LBI6089:
	.loc 13 182 7 is_stmt 1 view .LVU1854
.LBB6090:
.LBI6090:
	.loc 14 104 7 view .LVU1855
	.loc 14 104 7 is_stmt 0 view .LVU1856
.LBE6090:
.LBE6089:
.LBB6091:
.LBB6080:
.LBI6080:
	.loc 20 873 7 is_stmt 1 view .LVU1857
.LBB6081:
.LBI6081:
	.loc 25 1067 7 view .LVU1858
	.loc 25 1067 7 is_stmt 0 view .LVU1859
.LBE6081:
.LBE6080:
.LBB6082:
.LBI6082:
	.loc 20 893 7 is_stmt 1 view .LVU1860
.LBB6083:
.LBI6083:
	.loc 25 1067 7 view .LVU1861
	.loc 25 1067 7 is_stmt 0 view .LVU1862
.LBE6083:
.LBE6082:
	.loc 1 220 5 is_stmt 1 discriminator 1 view .LVU1863
	addq	$80, %rax	 #, _362
.LVL491:
	.loc 1 220 5 is_stmt 0 discriminator 1 view .LVU1864
	movq	%rcx, 56(%rsp)	 # _172, %sfp
	vmovq	%rax, %xmm15	 # _362, _362
	vzeroupper
.LVL492:
	.p2align 4
	.p2align 3
.L237:
.LBB6084:
 # C:\Users\MattsDesktop\ECSE6320P1SIMD\SimdMain.cpp:220:     for (size_t n : sizes) {
	.loc 1 220 5 discriminator 3 view .LVU1865
	movq	56(%rsp), %rax	 # %sfp, ivtmp.700
	movq	(%rax), %rdi	 # MEM[(long long unsigned int &)_245], n
.LVL493:
.LBB5612:
.LBI5612:
	.loc 13 161 7 is_stmt 1 view .LVU1866
.LBB5613:
.LBI5613:
	.loc 14 88 7 view .LVU1867
	.loc 14 88 7 is_stmt 0 view .LVU1868
.LBE5613:
.LBE5612:
.LBB5614:
.LBI5614:
	.loc 20 569 7 is_stmt 1 view .LVU1869
.LBB5615:
.LBI5615:
	.loc 20 1917 7 view .LVU1870
.LBB5616:
.LBB5617:
.LBI5617:
	.loc 13 165 7 view .LVU1871
.LBB5618:
.LBI5618:
	.loc 14 92 7 view .LVU1872
	.loc 14 92 7 is_stmt 0 view .LVU1873
.LBE5618:
.LBE5617:
.LBB5619:
.LBI5619:
	.loc 13 182 7 is_stmt 1 view .LVU1874
.LBB5620:
.LBI5620:
	.loc 14 104 7 view .LVU1875
.LBE5620:
.LBE5619:
 # C:/msys64/ucrt64/include/c++/14.2.0/bits/stl_vector.h:1919: 	if (__n > _S_max_size(_Tp_alloc_type(__a)))
	.loc 20 1919 2 is_stmt 0 discriminator 3 view .LVU1876
	movq	%rdi, %rax	 # n, tmp310
	shrq	$60, %rax	 #, tmp310
	jne	.L311	 #,
.LVL494:
	.loc 20 1919 2 discriminator 3 view .LVU1877
.LBE5616:
.LBE5615:
.LBB5622:
.LBI5622:
	.loc 20 332 7 is_stmt 1 view .LVU1878
.LBB5623:
.LBI5623:
	.loc 20 145 2 view .LVU1879
.LBB5624:
.LBI5624:
	.loc 13 165 7 view .LVU1880
.LBB5625:
.LBI5625:
	.loc 14 92 7 view .LVU1881
	.loc 14 92 7 is_stmt 0 view .LVU1882
.LBE5625:
.LBE5624:
.LBB5626:
.LBI5626:
	.loc 20 98 2 is_stmt 1 view .LVU1883
	.loc 20 98 2 is_stmt 0 view .LVU1884
.LBE5626:
.LBE5623:
.LBB5627:
.LBI5627:
	.loc 20 396 7 is_stmt 1 view .LVU1885
.LBB5628:
.LBB5629:
.LBI5629:
	.loc 20 377 7 view .LVU1886
.LBB5630:
 # C:/msys64/ucrt64/include/c++/14.2.0/bits/stl_vector.h:380: 	return __n != 0 ? _Tr::allocate(_M_impl, __n) : pointer();
	.loc 20 380 18 is_stmt 0 view .LVU1887
	testq	%rdi, %rdi	 # n
	je	.L312	 #,
.LVL495:
.LBB5631:
.LBI5631:
	.loc 18 477 7 is_stmt 1 view .LVU1888
.LBB5632:
.LBI5632:
	.loc 14 126 7 view .LVU1889
.LBB5633:
 # C:/msys64/ucrt64/include/c++/14.2.0/bits/new_allocator.h:151: 	return static_cast<_Tp*>(_GLIBCXX_OPERATOR_NEW(__n * sizeof(_Tp)));
	.loc 14 151 48 is_stmt 0 view .LVU1890
	leaq	0(,%rdi,8), %r13	 #, _178
	movq	%r13, %rcx	 # _178,
.LEHB34:
	call	_Znwy	 #
.LVL496:
.LEHE34:
	movq	%rax, %r12	 # tmp289, _190
.LVL497:
	.loc 14 151 48 view .LVU1891
.LBE5633:
.LBE5632:
.LBE5631:
.LBE5630:
.LBE5629:
 # C:/msys64/ucrt64/include/c++/14.2.0/bits/stl_vector.h:400: 	this->_M_impl._M_end_of_storage = this->_M_impl._M_start + __n;
	.loc 20 400 59 view .LVU1892
	leaq	(%rax,%r13), %rdx	 #, _193
.LVL498:
	.loc 20 400 59 view .LVU1893
.LBE5628:
.LBE5627:
.LBE5622:
.LBB5638:
.LBI5638:
	.loc 20 1706 7 is_stmt 1 view .LVU1894
.LBB5639:
.LBI5639:
	.loc 23 465 5 view .LVU1895
.LBB5640:
.LBI5640:
	.loc 23 312 5 view .LVU1896
.LBB5641:
.LBB5642:
.LBI5642:
	.loc 23 292 9 view .LVU1897
.LBB5643:
.LBI5643:
	.loc 22 1175 5 view .LVU1898
.LBB5644:
.LBI5644:
	.loc 22 1140 5 view .LVU1899
.LBB5645:
.LBB5646:
.LBB5647:
	.loc 22 951 22 discriminator 1 view .LVU1900
	testb	$8, %r13b	 #, _178
	je	.L241	 #,
 # C:/msys64/ucrt64/include/c++/14.2.0/bits/stl_algobase.h:952: 	*__first = __tmp;
	.loc 22 952 11 is_stmt 0 view .LVU1901
	vmovsd	%xmm12, (%rax)	 # tmp265, MEM[(double *)__first_359]
	.loc 22 951 7 is_stmt 1 discriminator 2 view .LVU1902
	leaq	8(%rax), %rax	 #, __first
.LVL499:
	.loc 22 951 22 discriminator 1 view .LVU1903
	cmpq	%rdx, %rax	 # _193, __first
	je	.L305	 #,
	.loc 22 951 22 is_stmt 0 discriminator 1 view .LVU1904
	.p2align 5
	.p2align 4
	.p2align 3
.L241:
 # C:/msys64/ucrt64/include/c++/14.2.0/bits/stl_algobase.h:952: 	*__first = __tmp;
	.loc 22 952 11 view .LVU1905
	vmovsd	%xmm12, (%rax)	 # tmp265, MEM[(double *)__first_359]
	.loc 22 951 7 is_stmt 1 discriminator 2 view .LVU1906
.LVL500:
	.loc 22 951 22 discriminator 1 view .LVU1907
 # C:/msys64/ucrt64/include/c++/14.2.0/bits/stl_algobase.h:951:       for (; __first != __last; ++__first)
	.loc 22 951 7 is_stmt 0 discriminator 2 view .LVU1908
	addq	$16, %rax	 #, __first
.LVL501:
 # C:/msys64/ucrt64/include/c++/14.2.0/bits/stl_algobase.h:952: 	*__first = __tmp;
	.loc 22 952 11 view .LVU1909
	vmovsd	%xmm12, -8(%rax)	 # tmp265, MEM[(double *)__first_359]
	.loc 22 951 7 is_stmt 1 discriminator 2 view .LVU1910
.LVL502:
	.loc 22 951 22 discriminator 1 view .LVU1911
	cmpq	%rdx, %rax	 # _193, __first
	jne	.L241	 #,
.L305:
.LVL503:
	.loc 22 951 22 is_stmt 0 discriminator 1 view .LVU1912
.LBE5647:
.LBE5646:
.LBE5645:
.LBE5644:
.LBE5643:
.LBE5642:
.LBE5641:
.LBE5640:
.LBE5639:
.LBE5638:
.LBE5614:
.LBB5657:
.LBI5657:
	.loc 13 182 7 is_stmt 1 view .LVU1913
.LBB5658:
.LBI5658:
	.loc 14 104 7 view .LVU1914
	.loc 14 104 7 is_stmt 0 view .LVU1915
.LBE5658:
.LBE5657:
.LBB5660:
.LBI5660:
	.loc 13 161 7 is_stmt 1 view .LVU1916
.LBB5661:
.LBI5661:
	.loc 14 88 7 view .LVU1917
	.loc 14 88 7 is_stmt 0 view .LVU1918
.LBE5661:
.LBE5660:
.LBB5663:
.LBI5663:
	.loc 20 569 7 is_stmt 1 view .LVU1919
.LBB5664:
.LBI5664:
	.loc 20 1917 7 view .LVU1920
.LBB5665:
.LBI5665:
	.loc 13 165 7 view .LVU1921
.LBB5666:
.LBI5666:
	.loc 14 92 7 view .LVU1922
	.loc 14 92 7 is_stmt 0 view .LVU1923
.LBE5666:
.LBE5665:
.LBB5668:
.LBI5668:
	.loc 13 182 7 is_stmt 1 view .LVU1924
.LBB5669:
.LBI5669:
	.loc 14 104 7 view .LVU1925
	.loc 14 104 7 is_stmt 0 view .LVU1926
.LBE5669:
.LBE5668:
.LBE5664:
.LBB5673:
.LBI5673:
	.loc 20 332 7 is_stmt 1 view .LVU1927
.LBB5674:
.LBI5674:
	.loc 20 145 2 view .LVU1928
.LBB5675:
.LBI5675:
	.loc 13 165 7 view .LVU1929
.LBB5676:
.LBI5676:
	.loc 14 92 7 view .LVU1930
	.loc 14 92 7 is_stmt 0 view .LVU1931
.LBE5676:
.LBE5675:
.LBB5678:
.LBI5678:
	.loc 20 98 2 is_stmt 1 view .LVU1932
	.loc 20 98 2 is_stmt 0 view .LVU1933
.LBE5678:
.LBE5674:
.LBB5681:
.LBI5681:
	.loc 20 396 7 is_stmt 1 view .LVU1934
.LBB5682:
.LBB5683:
.LBI5683:
	.loc 20 377 7 view .LVU1935
.LBB5684:
.LBB5685:
.LBI5685:
	.loc 18 477 7 view .LVU1936
.LBB5686:
.LBI5686:
	.loc 14 126 7 view .LVU1937
.LBB5687:
 # C:/msys64/ucrt64/include/c++/14.2.0/bits/new_allocator.h:151: 	return static_cast<_Tp*>(_GLIBCXX_OPERATOR_NEW(__n * sizeof(_Tp)));
	.loc 14 151 48 is_stmt 0 view .LVU1938
	movq	%r13, %rcx	 # _178,
.LEHB35:
	call	_Znwy	 #
.LVL504:
.LEHE35:
	.loc 14 151 48 view .LVU1939
	vmovsd	.LC22(%rip), %xmm13	 #, tmp260
	movq	%rax, %rbx	 # tmp290, iftmp.32_95
.LVL505:
	.loc 14 151 48 view .LVU1940
.LBE5687:
.LBE5686:
.LBE5685:
.LBE5684:
.LBE5683:
 # C:/msys64/ucrt64/include/c++/14.2.0/bits/stl_vector.h:400: 	this->_M_impl._M_end_of_storage = this->_M_impl._M_start + __n;
	.loc 20 400 59 view .LVU1941
	leaq	(%rax,%r13), %rsi	 #, _157
.LVL506:
	.loc 20 400 59 view .LVU1942
.LBE5682:
.LBE5681:
.LBE5673:
.LBB5696:
.LBI5696:
	.loc 20 1706 7 is_stmt 1 view .LVU1943
.LBB5697:
.LBI5697:
	.loc 23 465 5 view .LVU1944
.LBB5698:
.LBI5698:
	.loc 23 312 5 view .LVU1945
.LBB5699:
.LBB5700:
.LBI5700:
	.loc 23 292 9 view .LVU1946
.LBB5701:
.LBI5701:
	.loc 22 1175 5 view .LVU1947
.LBB5702:
.LBI5702:
	.loc 22 1140 5 view .LVU1948
.LBB5703:
.LBB5704:
.LBB5705:
.LBB5706:
	.loc 22 951 22 discriminator 1 view .LVU1949
	testb	$8, %r13b	 #, _178
	je	.L242	 #,
 # C:/msys64/ucrt64/include/c++/14.2.0/bits/stl_algobase.h:952: 	*__first = __tmp;
	.loc 22 952 11 is_stmt 0 view .LVU1950
	vmovsd	%xmm13, (%rax)	 # tmp260, MEM[(double *)__first_293]
	.loc 22 951 7 is_stmt 1 discriminator 2 view .LVU1951
	leaq	8(%rax), %rax	 #, __first
.LVL507:
	.loc 22 951 22 discriminator 1 view .LVU1952
	cmpq	%rax, %rsi	 # __first, _157
	je	.L240	 #,
	.loc 22 951 22 is_stmt 0 discriminator 1 view .LVU1953
	.p2align 5
	.p2align 4
	.p2align 3
.L242:
 # C:/msys64/ucrt64/include/c++/14.2.0/bits/stl_algobase.h:952: 	*__first = __tmp;
	.loc 22 952 11 view .LVU1954
	vmovsd	%xmm13, (%rax)	 # tmp260, MEM[(double *)__first_293]
	.loc 22 951 7 is_stmt 1 discriminator 2 view .LVU1955
.LVL508:
	.loc 22 951 22 discriminator 1 view .LVU1956
 # C:/msys64/ucrt64/include/c++/14.2.0/bits/stl_algobase.h:951:       for (; __first != __last; ++__first)
	.loc 22 951 7 is_stmt 0 discriminator 2 view .LVU1957
	addq	$16, %rax	 #, __first
.LVL509:
 # C:/msys64/ucrt64/include/c++/14.2.0/bits/stl_algobase.h:952: 	*__first = __tmp;
	.loc 22 952 11 view .LVU1958
	vmovsd	%xmm13, -8(%rax)	 # tmp260, MEM[(double *)__first_293]
	.loc 22 951 7 is_stmt 1 discriminator 2 view .LVU1959
.LVL510:
	.loc 22 951 22 discriminator 1 view .LVU1960
	cmpq	%rax, %rsi	 # __first, _157
	jne	.L242	 #,
.LVL511:
.L240:
	.loc 22 951 22 is_stmt 0 discriminator 1 view .LVU1961
.LBE5706:
.LBE5705:
.LBE5704:
.LBE5703:
.LBE5702:
.LBE5701:
.LBE5700:
.LBE5699:
.LBE5698:
.LBE5697:
.LBE5696:
.LBE5663:
.LBB5725:
.LBI5725:
	.loc 13 182 7 is_stmt 1 view .LVU1962
.LBB5726:
.LBI5726:
	.loc 14 104 7 view .LVU1963
	.loc 14 104 7 is_stmt 0 view .LVU1964
.LBE5726:
.LBE5725:
.LBB5727:
	.loc 1 228 27 is_stmt 1 discriminator 1 view .LVU1965
.LBE5727:
 # C:\Users\MattsDesktop\ECSE6320P1SIMD\SimdMain.cpp:226:         double total_gflops = 0.0;
	.loc 1 226 16 is_stmt 0 view .LVU1966
	vxorpd	%xmm7, %xmm7, %xmm7	 # total_gflops
.LBB5728:
.LBB5610:
.LBB5588:
.LBB5589:
.LBB5590:
.LBB5591:
.LBB5592:
 # C:/msys64/ucrt64/include/c++/14.2.0/bits/stl_algobase.h:951:       for (; __first != __last; ++__first)
	.loc 22 951 22 discriminator 1 view .LVU1967
	movl	$10, %ebp	 #, ivtmp_206
	vmovsd	.LC23(%rip), %xmm8	 #, tmp261
	vmovsd	.LC22(%rip), %xmm13	 #, tmp260
.LBE5592:
.LBE5591:
.LBE5590:
.LBE5589:
.LBE5588:
 # C:\Users\MattsDesktop\ECSE6320P1SIMD\SimdMain.cpp:241:             total_time += seconds * 1e3;
	.loc 1 241 24 view .LVU1968
	vmovsd	.LC11(%rip), %xmm11	 #, tmp264
.LBE5610:
.LBE5728:
 # C:\Users\MattsDesktop\ECSE6320P1SIMD\SimdMain.cpp:225:         double total_time = 0.0;
	.loc 1 225 16 view .LVU1969
	vmovsd	%xmm7, %xmm7, %xmm6	 #, total_time
.LVL512:
	.p2align 4
	.p2align 3
.L243:
.LBB5729:
.LBB5611:
.LBB5597:
.LBB5596:
.LBB5595:
.LBB5594:
.LBB5593:
	.loc 22 951 22 is_stmt 1 discriminator 1 view .LVU1970
	movq	%rbx, %rax	 # iftmp.32_95, __first
	cmpq	%rsi, %rbx	 # _157, iftmp.32_95
	je	.L246	 #,
	movq	%rsi, %rdx	 # _157, tmp269
	subq	%rbx, %rdx	 # iftmp.32_95, tmp269
	andl	$8, %edx	 #, tmp269
	je	.L244	 #,
 # C:/msys64/ucrt64/include/c++/14.2.0/bits/stl_algobase.h:951:       for (; __first != __last; ++__first)
	.loc 22 951 7 is_stmt 0 discriminator 2 view .LVU1971
	leaq	8(%rbx), %rax	 #, __first
 # C:/msys64/ucrt64/include/c++/14.2.0/bits/stl_algobase.h:952: 	*__first = __tmp;
	.loc 22 952 11 view .LVU1972
	vmovsd	%xmm13, (%rbx)	 # tmp260, MEM[(double *)__first_361]
	.loc 22 951 7 is_stmt 1 discriminator 2 view .LVU1973
.LVL513:
	.loc 22 951 22 discriminator 1 view .LVU1974
	cmpq	%rsi, %rax	 # _157, __first
	je	.L246	 #,
	.loc 22 951 22 is_stmt 0 discriminator 1 view .LVU1975
	.p2align 5
	.p2align 4
	.p2align 3
.L244:
 # C:/msys64/ucrt64/include/c++/14.2.0/bits/stl_algobase.h:952: 	*__first = __tmp;
	.loc 22 952 11 view .LVU1976
	vmovsd	%xmm13, (%rax)	 # tmp260, MEM[(double *)__first_361]
	.loc 22 951 7 is_stmt 1 discriminator 2 view .LVU1977
.LVL514:
	.loc 22 951 22 discriminator 1 view .LVU1978
 # C:/msys64/ucrt64/include/c++/14.2.0/bits/stl_algobase.h:951:       for (; __first != __last; ++__first)
	.loc 22 951 7 is_stmt 0 discriminator 2 view .LVU1979
	addq	$16, %rax	 #, __first
.LVL515:
 # C:/msys64/ucrt64/include/c++/14.2.0/bits/stl_algobase.h:952: 	*__first = __tmp;
	.loc 22 952 11 view .LVU1980
	vmovsd	%xmm13, -8(%rax)	 # tmp260, MEM[(double *)__first_361]
	.loc 22 951 7 is_stmt 1 discriminator 2 view .LVU1981
.LVL516:
	.loc 22 951 22 discriminator 1 view .LVU1982
	cmpq	%rsi, %rax	 # _157, __first
	jne	.L244	 #,
.L246:
.LVL517:
	.loc 22 951 22 is_stmt 0 discriminator 1 view .LVU1983
.LBE5593:
.LBE5594:
.LBE5595:
.LBE5596:
.LBE5597:
 # C:\Users\MattsDesktop\ECSE6320P1SIMD\SimdMain.cpp:230:             func(a, x.data(), y.data(), n); // warm-up
	.loc 1 230 17 discriminator 2 view .LVU1984
	movq	%rdi, %r9	 # n,
	movq	%rbx, %r8	 # iftmp.32_95,
	vmovsd	%xmm8, %xmm8, %xmm0	 # tmp261,
	movq	%r12, %rdx	 # _190,
.LEHB36:
	call	*%r14	 # func
.LVL518:
 # C:\Users\MattsDesktop\ECSE6320P1SIMD\SimdMain.cpp:232:             auto start = std::chrono::high_resolution_clock::now();
	.loc 1 232 65 view .LVU1985
	call	_ZNSt6chrono3_V212system_clock3nowEv	 #
.LVL519:
 # C:\Users\MattsDesktop\ECSE6320P1SIMD\SimdMain.cpp:233:             func(a, x.data(), y.data(), n);
	.loc 1 233 17 discriminator 2 view .LVU1986
	movq	%rdi, %r9	 # n,
	movq	%rbx, %r8	 # iftmp.32_95,
	movq	%r12, %rdx	 # _190,
 # C:\Users\MattsDesktop\ECSE6320P1SIMD\SimdMain.cpp:232:             auto start = std::chrono::high_resolution_clock::now();
	.loc 1 232 65 view .LVU1987
	movq	%rax, %r15	 # tmp291, start
.LVL520:
 # C:\Users\MattsDesktop\ECSE6320P1SIMD\SimdMain.cpp:233:             func(a, x.data(), y.data(), n);
	.loc 1 233 17 discriminator 2 view .LVU1988
	vmovsd	%xmm8, %xmm8, %xmm0	 # tmp261,
	call	*%r14	 # func
.LVL521:
 # C:\Users\MattsDesktop\ECSE6320P1SIMD\SimdMain.cpp:234:             auto end = std::chrono::high_resolution_clock::now();
	.loc 1 234 63 view .LVU1989
	call	_ZNSt6chrono3_V212system_clock3nowEv	 #
.LVL522:
.LBB5598:
.LBI5598:
	.loc 24 1141 7 is_stmt 1 view .LVU1990
.LBB5599:
.LBI5599:
	.loc 24 949 2 view .LVU1991
	.loc 24 949 2 is_stmt 0 view .LVU1992
.LBE5599:
.LBB5600:
.LBI5600:
	.loc 24 949 2 is_stmt 1 view .LVU1993
	.loc 24 949 2 is_stmt 0 view .LVU1994
.LBE5600:
.LBB5601:
.LBI5601:
	.loc 24 710 7 is_stmt 1 view .LVU1995
.LBB5602:
.LBB5603:
.LBI5603:
	.loc 24 573 23 view .LVU1996
	.loc 24 573 23 is_stmt 0 view .LVU1997
.LBE5603:
.LBE5602:
.LBE5601:
.LBE5598:
.LBB5606:
.LBI5570:
	.loc 24 581 14 is_stmt 1 view .LVU1998
.LBB5584:
.LBI5571:
	.loc 24 275 7 view .LVU1999
.LBB5581:
.LBB5578:
.LBI5573:
	.loc 24 210 4 view .LVU2000
	.loc 24 210 4 is_stmt 0 view .LVU2001
.LBE5578:
.LBE5581:
.LBE5584:
.LBE5606:
.LBB5607:
.LBB5605:
.LBB5604:
 # C:/msys64/ucrt64/include/c++/14.2.0/bits/chrono.h:716: 	return __cd(__cd(__lhs).count() - __cd(__rhs).count());
	.loc 24 716 34 discriminator 2 view .LVU2002
	subq	%r15, %rax	 # start, _23
.LBE5604:
.LBE5605:
.LBE5607:
 # C:\Users\MattsDesktop\ECSE6320P1SIMD\SimdMain.cpp:238:             double flops = 2.0 * n;
	.loc 1 238 32 view .LVU2003
	vcvtsi2sdq	%rdi, %xmm10, %xmm0	 # n, tmp307, tmp309
.LBB5608:
.LBB5585:
.LBB5582:
.LBB5579:
.LBB5576:
 # C:/msys64/ucrt64/include/c++/14.2.0/bits/chrono.h:214: 	      static_cast<_CR>(__d.count()) / static_cast<_CR>(_CF::den)));
	.loc 24 214 8 discriminator 1 view .LVU2004
	vcvtsi2sdq	%rax, %xmm10, %xmm1	 # _23, tmp307, tmp308
.LBE5576:
.LBE5579:
.LBE5582:
.LBE5585:
.LBE5608:
 # C:\Users\MattsDesktop\ECSE6320P1SIMD\SimdMain.cpp:238:             double flops = 2.0 * n;
	.loc 1 238 20 view .LVU2005
	vaddsd	%xmm0, %xmm0, %xmm0	 # _1, _1, flops_69
.LBB5609:
.LBB5586:
.LBB5583:
.LBB5580:
.LBB5577:
 # C:/msys64/ucrt64/include/c++/14.2.0/bits/chrono.h:214: 	      static_cast<_CR>(__d.count()) / static_cast<_CR>(_CF::den)));
	.loc 24 214 38 discriminator 1 view .LVU2006
	vdivsd	%xmm9, %xmm1, %xmm1	 # tmp266, _64, _33
.LBB5575:
.LBI5575:
	.loc 24 573 23 is_stmt 1 view .LVU2007
.LVL523:
	.loc 24 573 23 is_stmt 0 view .LVU2008
.LBE5575:
.LBE5577:
.LBE5580:
.LBE5583:
.LBE5586:
.LBB5587:
.LBI5587:
	.loc 24 589 2 is_stmt 1 view .LVU2009
	.loc 24 589 2 is_stmt 0 view .LVU2010
.LBE5587:
.LBE5609:
 # C:\Users\MattsDesktop\ECSE6320P1SIMD\SimdMain.cpp:239:             double gflops = flops / (seconds * 1e9);
	.loc 1 239 46 view .LVU2011
	vmulsd	%xmm9, %xmm1, %xmm2	 # tmp266, _33, _2
 # C:\Users\MattsDesktop\ECSE6320P1SIMD\SimdMain.cpp:241:             total_time += seconds * 1e3;
	.loc 1 241 24 view .LVU2012
	vfmadd231sd	%xmm11, %xmm1, %xmm6	 # tmp264, _33, total_time
.LVL524:
 # C:\Users\MattsDesktop\ECSE6320P1SIMD\SimdMain.cpp:239:             double gflops = flops / (seconds * 1e9);
	.loc 1 239 20 view .LVU2013
	vdivsd	%xmm2, %xmm0, %xmm0	 # _2, flops_69, gflops
.LVL525:
 # C:\Users\MattsDesktop\ECSE6320P1SIMD\SimdMain.cpp:242:             total_gflops += gflops;
	.loc 1 242 26 view .LVU2014
	vaddsd	%xmm0, %xmm7, %xmm7	 # gflops, total_gflops, total_gflops
.LVL526:
	.loc 1 242 26 view .LVU2015
.LBE5611:
	.loc 1 228 9 is_stmt 1 discriminator 2 view .LVU2016
	.loc 1 228 27 discriminator 1 view .LVU2017
	subl	$1, %ebp	 #, ivtmp_206
.LVL527:
	.loc 1 228 27 is_stmt 0 discriminator 1 view .LVU2018
	jne	.L243	 #,
.LBE5729:
 # C:\Users\MattsDesktop\ECSE6320P1SIMD\SimdMain.cpp:245:         double avg_time = total_time / trials;
	.loc 1 245 16 view .LVU2019
	vmovsd	.LC12(%rip), %xmm0	 #, tmp183
.LVL528:
.LBB5730:
.LBB5731:
 # C:/msys64/ucrt64/include/c++/14.2.0/ostream:670:       if (!__s)
	.loc 11 670 7 view .LVU2020
	vmovq	%xmm14, %rax	 # label, label
.LBE5731:
.LBE5730:
 # C:\Users\MattsDesktop\ECSE6320P1SIMD\SimdMain.cpp:245:         double avg_time = total_time / trials;
	.loc 1 245 16 view .LVU2021
	vdivsd	%xmm0, %xmm6, %xmm6	 # tmp183, total_time, avg_time
.LVL529:
 # C:\Users\MattsDesktop\ECSE6320P1SIMD\SimdMain.cpp:246:         double avg_gflops = total_gflops / trials;
	.loc 1 246 16 view .LVU2022
	vdivsd	%xmm0, %xmm7, %xmm7	 # tmp183, total_gflops, avg_gflops
.LVL530:
.LBB5745:
.LBI5730:
	.loc 11 668 5 is_stmt 1 view .LVU2023
.LBB5743:
 # C:/msys64/ucrt64/include/c++/14.2.0/ostream:670:       if (!__s)
	.loc 11 670 7 is_stmt 0 view .LVU2024
	testq	%rax, %rax	 # label
	je	.L313	 #,
.LVL531:
.LBB5732:
.LBI5732:
	.loc 16 385 7 is_stmt 1 view .LVU2025
.LBB5733:
	.loc 16 388 2 view .LVU2026
	.loc 16 391 2 view .LVU2027
 # C:/msys64/ucrt64/include/c++/14.2.0/bits/char_traits.h:391: 	return __builtin_strlen(__s);
	.loc 16 391 25 is_stmt 0 view .LVU2028
	vmovq	%xmm14, %rcx	 # label,
	call	strlen	 #
.LVL532:
	.loc 16 391 25 view .LVU2029
.LBE5733:
.LBE5732:
 # C:/msys64/ucrt64/include/c++/14.2.0/ostream:673: 	__ostream_insert(__out, __s,
	.loc 11 673 18 view .LVU2030
	movq	.refptr._ZSt4cout(%rip), %rsi	 #, tmp257
.LVL533:
.LBB5735:
.LBB5734:
 # C:/msys64/ucrt64/include/c++/14.2.0/bits/char_traits.h:391: 	return __builtin_strlen(__s);
	.loc 16 391 25 view .LVU2031
	movq	%rax, %r8	 #, tmp293
.LBE5734:
.LBE5735:
 # C:/msys64/ucrt64/include/c++/14.2.0/ostream:673: 	__ostream_insert(__out, __s,
	.loc 11 673 18 view .LVU2032
	vmovq	%xmm14, %rdx	 # label,
	movq	%rsi, %rcx	 # tmp257,
	call	_ZSt16__ostream_insertIcSt11char_traitsIcEERSt13basic_ostreamIT_T0_ES6_PKS3_x	 #
.LVL534:
.L248:
	.loc 11 673 18 view .LVU2033
.LBE5743:
.LBE5745:
.LBB5746:
.LBI5746:
	.loc 11 668 5 is_stmt 1 view .LVU2034
.LBB5747:
 # C:/msys64/ucrt64/include/c++/14.2.0/ostream:673: 	__ostream_insert(__out, __s,
	.loc 11 673 18 is_stmt 0 view .LVU2035
	movl	$7, %r8d	 #,
	leaq	.LC13(%rip), %rdx	 #, tmp195
	movq	%rsi, %rcx	 # tmp257,
	call	_ZSt16__ostream_insertIcSt11char_traitsIcEERSt13basic_ostreamIT_T0_ES6_PKS3_x	 #
.LVL535:
	.loc 11 673 18 view .LVU2036
.LBE5747:
.LBE5746:
.LBB5748:
.LBI5748:
	.loc 11 213 7 is_stmt 1 view .LVU2037
.LBB5749:
 # C:/msys64/ucrt64/include/c++/14.2.0/ostream:214:       { return _M_insert(__n); }
	.loc 11 214 25 is_stmt 0 view .LVU2038
	movq	%rdi, %rdx	 # n,
	movq	%rsi, %rcx	 # tmp257,
	call	_ZNSo9_M_insertIyEERSoT_	 #
.LVL536:
	movq	%rax, %rcx	 # tmp294, _18
.LVL537:
	.loc 11 214 25 view .LVU2039
.LBE5749:
.LBE5748:
.LBB5750:
.LBI5750:
	.loc 11 668 5 is_stmt 1 view .LVU2040
.LBB5751:
 # C:/msys64/ucrt64/include/c++/14.2.0/ostream:673: 	__ostream_insert(__out, __s,
	.loc 11 673 18 is_stmt 0 view .LVU2041
	movl	$2, %r8d	 #,
	leaq	.LC14(%rip), %rdx	 #, tmp198
	call	_ZSt16__ostream_insertIcSt11char_traitsIcEERSt13basic_ostreamIT_T0_ES6_PKS3_x	 #
.LVL538:
	.loc 11 673 18 view .LVU2042
.LBE5751:
.LBE5750:
.LBB5752:
.LBI5752:
	.loc 11 668 5 is_stmt 1 view .LVU2043
.LBB5753:
 # C:/msys64/ucrt64/include/c++/14.2.0/ostream:673: 	__ostream_insert(__out, __s,
	.loc 11 673 18 is_stmt 0 view .LVU2044
	movl	$12, %r8d	 #,
	leaq	.LC15(%rip), %rdx	 #, tmp199
	movq	%rsi, %rcx	 # tmp257,
	call	_ZSt16__ostream_insertIcSt11char_traitsIcEERSt13basic_ostreamIT_T0_ES6_PKS3_x	 #
.LVL539:
	.loc 11 673 18 view .LVU2045
.LBE5753:
.LBE5752:
.LBB5754:
.LBI5754:
	.loc 11 228 7 is_stmt 1 view .LVU2046
.LBB5755:
 # C:/msys64/ucrt64/include/c++/14.2.0/ostream:229:       { return _M_insert(__f); }
	.loc 11 229 25 is_stmt 0 view .LVU2047
	vmovsd	%xmm6, %xmm6, %xmm1	 # avg_time,
	movq	%rsi, %rcx	 # tmp257,
	call	_ZNSo9_M_insertIdEERSoT_	 #
.LVL540:
	movq	%rax, %rcx	 # tmp295, _85
.LVL541:
	.loc 11 229 25 view .LVU2048
.LBE5755:
.LBE5754:
.LBB5756:
.LBI5756:
	.loc 11 668 5 is_stmt 1 view .LVU2049
.LBB5757:
 # C:/msys64/ucrt64/include/c++/14.2.0/ostream:673: 	__ostream_insert(__out, __s,
	.loc 11 673 18 is_stmt 0 view .LVU2050
	movl	$4, %r8d	 #,
	leaq	.LC16(%rip), %rdx	 #, tmp202
	call	_ZSt16__ostream_insertIcSt11char_traitsIcEERSt13basic_ostreamIT_T0_ES6_PKS3_x	 #
.LVL542:
	.loc 11 673 18 view .LVU2051
.LBE5757:
.LBE5756:
.LBB5758:
.LBI5758:
	.loc 11 668 5 is_stmt 1 view .LVU2052
.LBB5759:
 # C:/msys64/ucrt64/include/c++/14.2.0/ostream:673: 	__ostream_insert(__out, __s,
	.loc 11 673 18 is_stmt 0 view .LVU2053
	movl	$15, %r8d	 #,
	leaq	.LC17(%rip), %rdx	 #, tmp203
	movq	%rsi, %rcx	 # tmp257,
	call	_ZSt16__ostream_insertIcSt11char_traitsIcEERSt13basic_ostreamIT_T0_ES6_PKS3_x	 #
.LVL543:
	.loc 11 673 18 view .LVU2054
.LBE5759:
.LBE5758:
.LBB5760:
.LBI5760:
	.loc 11 228 7 is_stmt 1 view .LVU2055
.LBB5761:
 # C:/msys64/ucrt64/include/c++/14.2.0/ostream:229:       { return _M_insert(__f); }
	.loc 11 229 25 is_stmt 0 view .LVU2056
	vmovsd	%xmm7, %xmm7, %xmm1	 # avg_gflops,
	movq	%rsi, %rcx	 # tmp257,
	call	_ZNSo9_M_insertIdEERSoT_	 #
.LVL544:
	movq	%rax, %rcx	 # tmp296, _86
.LVL545:
	.loc 11 229 25 view .LVU2057
.LBE5761:
.LBE5760:
.LBB5762:
.LBI5762:
	.loc 11 668 5 is_stmt 1 view .LVU2058
.LBB5763:
 # C:/msys64/ucrt64/include/c++/14.2.0/ostream:673: 	__ostream_insert(__out, __s,
	.loc 11 673 18 is_stmt 0 view .LVU2059
	movl	$1, %r8d	 #,
	leaq	.LC1(%rip), %rdx	 #, tmp206
	call	_ZSt16__ostream_insertIcSt11char_traitsIcEERSt13basic_ostreamIT_T0_ES6_PKS3_x	 #
.LVL546:
	.loc 11 673 18 view .LVU2060
.LBE5763:
.LBE5762:
.LBB5764:
.LBI5764:
	.loc 11 668 5 is_stmt 1 view .LVU2061
.LBB5765:
 # C:/msys64/ucrt64/include/c++/14.2.0/ostream:673: 	__ostream_insert(__out, __s,
	.loc 11 673 18 is_stmt 0 view .LVU2062
	movl	$9, %r8d	 #,
	leaq	.LC18(%rip), %rdx	 #, tmp207
	movq	%rsi, %rcx	 # tmp257,
	call	_ZSt16__ostream_insertIcSt11char_traitsIcEERSt13basic_ostreamIT_T0_ES6_PKS3_x	 #
.LVL547:
	.loc 11 673 18 view .LVU2063
.LBE5765:
.LBE5764:
.LBB5766:
.LBI5766:
	.loc 11 228 7 is_stmt 1 view .LVU2064
.LBB5767:
 # C:/msys64/ucrt64/include/c++/14.2.0/ostream:229:       { return _M_insert(__f); }
	.loc 11 229 25 is_stmt 0 view .LVU2065
	vmovsd	(%rbx), %xmm1	 # MEM[(value_type &)iftmp.32_95],
	movq	%rsi, %rcx	 # tmp257,
	call	_ZNSo9_M_insertIdEERSoT_	 #
.LVL548:
	.loc 11 229 25 view .LVU2066
	movq	%rax, %rcx	 # tmp297, _88
.LVL549:
	.loc 11 229 25 view .LVU2067
.LBE5767:
.LBE5766:
.LBB5768:
.LBI5768:
	.loc 11 668 5 is_stmt 1 view .LVU2068
.LBB5769:
 # C:/msys64/ucrt64/include/c++/14.2.0/ostream:673: 	__ostream_insert(__out, __s,
	.loc 11 673 18 is_stmt 0 view .LVU2069
	movl	$2, %r8d	 #,
	leaq	.LC19(%rip), %rdx	 #, tmp211
	call	_ZSt16__ostream_insertIcSt11char_traitsIcEERSt13basic_ostreamIT_T0_ES6_PKS3_x	 #
.LVL550:
.LEHE36:
	.loc 11 673 18 view .LVU2070
.LBE5769:
.LBE5768:
.LBB5770:
.LBB5771:
.LBB5772:
.LBB5773:
.LBB5774:
 # C:/msys64/ucrt64/include/c++/14.2.0/bits/basic_string.h:194: 	: allocator_type(__a), _M_p(__dat) { }
	.loc 15 194 25 discriminator 1 view .LVU2071
	leaq	128(%rsp), %rax	 #, tmp255
	leaq	144(%rsp), %rsi	 #, tmp256
.LBE5774:
.LBE5773:
.LBE5772:
.LBE5771:
.LBE5770:
 # C:\Users\MattsDesktop\ECSE6320P1SIMD\SimdMain.cpp:253:         log_to_csv("saxpy_benchmark.csv", label, n, avg_gflops, avg_time, y[0]);
	.loc 1 253 19 discriminator 1 view .LVU2072
	vmovsd	(%rbx), %xmm11	 # MEM[(value_type &)iftmp.32_95], _5
.LVL551:
.LBB5865:
.LBI5865:
	.loc 13 161 7 is_stmt 1 view .LVU2073
.LBB5866:
.LBI5866:
	.loc 14 88 7 view .LVU2074
	.loc 14 88 7 is_stmt 0 view .LVU2075
.LBE5866:
.LBE5865:
.LBB5867:
.LBI5770:
	.loc 15 646 7 is_stmt 1 view .LVU2076
.LBB5860:
.LBB5781:
.LBI5781:
	.loc 15 232 7 view .LVU2077
	.loc 15 232 7 is_stmt 0 view .LVU2078
.LBE5781:
.LBB5782:
.LBI5772:
	.loc 15 193 2 is_stmt 1 view .LVU2079
.LBB5779:
.LBB5777:
.LBB5775:
.LBI5775:
	.loc 13 165 7 view .LVU2080
.LBB5776:
.LBI5776:
	.loc 14 92 7 view .LVU2081
	.loc 14 92 7 is_stmt 0 view .LVU2082
.LBE5776:
.LBE5775:
 # C:/msys64/ucrt64/include/c++/14.2.0/bits/basic_string.h:194: 	: allocator_type(__a), _M_p(__dat) { }
	.loc 15 194 25 discriminator 1 view .LVU2083
	movq	%rax, 64(%rsp)	 # tmp255, %sfp
.LBE5777:
.LBE5779:
.LBE5782:
.LBB5783:
 # C:/msys64/ucrt64/include/c++/14.2.0/bits/basic_string.h:650: 	if (__s == 0)
	.loc 15 650 2 view .LVU2084
	vmovq	%xmm14, %rax	 # label, label
.LVL552:
	.loc 15 650 2 view .LVU2085
.LBE5783:
.LBB5854:
.LBB5780:
.LBB5778:
 # C:/msys64/ucrt64/include/c++/14.2.0/bits/basic_string.h:194: 	: allocator_type(__a), _M_p(__dat) { }
	.loc 15 194 25 discriminator 1 view .LVU2086
	movq	%rsi, 128(%rsp)	 # tmp256, MEM[(struct _Alloc_hider *)&D.115929]._M_p
.LVL553:
