	.file	"dotpMain.cpp"
 # GNU C++17 (Rev2, Built by MSYS2 project) version 14.2.0 (x86_64-w64-mingw32)
 #	compiled by GNU C version 14.2.0, GMP version 6.3.0, MPFR version 4.2.1, MPC version 1.3.1, isl version isl-0.27-GMP

 # GGC heuristics: --param ggc-min-expand=100 --param ggc-min-heapsize=131072
 # options passed: -mavx2 -mfma -mavx512f -mtune=generic -march=nocona -g -O3 -fno-tree-vectorize
	.text
.Ltext0:
	.cfi_sections	.debug_frame
	.file 0 "c:/msys64/ucrt64/bin" "C:/Users/MattsDesktop/ECSE6320P1SIMD/Project1DotProduct/dotpMain.cpp"
	.p2align 4
	.globl	_Z9dotp_sse2IfEvPKT_S2_yRS0_
	.def	_Z9dotp_sse2IfEvPKT_S2_yRS0_;	.scl	2;	.type	32;	.endef
	.seh_proc	_Z9dotp_sse2IfEvPKT_S2_yRS0_
_Z9dotp_sse2IfEvPKT_S2_yRS0_:
.LVL0:
.LFB10975:
	.file 1 "C:/Users/MattsDesktop/ECSE6320P1SIMD/Project1DotProduct/dotpMain.cpp"
	.loc 1 113 77 view -0
	.cfi_startproc
	.loc 1 113 77 is_stmt 0 view .LVU1
	.seh_endprologue
	.loc 1 114 5 is_stmt 1 view .LVU2
.LVL1:
	.loc 1 115 5 view .LVU3
	.loc 1 116 5 view .LVU4
.LBB3134:
	.loc 1 116 13 discriminator 1 view .LVU5
	cmpq	$3, %r8	 #, n
	jbe	.L6	 #,
	leaq	-4(%r8), %r10	 #, _80
.LBE3134:
 # C:\Users\MattsDesktop\ECSE6320P1SIMD\Project1DotProduct\dotpMain.cpp:114:     __m128 acc=_mm_setzero_ps();
	.loc 1 114 30 is_stmt 0 view .LVU6
	vxorps	%xmm1, %xmm1, %xmm1	 # acc
	movq	%r10, %rax	 # _80, _79
	shrq	$2, %rax	 #, _79
	leaq	4(,%rax,4), %r11	 #, _77
 # C:\Users\MattsDesktop\ECSE6320P1SIMD\Project1DotProduct\dotpMain.cpp:115:     size_t i=0;
	.loc 1 115 12 view .LVU7
	xorl	%eax, %eax	 # i
.LVL2:
	.loc 1 115 12 view .LVU8
	.p2align 5
	.p2align 4
	.p2align 3
.L3:
.LVL3:
.LBB3150:
.LBB3135:
	.loc 1 117 9 is_stmt 1 view .LVU9
.LBB3136:
.LBI3136:
	.loc 1 84 23 view .LVU10
	.loc 1 84 52 view .LVU11
	.loc 1 84 52 is_stmt 0 view .LVU12
.LBE3136:
.LBB3139:
.LBI3139:
	.loc 1 84 23 is_stmt 1 view .LVU13
	.loc 1 84 52 view .LVU14
	.loc 1 84 52 is_stmt 0 view .LVU15
.LBE3139:
	.loc 1 118 9 is_stmt 1 view .LVU16
.LBB3140:
.LBI3140:
	.file 2 "C:/msys64/ucrt64/lib/gcc/x86_64-w64-mingw32/14.2.0/include/xmmintrin.h"
	.loc 2 202 1 view .LVU17
.LBB3141:
	.loc 2 204 3 view .LVU18
	.loc 2 204 3 is_stmt 0 view .LVU19
.LBE3141:
.LBE3140:
.LBB3143:
.LBI3143:
	.loc 2 190 1 is_stmt 1 view .LVU20
.LBB3144:
	.loc 2 192 3 view .LVU21
.LBE3144:
.LBE3143:
.LBB3146:
.LBB3137:
.LBB3138:
 # C:/msys64/ucrt64/lib/gcc/x86_64-w64-mingw32/14.2.0/include/xmmintrin.h:933:   return *(__m128 *)__P;
	.loc 2 933 21 is_stmt 0 view .LVU22
	vmovups	(%rcx,%rax,4), %xmm0	 # MEM[(__m128_u * {ref-all})x_23(D) + i_48 * 4], pretmp_120
.LBE3138:
.LBE3137:
.LBE3146:
.LBB3147:
.LBB3142:
 # C:/msys64/ucrt64/lib/gcc/x86_64-w64-mingw32/14.2.0/include/xmmintrin.h:204:   return (__m128) ((__v4sf)__A * (__v4sf)__B);
	.loc 2 204 45 view .LVU23
	vmulps	(%rdx,%rax,4), %xmm0, %xmm0	 # MEM[(__m128_u * {ref-all})y_24(D) + i_48 * 4], pretmp_120, _30
.LBE3142:
.LBE3147:
.LBE3135:
 # C:\Users\MattsDesktop\ECSE6320P1SIMD\Project1DotProduct\dotpMain.cpp:116:     for(;i+3<n;i+=4){
	.loc 1 116 17 discriminator 2 view .LVU24
	addq	$4, %rax	 #, i
.LVL4:
.LBB3149:
.LBB3148:
.LBB3145:
 # C:/msys64/ucrt64/lib/gcc/x86_64-w64-mingw32/14.2.0/include/xmmintrin.h:192:   return (__m128) ((__v4sf)__A + (__v4sf)__B);
	.loc 2 192 45 view .LVU25
	vaddps	%xmm0, %xmm1, %xmm1	 # _30, acc, acc
.LVL5:
	.loc 2 192 45 view .LVU26
.LBE3145:
.LBE3148:
.LBE3149:
	.loc 1 116 5 is_stmt 1 discriminator 2 view .LVU27
	.loc 1 116 13 discriminator 1 view .LVU28
	cmpq	%r11, %rax	 # _77, i
	jne	.L3	 #,
.LBE3150:
 # C:\Users\MattsDesktop\ECSE6320P1SIMD\Project1DotProduct\dotpMain.cpp:121:     float s=tmp[0]+tmp[1]+tmp[2]+tmp[3];
	.loc 1 121 19 is_stmt 0 view .LVU29
	vshufps	$85, %xmm1, %xmm1, %xmm0	 #, acc, acc, _93
	vaddss	%xmm1, %xmm0, %xmm0	 # _95, _93, _97
 # C:\Users\MattsDesktop\ECSE6320P1SIMD\Project1DotProduct\dotpMain.cpp:121:     float s=tmp[0]+tmp[1]+tmp[2]+tmp[3];
	.loc 1 121 26 view .LVU30
	vunpckhps	%xmm1, %xmm1, %xmm2	 # acc, acc, _99
 # C:\Users\MattsDesktop\ECSE6320P1SIMD\Project1DotProduct\dotpMain.cpp:121:     float s=tmp[0]+tmp[1]+tmp[2]+tmp[3];
	.loc 1 121 11 view .LVU31
	vshufps	$255, %xmm1, %xmm1, %xmm1	 #, acc, acc, _103
.LVL6:
	.loc 1 121 11 view .LVU32
	andq	$-4, %r10	 #, _115
	leaq	4(%r10), %rax	 #, i
.LVL7:
 # C:\Users\MattsDesktop\ECSE6320P1SIMD\Project1DotProduct\dotpMain.cpp:121:     float s=tmp[0]+tmp[1]+tmp[2]+tmp[3];
	.loc 1 121 26 view .LVU33
	vaddss	%xmm2, %xmm0, %xmm0	 # _99, _97, _101
 # C:\Users\MattsDesktop\ECSE6320P1SIMD\Project1DotProduct\dotpMain.cpp:121:     float s=tmp[0]+tmp[1]+tmp[2]+tmp[3];
	.loc 1 121 11 view .LVU34
	vaddss	%xmm1, %xmm0, %xmm0	 # _103, _101, s
.LVL8:
.L2:
	.loc 1 120 5 is_stmt 1 view .LVU35
	.loc 1 120 19 view .LVU36
	.loc 1 121 5 view .LVU37
	.loc 1 122 5 view .LVU38
	.loc 1 122 11 discriminator 1 view .LVU39
	cmpq	%r8, %rax	 # n, i
	jnb	.L4	 #,
.LVL9:
	.loc 1 122 19 discriminator 2 view .LVU40
 # C:\Users\MattsDesktop\ECSE6320P1SIMD\Project1DotProduct\dotpMain.cpp:122:     for(;i<n;++i) s+=x[i]*y[i];
	.loc 1 122 5 is_stmt 0 discriminator 2 view .LVU41
	leaq	1(%rax), %r10	 #, i
 # C:\Users\MattsDesktop\ECSE6320P1SIMD\Project1DotProduct\dotpMain.cpp:122:     for(;i<n;++i) s+=x[i]*y[i];
	.loc 1 122 20 discriminator 2 view .LVU42
	vmovss	(%rdx,%rax,4), %xmm3	 # *_109, tmp155
	vfmadd231ss	(%rcx,%rax,4), %xmm3, %xmm0	 # *_111, tmp155, s
.LVL10:
	.loc 1 122 5 is_stmt 1 discriminator 2 view .LVU43
	.loc 1 122 11 discriminator 1 view .LVU44
	cmpq	%r8, %r10	 # n, i
	jnb	.L4	 #,
	.loc 1 122 19 discriminator 2 view .LVU45
 # C:\Users\MattsDesktop\ECSE6320P1SIMD\Project1DotProduct\dotpMain.cpp:122:     for(;i<n;++i) s+=x[i]*y[i];
	.loc 1 122 5 is_stmt 0 discriminator 2 view .LVU46
	addq	$2, %rax	 #, i
 # C:\Users\MattsDesktop\ECSE6320P1SIMD\Project1DotProduct\dotpMain.cpp:122:     for(;i<n;++i) s+=x[i]*y[i];
	.loc 1 122 20 discriminator 2 view .LVU47
	vmovss	(%rdx,%r10,4), %xmm4	 # *_85, tmp156
	vfmadd231ss	(%rcx,%r10,4), %xmm4, %xmm0	 # *_87, tmp156, s
.LVL11:
	.loc 1 122 5 is_stmt 1 discriminator 2 view .LVU48
	.loc 1 122 11 discriminator 1 view .LVU49
	cmpq	%r8, %rax	 # n, i
	jnb	.L4	 #,
	.loc 1 122 19 discriminator 2 view .LVU50
 # C:\Users\MattsDesktop\ECSE6320P1SIMD\Project1DotProduct\dotpMain.cpp:122:     for(;i<n;++i) s+=x[i]*y[i];
	.loc 1 122 20 is_stmt 0 discriminator 2 view .LVU51
	vmovss	(%rcx,%rax,4), %xmm5	 # *_8, tmp157
	vfmadd231ss	(%rdx,%rax,4), %xmm5, %xmm0	 # *_10, tmp157, s
.LVL12:
	.loc 1 122 5 is_stmt 1 discriminator 2 view .LVU52
	.loc 1 122 11 discriminator 1 view .LVU53
.L4:
	.loc 1 123 5 view .LVU54
 # C:\Users\MattsDesktop\ECSE6320P1SIMD\Project1DotProduct\dotpMain.cpp:123:     out_sum=s;
	.loc 1 123 12 is_stmt 0 view .LVU55
	vmovss	%xmm0, (%r9)	 # s, *out_sum_21(D)
 # C:\Users\MattsDesktop\ECSE6320P1SIMD\Project1DotProduct\dotpMain.cpp:124: }
	.loc 1 124 1 view .LVU56
	ret	
.LVL13:
	.p2align 4,,10
	.p2align 3
.L6:
.LBB3151:
 # C:\Users\MattsDesktop\ECSE6320P1SIMD\Project1DotProduct\dotpMain.cpp:116:     for(;i+3<n;i+=4){
	.loc 1 116 13 discriminator 1 view .LVU57
	vxorps	%xmm0, %xmm0, %xmm0	 # s
.LBE3151:
 # C:\Users\MattsDesktop\ECSE6320P1SIMD\Project1DotProduct\dotpMain.cpp:115:     size_t i=0;
	.loc 1 115 12 view .LVU58
	xorl	%eax, %eax	 # i
	jmp	.L2	 #
	.cfi_endproc
.LFE10975:
	.seh_endproc
	.p2align 4
	.globl	_Z9dotp_sse2IdEvPKT_S2_yRS0_
	.def	_Z9dotp_sse2IdEvPKT_S2_yRS0_;	.scl	2;	.type	32;	.endef
	.seh_proc	_Z9dotp_sse2IdEvPKT_S2_yRS0_
_Z9dotp_sse2IdEvPKT_S2_yRS0_:
.LVL14:
.LFB10976:
	.loc 1 126 81 is_stmt 1 view -0
	.cfi_startproc
	.loc 1 126 81 is_stmt 0 view .LVU60
	.seh_endprologue
	.loc 1 127 5 is_stmt 1 view .LVU61
.LVL15:
	.loc 1 128 5 view .LVU62
	.loc 1 129 5 view .LVU63
.LBB3152:
	.loc 1 129 13 discriminator 1 view .LVU64
	cmpq	$1, %r8	 #, n
	jbe	.L13	 #,
	leaq	-2(%r8), %r11	 #, _64
.LBE3152:
 # C:\Users\MattsDesktop\ECSE6320P1SIMD\Project1DotProduct\dotpMain.cpp:127:     __m128d acc=_mm_setzero_pd();
	.loc 1 127 31 is_stmt 0 view .LVU65
	vxorpd	%xmm1, %xmm1, %xmm1	 # acc
	movq	%r11, %rax	 # _64, _57
	shrq	%rax	 # _57
	leaq	2(%rax,%rax), %r10	 #, _55
 # C:\Users\MattsDesktop\ECSE6320P1SIMD\Project1DotProduct\dotpMain.cpp:128:     size_t i=0;
	.loc 1 128 12 view .LVU66
	xorl	%eax, %eax	 # i
.LVL16:
	.loc 1 128 12 view .LVU67
	.p2align 5
	.p2align 4
	.p2align 3
.L11:
.LVL17:
.LBB3168:
.LBB3153:
	.loc 1 130 9 is_stmt 1 view .LVU68
.LBB3154:
.LBI3154:
	.loc 1 85 23 view .LVU69
	.loc 1 85 52 view .LVU70
	.loc 1 85 52 is_stmt 0 view .LVU71
.LBE3154:
.LBB3157:
.LBI3157:
	.loc 1 85 23 is_stmt 1 view .LVU72
	.loc 1 85 52 view .LVU73
	.loc 1 85 52 is_stmt 0 view .LVU74
.LBE3157:
	.loc 1 131 9 is_stmt 1 view .LVU75
.LBB3158:
.LBI3158:
	.file 3 "C:/msys64/ucrt64/lib/gcc/x86_64-w64-mingw32/14.2.0/include/emmintrin.h"
	.loc 3 273 1 view .LVU76
.LBB3159:
	.loc 3 275 3 view .LVU77
	.loc 3 275 3 is_stmt 0 view .LVU78
.LBE3159:
.LBE3158:
.LBB3161:
.LBI3161:
	.loc 3 249 1 is_stmt 1 view .LVU79
.LBB3162:
	.loc 3 251 3 view .LVU80
.LBE3162:
.LBE3161:
.LBB3164:
.LBB3155:
.LBB3156:
 # C:/msys64/ucrt64/lib/gcc/x86_64-w64-mingw32/14.2.0/include/emmintrin.h:127:   return *(__m128d *)__P;
	.loc 3 127 22 is_stmt 0 view .LVU81
	vmovupd	(%rcx,%rax,8), %xmm0	 # MEM[(__m128d_u * {ref-all})x_21(D) + i_6 * 8], pretmp_69
.LBE3156:
.LBE3155:
.LBE3164:
.LBB3165:
.LBB3160:
 # C:/msys64/ucrt64/lib/gcc/x86_64-w64-mingw32/14.2.0/include/emmintrin.h:275:   return (__m128d) ((__v2df)__A * (__v2df)__B);
	.loc 3 275 46 view .LVU82
	vmulpd	(%rdx,%rax,8), %xmm0, %xmm0	 # MEM[(__m128d_u * {ref-all})y_22(D) + i_6 * 8], pretmp_69, _26
.LBE3160:
.LBE3165:
.LBE3153:
 # C:\Users\MattsDesktop\ECSE6320P1SIMD\Project1DotProduct\dotpMain.cpp:129:     for(;i+1<n;i+=2){
	.loc 1 129 17 discriminator 2 view .LVU83
	addq	$2, %rax	 #, i
.LVL18:
.LBB3167:
.LBB3166:
.LBB3163:
 # C:/msys64/ucrt64/lib/gcc/x86_64-w64-mingw32/14.2.0/include/emmintrin.h:251:   return (__m128d) ((__v2df)__A + (__v2df)__B);
	.loc 3 251 46 view .LVU84
	vaddpd	%xmm0, %xmm1, %xmm1	 # _26, acc, acc
.LVL19:
	.loc 3 251 46 view .LVU85
.LBE3163:
.LBE3166:
.LBE3167:
	.loc 1 129 5 is_stmt 1 discriminator 2 view .LVU86
	.loc 1 129 13 discriminator 1 view .LVU87
	cmpq	%r10, %rax	 # _55, i
	jne	.L11	 #,
.LBE3168:
 # C:\Users\MattsDesktop\ECSE6320P1SIMD\Project1DotProduct\dotpMain.cpp:134:     double s=tmp[0]+tmp[1];
	.loc 1 134 12 is_stmt 0 view .LVU88
	vunpckhpd	%xmm1, %xmm1, %xmm0	 # acc, _58
	andq	$-2, %r11	 #, _65
	vaddsd	%xmm1, %xmm0, %xmm0	 # _60, _58, s
	leaq	2(%r11), %rax	 #, i
.LVL20:
.L10:
	.loc 1 133 5 is_stmt 1 view .LVU89
	.loc 1 133 20 view .LVU90
	.loc 1 134 5 view .LVU91
	.loc 1 135 5 view .LVU92
	.loc 1 135 11 discriminator 1 view .LVU93
	cmpq	%r8, %rax	 # n, i
	jnb	.L12	 #,
	.loc 1 135 19 discriminator 2 view .LVU94
 # C:\Users\MattsDesktop\ECSE6320P1SIMD\Project1DotProduct\dotpMain.cpp:135:     for(;i<n;++i) s+=x[i]*y[i];
	.loc 1 135 20 is_stmt 0 discriminator 2 view .LVU95
	vmovsd	(%rcx,%rax,8), %xmm2	 # *_39, tmp135
	vfmadd231sd	(%rdx,%rax,8), %xmm2, %xmm0	 # *_41, tmp135, s
.LVL21:
	.loc 1 135 5 is_stmt 1 discriminator 2 view .LVU96
	.loc 1 135 11 discriminator 1 view .LVU97
.L12:
	.loc 1 136 5 view .LVU98
 # C:\Users\MattsDesktop\ECSE6320P1SIMD\Project1DotProduct\dotpMain.cpp:136:     out_sum=s;
	.loc 1 136 12 is_stmt 0 view .LVU99
	vmovsd	%xmm0, (%r9)	 # s, *out_sum_19(D)
 # C:\Users\MattsDesktop\ECSE6320P1SIMD\Project1DotProduct\dotpMain.cpp:137: }
	.loc 1 137 1 view .LVU100
	ret	
.LVL22:
	.p2align 4,,10
	.p2align 3
.L13:
.LBB3169:
 # C:\Users\MattsDesktop\ECSE6320P1SIMD\Project1DotProduct\dotpMain.cpp:129:     for(;i+1<n;i+=2){
	.loc 1 129 13 discriminator 1 view .LVU101
	vxorpd	%xmm0, %xmm0, %xmm0	 # s
.LBE3169:
 # C:\Users\MattsDesktop\ECSE6320P1SIMD\Project1DotProduct\dotpMain.cpp:128:     size_t i=0;
	.loc 1 128 12 view .LVU102
	xorl	%eax, %eax	 # i
	jmp	.L10	 #
	.cfi_endproc
.LFE10976:
	.seh_endproc
	.p2align 4
	.globl	_Z8dotp_avxIfEvPKT_S2_yRS0_
	.def	_Z8dotp_avxIfEvPKT_S2_yRS0_;	.scl	2;	.type	32;	.endef
	.seh_proc	_Z8dotp_avxIfEvPKT_S2_yRS0_
_Z8dotp_avxIfEvPKT_S2_yRS0_:
.LVL23:
.LFB10978:
	.loc 1 149 79 is_stmt 1 view -0
	.cfi_startproc
	.loc 1 149 79 is_stmt 0 view .LVU104
	.seh_endprologue
	.loc 1 150 5 is_stmt 1 view .LVU105
.LVL24:
	.loc 1 151 5 view .LVU106
	.loc 1 152 5 view .LVU107
.LBB3170:
	.loc 1 152 14 discriminator 1 view .LVU108
	cmpq	$7, %r8	 #, n
	jbe	.L20	 #,
	leaq	-8(%r8), %r10	 #, _79
.LBE3170:
 # C:\Users\MattsDesktop\ECSE6320P1SIMD\Project1DotProduct\dotpMain.cpp:150:     __m256 acc=_mm256_setzero_ps();
	.loc 1 150 33 is_stmt 0 view .LVU109
	vxorps	%xmm0, %xmm0, %xmm0	 # acc
	movq	%r10, %rax	 # _79, _75
	shrq	$3, %rax	 #, _75
	leaq	8(,%rax,8), %r11	 #, _53
 # C:\Users\MattsDesktop\ECSE6320P1SIMD\Project1DotProduct\dotpMain.cpp:151:     size_t i=0;
	.loc 1 151 12 view .LVU110
	xorl	%eax, %eax	 # i
.LVL25:
	.loc 1 151 12 view .LVU111
	.p2align 5
	.p2align 4
	.p2align 3
.L17:
.LVL26:
.LBB3186:
.LBB3171:
	.loc 1 153 9 is_stmt 1 view .LVU112
.LBB3172:
.LBI3172:
	.loc 1 87 23 view .LVU113
	.loc 1 87 52 view .LVU114
	.loc 1 87 52 is_stmt 0 view .LVU115
.LBE3172:
.LBB3175:
.LBI3175:
	.loc 1 87 23 is_stmt 1 view .LVU116
	.loc 1 87 52 view .LVU117
	.loc 1 87 52 is_stmt 0 view .LVU118
.LBE3175:
	.loc 1 154 9 is_stmt 1 view .LVU119
.LBB3176:
.LBI3176:
	.file 4 "C:/msys64/ucrt64/lib/gcc/x86_64-w64-mingw32/14.2.0/include/avxintrin.h"
	.loc 4 318 1 view .LVU120
.LBB3177:
	.loc 4 320 3 view .LVU121
	.loc 4 320 3 is_stmt 0 view .LVU122
.LBE3177:
.LBE3176:
.LBB3179:
.LBI3179:
	.loc 4 147 1 is_stmt 1 view .LVU123
.LBB3180:
	.loc 4 149 3 view .LVU124
.LBE3180:
.LBE3179:
.LBB3182:
.LBB3173:
.LBB3174:
 # C:/msys64/ucrt64/lib/gcc/x86_64-w64-mingw32/14.2.0/include/avxintrin.h:881:   return *(__m256 *)__P;
	.loc 4 881 10 is_stmt 0 view .LVU125
	vmovups	(%rcx,%rax,4), %ymm1	 # MEM[(__m256_u * {ref-all})x_24(D) + i_50 * 4], pretmp_83
.LBE3174:
.LBE3173:
.LBE3182:
.LBB3183:
.LBB3178:
 # C:/msys64/ucrt64/lib/gcc/x86_64-w64-mingw32/14.2.0/include/avxintrin.h:320:   return (__m256) ((__v8sf)__A * (__v8sf)__B);
	.loc 4 320 10 view .LVU126
	vmulps	(%rdx,%rax,4), %ymm1, %ymm1	 # MEM[(__m256_u * {ref-all})y_25(D) + i_50 * 4], pretmp_83, _31
.LBE3178:
.LBE3183:
.LBE3171:
 # C:\Users\MattsDesktop\ECSE6320P1SIMD\Project1DotProduct\dotpMain.cpp:152:     for(; i+7<n; i+=8){
	.loc 1 152 19 discriminator 2 view .LVU127
	addq	$8, %rax	 #, i
.LVL27:
.LBB3185:
.LBB3184:
.LBB3181:
 # C:/msys64/ucrt64/lib/gcc/x86_64-w64-mingw32/14.2.0/include/avxintrin.h:149:   return (__m256) ((__v8sf)__A + (__v8sf)__B);
	.loc 4 149 10 view .LVU128
	vaddps	%ymm1, %ymm0, %ymm0	 # _31, acc, acc
.LVL28:
	.loc 4 149 10 view .LVU129
.LBE3181:
.LBE3184:
.LBE3185:
	.loc 1 152 5 is_stmt 1 discriminator 2 view .LVU130
	.loc 1 152 14 discriminator 1 view .LVU131
	cmpq	%r11, %rax	 # _53, i
	jne	.L17	 #,
	andq	$-8, %r10	 #, _76
	leaq	8(%r10), %rax	 #, i
.LVL29:
.L16:
	.loc 1 152 14 is_stmt 0 discriminator 1 view .LVU132
.LBE3186:
	.loc 1 156 5 is_stmt 1 view .LVU133
	.loc 1 156 19 view .LVU134
	.loc 1 157 5 view .LVU135
	.loc 1 157 16 view .LVU136
.LBB3187:
	.loc 1 157 29 discriminator 1 view .LVU137
	.loc 1 157 37 discriminator 3 view .LVU138
 # C:\Users\MattsDesktop\ECSE6320P1SIMD\Project1DotProduct\dotpMain.cpp:157:     float s=0; for(int t=0;t<8;++t) s+=tmp[t];
	.loc 1 157 38 is_stmt 0 discriminator 3 view .LVU139
	vxorps	%xmm3, %xmm3, %xmm3	 # tmp178
	vshufps	$255, %xmm0, %xmm0, %xmm1	 #, tmp177, tmp177, _2
	vaddss	%xmm3, %xmm0, %xmm2	 # tmp178, _126, s
.LVL30:
	.loc 1 157 16 is_stmt 1 discriminator 3 view .LVU140
	.loc 1 157 29 discriminator 1 view .LVU141
	.loc 1 157 37 discriminator 3 view .LVU142
 # C:\Users\MattsDesktop\ECSE6320P1SIMD\Project1DotProduct\dotpMain.cpp:157:     float s=0; for(int t=0;t<8;++t) s+=tmp[t];
	.loc 1 157 38 is_stmt 0 discriminator 3 view .LVU143
	vshufps	$85, %xmm0, %xmm0, %xmm3	 #, tmp177, tmp177, _140
	vaddss	%xmm2, %xmm3, %xmm3	 # s, _140, s
.LVL31:
	.loc 1 157 16 is_stmt 1 discriminator 3 view .LVU144
	.loc 1 157 29 discriminator 1 view .LVU145
	.loc 1 157 37 discriminator 3 view .LVU146
 # C:\Users\MattsDesktop\ECSE6320P1SIMD\Project1DotProduct\dotpMain.cpp:157:     float s=0; for(int t=0;t<8;++t) s+=tmp[t];
	.loc 1 157 38 is_stmt 0 discriminator 3 view .LVU147
	vunpckhps	%xmm0, %xmm0, %xmm2	 # tmp177, tmp177, _35
	vextractf128	$0x1, %ymm0, %xmm0	 # acc, tmp186
	vaddss	%xmm3, %xmm2, %xmm2	 # s, _35, s
.LVL32:
	.loc 1 157 16 is_stmt 1 discriminator 3 view .LVU148
	.loc 1 157 29 discriminator 1 view .LVU149
	.loc 1 157 37 discriminator 3 view .LVU150
 # C:\Users\MattsDesktop\ECSE6320P1SIMD\Project1DotProduct\dotpMain.cpp:157:     float s=0; for(int t=0;t<8;++t) s+=tmp[t];
	.loc 1 157 38 is_stmt 0 discriminator 3 view .LVU151
	vaddss	%xmm2, %xmm1, %xmm1	 # s, _2, s
.LVL33:
	.loc 1 157 16 is_stmt 1 discriminator 3 view .LVU152
	.loc 1 157 29 discriminator 1 view .LVU153
	.loc 1 157 37 discriminator 3 view .LVU154
 # C:\Users\MattsDesktop\ECSE6320P1SIMD\Project1DotProduct\dotpMain.cpp:157:     float s=0; for(int t=0;t<8;++t) s+=tmp[t];
	.loc 1 157 38 is_stmt 0 discriminator 3 view .LVU155
	vshufps	$85, %xmm0, %xmm0, %xmm2	 #, tmp186, tmp186, _149
	vaddss	%xmm1, %xmm0, %xmm1	 # s, _81, s
.LVL34:
	.loc 1 157 16 is_stmt 1 discriminator 3 view .LVU156
	.loc 1 157 29 discriminator 1 view .LVU157
	.loc 1 157 37 discriminator 3 view .LVU158
 # C:\Users\MattsDesktop\ECSE6320P1SIMD\Project1DotProduct\dotpMain.cpp:157:     float s=0; for(int t=0;t<8;++t) s+=tmp[t];
	.loc 1 157 38 is_stmt 0 discriminator 3 view .LVU159
	vaddss	%xmm1, %xmm2, %xmm2	 # s, _149, s
.LVL35:
	.loc 1 157 16 is_stmt 1 discriminator 3 view .LVU160
	.loc 1 157 29 discriminator 1 view .LVU161
	.loc 1 157 37 discriminator 3 view .LVU162
 # C:\Users\MattsDesktop\ECSE6320P1SIMD\Project1DotProduct\dotpMain.cpp:157:     float s=0; for(int t=0;t<8;++t) s+=tmp[t];
	.loc 1 157 38 is_stmt 0 discriminator 3 view .LVU163
	vunpckhps	%xmm0, %xmm0, %xmm1	 # tmp186, tmp186, _143
	vshufps	$255, %xmm0, %xmm0, %xmm0	 #, tmp186, tmp186, _141
	vaddss	%xmm2, %xmm1, %xmm1	 # s, _143, s
.LVL36:
	.loc 1 157 16 is_stmt 1 discriminator 3 view .LVU164
	.loc 1 157 29 discriminator 1 view .LVU165
	.loc 1 157 37 discriminator 3 view .LVU166
 # C:\Users\MattsDesktop\ECSE6320P1SIMD\Project1DotProduct\dotpMain.cpp:157:     float s=0; for(int t=0;t<8;++t) s+=tmp[t];
	.loc 1 157 38 is_stmt 0 discriminator 3 view .LVU167
	vaddss	%xmm1, %xmm0, %xmm0	 # s, _141, s
.LVL37:
	.loc 1 157 16 is_stmt 1 discriminator 3 view .LVU168
	.loc 1 157 29 discriminator 1 view .LVU169
	.loc 1 157 29 is_stmt 0 discriminator 1 view .LVU170
.LBE3187:
	.loc 1 158 11 is_stmt 1 discriminator 1 view .LVU171
	cmpq	%r8, %rax	 # n, i
	jnb	.L18	 #,
	.loc 1 158 19 discriminator 2 view .LVU172
 # C:\Users\MattsDesktop\ECSE6320P1SIMD\Project1DotProduct\dotpMain.cpp:158:     for(;i<n;++i) s+=x[i]*y[i];
	.loc 1 158 5 is_stmt 0 discriminator 2 view .LVU173
	leaq	1(%rax), %r10	 #, i
 # C:\Users\MattsDesktop\ECSE6320P1SIMD\Project1DotProduct\dotpMain.cpp:158:     for(;i<n;++i) s+=x[i]*y[i];
	.loc 1 158 20 discriminator 2 view .LVU174
	vmovss	(%rdx,%rax,4), %xmm4	 # *_68, tmp199
	vfmadd231ss	(%rcx,%rax,4), %xmm4, %xmm0	 # *_70, tmp199, s
.LVL38:
	.loc 1 158 5 is_stmt 1 discriminator 2 view .LVU175
	.loc 1 158 11 discriminator 1 view .LVU176
	cmpq	%r8, %r10	 # n, i
	jnb	.L18	 #,
	.loc 1 158 19 discriminator 2 view .LVU177
 # C:\Users\MattsDesktop\ECSE6320P1SIMD\Project1DotProduct\dotpMain.cpp:158:     for(;i<n;++i) s+=x[i]*y[i];
	.loc 1 158 20 is_stmt 0 discriminator 2 view .LVU178
	vmovss	(%rdx,%r10,4), %xmm5	 # *_58, tmp200
	vfmadd231ss	(%rcx,%r10,4), %xmm5, %xmm0	 # *_60, tmp200, s
.LVL39:
	.loc 1 158 5 is_stmt 1 discriminator 2 view .LVU179
	leaq	2(%rax), %r10	 #, i
.LVL40:
	.loc 1 158 11 discriminator 1 view .LVU180
	cmpq	%r8, %r10	 # n, i
	jnb	.L18	 #,
	.loc 1 158 19 discriminator 2 view .LVU181
 # C:\Users\MattsDesktop\ECSE6320P1SIMD\Project1DotProduct\dotpMain.cpp:158:     for(;i<n;++i) s+=x[i]*y[i];
	.loc 1 158 20 is_stmt 0 discriminator 2 view .LVU182
	vmovss	(%rdx,%r10,4), %xmm5	 # *_15, tmp201
	vfmadd231ss	(%rcx,%r10,4), %xmm5, %xmm0	 # *_17, tmp201, s
.LVL41:
	.loc 1 158 5 is_stmt 1 discriminator 2 view .LVU183
	leaq	3(%rax), %r10	 #, i
.LVL42:
	.loc 1 158 11 discriminator 1 view .LVU184
	cmpq	%r8, %r10	 # n, i
	jnb	.L18	 #,
	.loc 1 158 19 discriminator 2 view .LVU185
 # C:\Users\MattsDesktop\ECSE6320P1SIMD\Project1DotProduct\dotpMain.cpp:158:     for(;i<n;++i) s+=x[i]*y[i];
	.loc 1 158 20 is_stmt 0 discriminator 2 view .LVU186
	vmovss	(%rdx,%r10,4), %xmm4	 # *_30, tmp202
	vfmadd231ss	(%rcx,%r10,4), %xmm4, %xmm0	 # *_36, tmp202, s
.LVL43:
	.loc 1 158 5 is_stmt 1 discriminator 2 view .LVU187
	leaq	4(%rax), %r10	 #, i
.LVL44:
	.loc 1 158 11 discriminator 1 view .LVU188
	cmpq	%r8, %r10	 # n, i
	jnb	.L18	 #,
	.loc 1 158 19 discriminator 2 view .LVU189
 # C:\Users\MattsDesktop\ECSE6320P1SIMD\Project1DotProduct\dotpMain.cpp:158:     for(;i<n;++i) s+=x[i]*y[i];
	.loc 1 158 20 is_stmt 0 discriminator 2 view .LVU190
	vmovss	(%rcx,%r10,4), %xmm5	 # *_89, tmp203
	vfmadd231ss	(%rdx,%r10,4), %xmm5, %xmm0	 # *_91, tmp203, s
.LVL45:
	.loc 1 158 5 is_stmt 1 discriminator 2 view .LVU191
	leaq	5(%rax), %r10	 #, i
.LVL46:
	.loc 1 158 11 discriminator 1 view .LVU192
	cmpq	%r8, %r10	 # n, i
	jnb	.L18	 #,
	.loc 1 158 19 discriminator 2 view .LVU193
 # C:\Users\MattsDesktop\ECSE6320P1SIMD\Project1DotProduct\dotpMain.cpp:158:     for(;i<n;++i) s+=x[i]*y[i];
	.loc 1 158 5 is_stmt 0 discriminator 2 view .LVU194
	addq	$6, %rax	 #, i
 # C:\Users\MattsDesktop\ECSE6320P1SIMD\Project1DotProduct\dotpMain.cpp:158:     for(;i<n;++i) s+=x[i]*y[i];
	.loc 1 158 20 discriminator 2 view .LVU195
	vmovss	(%rcx,%r10,4), %xmm4	 # *_99, tmp204
	vfmadd231ss	(%rdx,%r10,4), %xmm4, %xmm0	 # *_101, tmp204, s
.LVL47:
	.loc 1 158 5 is_stmt 1 discriminator 2 view .LVU196
	.loc 1 158 11 discriminator 1 view .LVU197
	cmpq	%r8, %rax	 # n, i
	jnb	.L18	 #,
	.loc 1 158 19 discriminator 2 view .LVU198
 # C:\Users\MattsDesktop\ECSE6320P1SIMD\Project1DotProduct\dotpMain.cpp:158:     for(;i<n;++i) s+=x[i]*y[i];
	.loc 1 158 20 is_stmt 0 discriminator 2 view .LVU199
	vmovss	(%rcx,%rax,4), %xmm4	 # *_7, tmp205
	vfmadd231ss	(%rdx,%rax,4), %xmm4, %xmm0	 # *_9, tmp205, s
.LVL48:
	.loc 1 158 5 is_stmt 1 discriminator 2 view .LVU200
	.loc 1 158 11 discriminator 1 view .LVU201
.L18:
	.loc 1 159 5 view .LVU202
 # C:\Users\MattsDesktop\ECSE6320P1SIMD\Project1DotProduct\dotpMain.cpp:159:     out_sum=s;
	.loc 1 159 12 is_stmt 0 view .LVU203
	vmovss	%xmm0, (%r9)	 # s, *out_sum_21(D)
	vzeroupper
.LVL49:
 # C:\Users\MattsDesktop\ECSE6320P1SIMD\Project1DotProduct\dotpMain.cpp:160: }
	.loc 1 160 1 view .LVU204
	ret	
.LVL50:
	.p2align 4,,10
	.p2align 3
.L20:
 # C:\Users\MattsDesktop\ECSE6320P1SIMD\Project1DotProduct\dotpMain.cpp:151:     size_t i=0;
	.loc 1 151 12 view .LVU205
	xorl	%eax, %eax	 # i
 # C:\Users\MattsDesktop\ECSE6320P1SIMD\Project1DotProduct\dotpMain.cpp:150:     __m256 acc=_mm256_setzero_ps();
	.loc 1 150 33 view .LVU206
	vxorps	%xmm0, %xmm0, %xmm0	 # acc
	jmp	.L16	 #
	.cfi_endproc
.LFE10978:
	.seh_endproc
	.p2align 4
	.globl	_Z8dotp_avxIdEvPKT_S2_yRS0_
	.def	_Z8dotp_avxIdEvPKT_S2_yRS0_;	.scl	2;	.type	32;	.endef
	.seh_proc	_Z8dotp_avxIdEvPKT_S2_yRS0_
_Z8dotp_avxIdEvPKT_S2_yRS0_:
.LVL51:
.LFB10979:
	.loc 1 162 80 is_stmt 1 view -0
	.cfi_startproc
	.loc 1 162 80 is_stmt 0 view .LVU208
	.seh_endprologue
	.loc 1 163 5 is_stmt 1 view .LVU209
.LVL52:
	.loc 1 164 5 view .LVU210
	.loc 1 165 5 view .LVU211
.LBB3188:
	.loc 1 165 13 discriminator 1 view .LVU212
	cmpq	$3, %r8	 #, n
	jbe	.L27	 #,
	leaq	-4(%r8), %r10	 #, _85
.LBE3188:
 # C:\Users\MattsDesktop\ECSE6320P1SIMD\Project1DotProduct\dotpMain.cpp:163:     __m256d acc=_mm256_setzero_pd();
	.loc 1 163 34 is_stmt 0 view .LVU213
	vxorpd	%xmm1, %xmm1, %xmm1	 # acc
	movq	%r10, %rax	 # _85, _84
	shrq	$2, %rax	 #, _84
	leaq	4(,%rax,4), %r11	 #, _82
 # C:\Users\MattsDesktop\ECSE6320P1SIMD\Project1DotProduct\dotpMain.cpp:164:     size_t i=0;
	.loc 1 164 12 view .LVU214
	xorl	%eax, %eax	 # i
.LVL53:
	.loc 1 164 12 view .LVU215
	.p2align 5
	.p2align 4
	.p2align 3
.L24:
.LVL54:
.LBB3204:
.LBB3189:
	.loc 1 166 9 is_stmt 1 view .LVU216
.LBB3190:
.LBI3190:
	.loc 1 88 23 view .LVU217
	.loc 1 88 52 view .LVU218
	.loc 1 88 52 is_stmt 0 view .LVU219
.LBE3190:
.LBB3193:
.LBI3193:
	.loc 1 88 23 is_stmt 1 view .LVU220
	.loc 1 88 52 view .LVU221
	.loc 1 88 52 is_stmt 0 view .LVU222
.LBE3193:
	.loc 1 167 9 is_stmt 1 view .LVU223
.LBB3194:
.LBI3194:
	.loc 4 312 1 view .LVU224
.LBB3195:
	.loc 4 314 3 view .LVU225
	.loc 4 314 3 is_stmt 0 view .LVU226
.LBE3195:
.LBE3194:
.LBB3197:
.LBI3197:
	.loc 4 141 1 is_stmt 1 view .LVU227
.LBB3198:
	.loc 4 143 3 view .LVU228
.LBE3198:
.LBE3197:
.LBB3200:
.LBB3191:
.LBB3192:
 # C:/msys64/ucrt64/lib/gcc/x86_64-w64-mingw32/14.2.0/include/avxintrin.h:869:   return *(__m256d *)__P;
	.loc 4 869 10 is_stmt 0 view .LVU229
	vmovupd	(%rcx,%rax,8), %ymm0	 # MEM[(__m256d_u * {ref-all})x_24(D) + i_52 * 8], pretmp_127
.LBE3192:
.LBE3191:
.LBE3200:
.LBB3201:
.LBB3196:
 # C:/msys64/ucrt64/lib/gcc/x86_64-w64-mingw32/14.2.0/include/avxintrin.h:314:   return (__m256d) ((__v4df)__A * (__v4df)__B);
	.loc 4 314 10 view .LVU230
	vmulpd	(%rdx,%rax,8), %ymm0, %ymm0	 # MEM[(__m256d_u * {ref-all})y_25(D) + i_52 * 8], pretmp_127, _31
.LBE3196:
.LBE3201:
.LBE3189:
 # C:\Users\MattsDesktop\ECSE6320P1SIMD\Project1DotProduct\dotpMain.cpp:165:     for(;i+3<n;i+=4){
	.loc 1 165 17 discriminator 2 view .LVU231
	addq	$4, %rax	 #, i
.LVL55:
.LBB3203:
.LBB3202:
.LBB3199:
 # C:/msys64/ucrt64/lib/gcc/x86_64-w64-mingw32/14.2.0/include/avxintrin.h:143:   return (__m256d) ((__v4df)__A + (__v4df)__B);
	.loc 4 143 10 view .LVU232
	vaddpd	%ymm0, %ymm1, %ymm1	 # _31, acc, acc
.LVL56:
	.loc 4 143 10 view .LVU233
.LBE3199:
.LBE3202:
.LBE3203:
	.loc 1 165 5 is_stmt 1 discriminator 2 view .LVU234
	.loc 1 165 13 discriminator 1 view .LVU235
	cmpq	%r11, %rax	 # _82, i
	jne	.L24	 #,
.LBE3204:
.LBB3205:
 # C:\Users\MattsDesktop\ECSE6320P1SIMD\Project1DotProduct\dotpMain.cpp:170:     double s=0; for(int t=0;t<4;++t) s+=tmp[t];
	.loc 1 170 39 is_stmt 0 discriminator 3 view .LVU236
	vxorpd	%xmm3, %xmm3, %xmm3	 # tmp147
	vunpckhpd	%xmm1, %xmm1, %xmm2	 # tmp145, _98
	andq	$-4, %r10	 #, _122
	vaddsd	%xmm3, %xmm1, %xmm0	 # tmp147, _100, _102
	vextractf128	$0x1, %ymm1, %xmm1	 # acc, tmp152
.LVL57:
	.loc 1 170 39 discriminator 3 view .LVU237
	leaq	4(%r10), %rax	 #, i
.LVL58:
	.loc 1 170 39 discriminator 3 view .LVU238
	vaddsd	%xmm2, %xmm0, %xmm0	 # _98, _102, _104
	vaddsd	%xmm1, %xmm0, %xmm0	 # _106, _104, _108
	vunpckhpd	%xmm1, %xmm1, %xmm1	 # tmp152, _110
	vaddsd	%xmm1, %xmm0, %xmm0	 # _110, _108, s
	vzeroupper
.LVL59:
.L23:
	.loc 1 170 39 discriminator 3 view .LVU239
.LBE3205:
	.loc 1 169 5 is_stmt 1 view .LVU240
	.loc 1 169 20 view .LVU241
	.loc 1 170 5 view .LVU242
	.loc 1 170 17 view .LVU243
.LBB3206:
	.loc 1 170 30 discriminator 1 view .LVU244
	.loc 1 170 38 discriminator 3 view .LVU245
	.loc 1 170 17 discriminator 3 view .LVU246
	.loc 1 170 30 discriminator 1 view .LVU247
	.loc 1 170 38 discriminator 3 view .LVU248
	.loc 1 170 17 discriminator 3 view .LVU249
	.loc 1 170 30 discriminator 1 view .LVU250
	.loc 1 170 38 discriminator 3 view .LVU251
	.loc 1 170 17 discriminator 3 view .LVU252
	.loc 1 170 30 discriminator 1 view .LVU253
	.loc 1 170 38 discriminator 3 view .LVU254
	.loc 1 170 17 discriminator 3 view .LVU255
	.loc 1 170 30 discriminator 1 view .LVU256
	.loc 1 170 30 is_stmt 0 discriminator 1 view .LVU257
.LBE3206:
	.loc 1 171 11 is_stmt 1 discriminator 1 view .LVU258
	cmpq	%r8, %rax	 # n, i
	jnb	.L25	 #,
.LVL60:
	.loc 1 171 19 discriminator 2 view .LVU259
 # C:\Users\MattsDesktop\ECSE6320P1SIMD\Project1DotProduct\dotpMain.cpp:171:     for(;i<n;++i) s+=x[i]*y[i];
	.loc 1 171 5 is_stmt 0 discriminator 2 view .LVU260
	leaq	1(%rax), %r10	 #, i
 # C:\Users\MattsDesktop\ECSE6320P1SIMD\Project1DotProduct\dotpMain.cpp:171:     for(;i<n;++i) s+=x[i]*y[i];
	.loc 1 171 20 discriminator 2 view .LVU261
	vmovsd	(%rdx,%rax,8), %xmm4	 # *_116, tmp162
	vfmadd231sd	(%rcx,%rax,8), %xmm4, %xmm0	 # *_118, tmp162, s
.LVL61:
	.loc 1 171 5 is_stmt 1 discriminator 2 view .LVU262
	.loc 1 171 11 discriminator 1 view .LVU263
	cmpq	%r8, %r10	 # n, i
	jnb	.L25	 #,
	.loc 1 171 19 discriminator 2 view .LVU264
 # C:\Users\MattsDesktop\ECSE6320P1SIMD\Project1DotProduct\dotpMain.cpp:171:     for(;i<n;++i) s+=x[i]*y[i];
	.loc 1 171 5 is_stmt 0 discriminator 2 view .LVU265
	addq	$2, %rax	 #, i
 # C:\Users\MattsDesktop\ECSE6320P1SIMD\Project1DotProduct\dotpMain.cpp:171:     for(;i<n;++i) s+=x[i]*y[i];
	.loc 1 171 20 discriminator 2 view .LVU266
	vmovsd	(%rdx,%r10,8), %xmm5	 # *_90, tmp163
	vfmadd231sd	(%rcx,%r10,8), %xmm5, %xmm0	 # *_92, tmp163, s
.LVL62:
	.loc 1 171 5 is_stmt 1 discriminator 2 view .LVU267
	.loc 1 171 11 discriminator 1 view .LVU268
	cmpq	%r8, %rax	 # n, i
	jnb	.L25	 #,
	.loc 1 171 19 discriminator 2 view .LVU269
 # C:\Users\MattsDesktop\ECSE6320P1SIMD\Project1DotProduct\dotpMain.cpp:171:     for(;i<n;++i) s+=x[i]*y[i];
	.loc 1 171 20 is_stmt 0 discriminator 2 view .LVU270
	vmovsd	(%rcx,%rax,8), %xmm5	 # *_7, tmp164
	vfmadd231sd	(%rdx,%rax,8), %xmm5, %xmm0	 # *_9, tmp164, s
.LVL63:
	.loc 1 171 5 is_stmt 1 discriminator 2 view .LVU271
	.loc 1 171 11 discriminator 1 view .LVU272
.L25:
	.loc 1 172 5 view .LVU273
 # C:\Users\MattsDesktop\ECSE6320P1SIMD\Project1DotProduct\dotpMain.cpp:172:     out_sum=s;
	.loc 1 172 12 is_stmt 0 view .LVU274
	vmovsd	%xmm0, (%r9)	 # s, *out_sum_21(D)
 # C:\Users\MattsDesktop\ECSE6320P1SIMD\Project1DotProduct\dotpMain.cpp:173: }
	.loc 1 173 1 view .LVU275
	ret	
.LVL64:
	.p2align 4,,10
	.p2align 3
.L27:
.LBB3207:
 # C:\Users\MattsDesktop\ECSE6320P1SIMD\Project1DotProduct\dotpMain.cpp:165:     for(;i+3<n;i+=4){
	.loc 1 165 13 discriminator 1 view .LVU276
	vxorpd	%xmm0, %xmm0, %xmm0	 # s
.LBE3207:
 # C:\Users\MattsDesktop\ECSE6320P1SIMD\Project1DotProduct\dotpMain.cpp:164:     size_t i=0;
	.loc 1 164 12 view .LVU277
	xorl	%eax, %eax	 # i
	jmp	.L23	 #
	.cfi_endproc
.LFE10979:
	.seh_endproc
	.p2align 4
	.globl	_Z11dotp_avx512IfEvPKT_S2_yRS0_
	.def	_Z11dotp_avx512IfEvPKT_S2_yRS0_;	.scl	2;	.type	32;	.endef
	.seh_proc	_Z11dotp_avx512IfEvPKT_S2_yRS0_
_Z11dotp_avx512IfEvPKT_S2_yRS0_:
.LVL65:
.LFB10981:
	.loc 1 185 79 is_stmt 1 view -0
	.cfi_startproc
	.loc 1 185 79 is_stmt 0 view .LVU279
	.seh_endprologue
	.loc 1 186 5 is_stmt 1 view .LVU280
.LVL66:
	.loc 1 187 5 view .LVU281
	.loc 1 188 5 view .LVU282
.LBB3208:
	.loc 1 188 14 discriminator 1 view .LVU283
	cmpq	$15, %r8	 #, n
	jbe	.L34	 #,
	leaq	-16(%r8), %r11	 #, _79
.LBE3208:
 # C:\Users\MattsDesktop\ECSE6320P1SIMD\Project1DotProduct\dotpMain.cpp:186:     __m512 acc=_mm512_setzero_ps();
	.loc 1 186 33 is_stmt 0 view .LVU284
	vxorps	%xmm0, %xmm0, %xmm0	 # acc
	movq	%r11, %rax	 # _79, _57
	andq	$-16, %rax	 #, _57
	leaq	16(%rax), %r10	 #, _53
 # C:\Users\MattsDesktop\ECSE6320P1SIMD\Project1DotProduct\dotpMain.cpp:187:     size_t i=0;
	.loc 1 187 12 view .LVU285
	xorl	%eax, %eax	 # i
.LVL67:
	.loc 1 187 12 view .LVU286
	.p2align 5
	.p2align 4
	.p2align 3
.L31:
.LVL68:
.LBB3214:
.LBB3209:
	.loc 1 189 9 is_stmt 1 view .LVU287
.LBB3210:
.LBI3210:
	.loc 1 90 23 view .LVU288
	.loc 1 90 52 view .LVU289
	.loc 1 90 52 is_stmt 0 view .LVU290
.LBE3210:
.LBB3211:
.LBI3211:
	.loc 1 90 23 is_stmt 1 view .LVU291
	.loc 1 90 52 view .LVU292
	.loc 1 90 52 is_stmt 0 view .LVU293
.LBE3211:
	.loc 1 190 9 is_stmt 1 view .LVU294
.LBB3212:
.LBI3212:
	.file 5 "C:/msys64/ucrt64/lib/gcc/x86_64-w64-mingw32/14.2.0/include/avx512fintrin.h"
	.loc 5 13726 1 view .LVU295
.LBB3213:
	.loc 5 13728 3 view .LVU296
 # C:/msys64/ucrt64/lib/gcc/x86_64-w64-mingw32/14.2.0/include/avx512fintrin.h:13728:   return (__m512) ((__v16sf)__A + (__v16sf)__B);
	.loc 5 13728 10 is_stmt 0 view .LVU297
	vmovups	(%rdx,%rax,4), %zmm5	 # MEM[(__m512_u * {ref-all})y_25(D) + i_50 * 4], tmp293
	vfmadd231ps	(%rcx,%rax,4), %zmm5, %zmm0	 # MEM[(__m512_u * {ref-all})x_24(D) + i_50 * 4], tmp293, acc
.LVL69:
	.loc 5 13728 10 view .LVU298
.LBE3213:
.LBE3212:
.LBE3209:
	.loc 1 188 5 is_stmt 1 discriminator 2 view .LVU299
 # C:\Users\MattsDesktop\ECSE6320P1SIMD\Project1DotProduct\dotpMain.cpp:188:     for(;i+15<n;i+=16){
	.loc 1 188 18 is_stmt 0 discriminator 2 view .LVU300
	addq	$16, %rax	 #, i
.LVL70:
	.loc 1 188 14 is_stmt 1 discriminator 1 view .LVU301
	cmpq	%r10, %rax	 # _53, i
	jne	.L31	 #,
	andq	$-16, %r11	 #, _76
	leaq	16(%r11), %rax	 #, i
.LVL71:
.L30:
	.loc 1 188 14 is_stmt 0 discriminator 1 view .LVU302
.LBE3214:
	.loc 1 192 5 is_stmt 1 view .LVU303
	.loc 1 192 20 view .LVU304
	.loc 1 193 5 view .LVU305
	.loc 1 193 16 view .LVU306
.LBB3215:
	.loc 1 193 29 discriminator 1 view .LVU307
	.loc 1 193 38 discriminator 3 view .LVU308
 # C:\Users\MattsDesktop\ECSE6320P1SIMD\Project1DotProduct\dotpMain.cpp:193:     float s=0; for(int t=0;t<16;++t) s+=tmp[t];
	.loc 1 193 39 is_stmt 0 discriminator 3 view .LVU309
	vxorps	%xmm4, %xmm4, %xmm4	 # tmp241
	vshufps	$255, %xmm0, %xmm0, %xmm2	 #, tmp240, tmp240, _248
	vextractf128	$0x1, %ymm0, %xmm1	 # tmp239, tmp253
	vaddss	%xmm4, %xmm0, %xmm3	 # tmp241, _206, s
.LVL72:
	.loc 1 193 16 is_stmt 1 discriminator 3 view .LVU310
	.loc 1 193 29 discriminator 1 view .LVU311
	.loc 1 193 38 discriminator 3 view .LVU312
 # C:\Users\MattsDesktop\ECSE6320P1SIMD\Project1DotProduct\dotpMain.cpp:193:     float s=0; for(int t=0;t<16;++t) s+=tmp[t];
	.loc 1 193 39 is_stmt 0 discriminator 3 view .LVU313
	vshufps	$85, %xmm0, %xmm0, %xmm4	 #, tmp240, tmp240, _220
	vaddss	%xmm3, %xmm4, %xmm4	 # s, _220, s
.LVL73:
	.loc 1 193 16 is_stmt 1 discriminator 3 view .LVU314
	.loc 1 193 29 discriminator 1 view .LVU315
	.loc 1 193 38 discriminator 3 view .LVU316
 # C:\Users\MattsDesktop\ECSE6320P1SIMD\Project1DotProduct\dotpMain.cpp:193:     float s=0; for(int t=0;t<16;++t) s+=tmp[t];
	.loc 1 193 39 is_stmt 0 discriminator 3 view .LVU317
	vunpckhps	%xmm0, %xmm0, %xmm3	 # tmp240, tmp240, _234
	vextracti64x4	$0x1, %zmm0, %ymm0	 # acc, tmp264
	vaddss	%xmm4, %xmm3, %xmm3	 # s, _234, s
.LVL74:
	.loc 1 193 16 is_stmt 1 discriminator 3 view .LVU318
	.loc 1 193 29 discriminator 1 view .LVU319
	.loc 1 193 38 discriminator 3 view .LVU320
 # C:\Users\MattsDesktop\ECSE6320P1SIMD\Project1DotProduct\dotpMain.cpp:193:     float s=0; for(int t=0;t<16;++t) s+=tmp[t];
	.loc 1 193 39 is_stmt 0 discriminator 3 view .LVU321
	vaddss	%xmm3, %xmm2, %xmm2	 # s, _248, s
.LVL75:
	.loc 1 193 16 is_stmt 1 discriminator 3 view .LVU322
	.loc 1 193 29 discriminator 1 view .LVU323
	.loc 1 193 38 discriminator 3 view .LVU324
 # C:\Users\MattsDesktop\ECSE6320P1SIMD\Project1DotProduct\dotpMain.cpp:193:     float s=0; for(int t=0;t<16;++t) s+=tmp[t];
	.loc 1 193 39 is_stmt 0 discriminator 3 view .LVU325
	vshufps	$85, %xmm1, %xmm1, %xmm3	 #, tmp253, tmp253, _276
	vaddss	%xmm2, %xmm1, %xmm2	 # s, _262, s
.LVL76:
	.loc 1 193 16 is_stmt 1 discriminator 3 view .LVU326
	.loc 1 193 29 discriminator 1 view .LVU327
	.loc 1 193 38 discriminator 3 view .LVU328
 # C:\Users\MattsDesktop\ECSE6320P1SIMD\Project1DotProduct\dotpMain.cpp:193:     float s=0; for(int t=0;t<16;++t) s+=tmp[t];
	.loc 1 193 39 is_stmt 0 discriminator 3 view .LVU329
	vaddss	%xmm2, %xmm3, %xmm3	 # s, _276, s
.LVL77:
	.loc 1 193 16 is_stmt 1 discriminator 3 view .LVU330
	.loc 1 193 29 discriminator 1 view .LVU331
	.loc 1 193 38 discriminator 3 view .LVU332
 # C:\Users\MattsDesktop\ECSE6320P1SIMD\Project1DotProduct\dotpMain.cpp:193:     float s=0; for(int t=0;t<16;++t) s+=tmp[t];
	.loc 1 193 39 is_stmt 0 discriminator 3 view .LVU333
	vunpckhps	%xmm1, %xmm1, %xmm2	 # tmp253, tmp253, _35
	vshufps	$255, %xmm1, %xmm1, %xmm1	 #, tmp253, tmp253, _2
	vaddss	%xmm3, %xmm2, %xmm2	 # s, _35, s
.LVL78:
	.loc 1 193 16 is_stmt 1 discriminator 3 view .LVU334
	.loc 1 193 29 discriminator 1 view .LVU335
	.loc 1 193 38 discriminator 3 view .LVU336
 # C:\Users\MattsDesktop\ECSE6320P1SIMD\Project1DotProduct\dotpMain.cpp:193:     float s=0; for(int t=0;t<16;++t) s+=tmp[t];
	.loc 1 193 39 is_stmt 0 discriminator 3 view .LVU337
	vshufps	$85, %xmm0, %xmm0, %xmm3	 #, tmp265, tmp265, _285
	vaddss	%xmm2, %xmm1, %xmm1	 # s, _2, s
.LVL79:
	.loc 1 193 16 is_stmt 1 discriminator 3 view .LVU338
	.loc 1 193 29 discriminator 1 view .LVU339
	.loc 1 193 38 discriminator 3 view .LVU340
 # C:\Users\MattsDesktop\ECSE6320P1SIMD\Project1DotProduct\dotpMain.cpp:193:     float s=0; for(int t=0;t<16;++t) s+=tmp[t];
	.loc 1 193 39 is_stmt 0 discriminator 3 view .LVU341
	vshufps	$255, %xmm0, %xmm0, %xmm2	 #, tmp265, tmp265, _277
	vaddss	%xmm1, %xmm0, %xmm1	 # s, _81, s
.LVL80:
	.loc 1 193 16 is_stmt 1 discriminator 3 view .LVU342
	.loc 1 193 29 discriminator 1 view .LVU343
	.loc 1 193 38 discriminator 3 view .LVU344
 # C:\Users\MattsDesktop\ECSE6320P1SIMD\Project1DotProduct\dotpMain.cpp:193:     float s=0; for(int t=0;t<16;++t) s+=tmp[t];
	.loc 1 193 39 is_stmt 0 discriminator 3 view .LVU345
	vaddss	%xmm1, %xmm3, %xmm3	 # s, _285, s
.LVL81:
	.loc 1 193 16 is_stmt 1 discriminator 3 view .LVU346
	.loc 1 193 29 discriminator 1 view .LVU347
	.loc 1 193 38 discriminator 3 view .LVU348
 # C:\Users\MattsDesktop\ECSE6320P1SIMD\Project1DotProduct\dotpMain.cpp:193:     float s=0; for(int t=0;t<16;++t) s+=tmp[t];
	.loc 1 193 39 is_stmt 0 discriminator 3 view .LVU349
	vunpckhps	%xmm0, %xmm0, %xmm1	 # tmp265, tmp265, _279
	vextractf128	$0x1, %ymm0, %xmm0	 # tmp264, tmp277
	vaddss	%xmm3, %xmm1, %xmm1	 # s, _279, s
.LVL82:
	.loc 1 193 16 is_stmt 1 discriminator 3 view .LVU350
	.loc 1 193 29 discriminator 1 view .LVU351
	.loc 1 193 38 discriminator 3 view .LVU352
 # C:\Users\MattsDesktop\ECSE6320P1SIMD\Project1DotProduct\dotpMain.cpp:193:     float s=0; for(int t=0;t<16;++t) s+=tmp[t];
	.loc 1 193 39 is_stmt 0 discriminator 3 view .LVU353
	vaddss	%xmm1, %xmm2, %xmm2	 # s, _277, s
.LVL83:
	.loc 1 193 16 is_stmt 1 discriminator 3 view .LVU354
	.loc 1 193 29 discriminator 1 view .LVU355
	.loc 1 193 38 discriminator 3 view .LVU356
 # C:\Users\MattsDesktop\ECSE6320P1SIMD\Project1DotProduct\dotpMain.cpp:193:     float s=0; for(int t=0;t<16;++t) s+=tmp[t];
	.loc 1 193 39 is_stmt 0 discriminator 3 view .LVU357
	vaddss	%xmm2, %xmm0, %xmm1	 # s, _271, s
.LVL84:
	.loc 1 193 16 is_stmt 1 discriminator 3 view .LVU358
	.loc 1 193 29 discriminator 1 view .LVU359
	.loc 1 193 38 discriminator 3 view .LVU360
 # C:\Users\MattsDesktop\ECSE6320P1SIMD\Project1DotProduct\dotpMain.cpp:193:     float s=0; for(int t=0;t<16;++t) s+=tmp[t];
	.loc 1 193 39 is_stmt 0 discriminator 3 view .LVU361
	vshufps	$85, %xmm0, %xmm0, %xmm2	 #, tmp277, tmp277, _265
	vaddss	%xmm1, %xmm2, %xmm2	 # s, _265, s
.LVL85:
	.loc 1 193 16 is_stmt 1 discriminator 3 view .LVU362
	.loc 1 193 29 discriminator 1 view .LVU363
	.loc 1 193 38 discriminator 3 view .LVU364
 # C:\Users\MattsDesktop\ECSE6320P1SIMD\Project1DotProduct\dotpMain.cpp:193:     float s=0; for(int t=0;t<16;++t) s+=tmp[t];
	.loc 1 193 39 is_stmt 0 discriminator 3 view .LVU365
	vunpckhps	%xmm0, %xmm0, %xmm1	 # tmp277, tmp277, _263
	vshufps	$255, %xmm0, %xmm0, %xmm0	 #, tmp277, tmp277, _257
	vaddss	%xmm2, %xmm1, %xmm1	 # s, _263, s
.LVL86:
	.loc 1 193 16 is_stmt 1 discriminator 3 view .LVU366
	.loc 1 193 29 discriminator 1 view .LVU367
	.loc 1 193 38 discriminator 3 view .LVU368
 # C:\Users\MattsDesktop\ECSE6320P1SIMD\Project1DotProduct\dotpMain.cpp:193:     float s=0; for(int t=0;t<16;++t) s+=tmp[t];
	.loc 1 193 39 is_stmt 0 discriminator 3 view .LVU369
	vaddss	%xmm1, %xmm0, %xmm0	 # s, _257, s
.LVL87:
	.loc 1 193 16 is_stmt 1 discriminator 3 view .LVU370
	.loc 1 193 29 discriminator 1 view .LVU371
	.loc 1 193 29 is_stmt 0 discriminator 1 view .LVU372
.LBE3215:
	.loc 1 194 11 is_stmt 1 discriminator 1 view .LVU373
	cmpq	%r8, %rax	 # n, i
	jnb	.L32	 #,
	.loc 1 194 19 discriminator 2 view .LVU374
 # C:\Users\MattsDesktop\ECSE6320P1SIMD\Project1DotProduct\dotpMain.cpp:194:     for(;i<n;++i) s+=x[i]*y[i];
	.loc 1 194 5 is_stmt 0 discriminator 2 view .LVU375
	leaq	1(%rax), %r10	 #, i
 # C:\Users\MattsDesktop\ECSE6320P1SIMD\Project1DotProduct\dotpMain.cpp:194:     for(;i<n;++i) s+=x[i]*y[i];
	.loc 1 194 20 discriminator 2 view .LVU376
	vmovss	(%rdx,%rax,4), %xmm4	 # *_68, tmp294
	vfmadd231ss	(%rcx,%rax,4), %xmm4, %xmm0	 # *_70, tmp294, s
.LVL88:
	.loc 1 194 5 is_stmt 1 discriminator 2 view .LVU377
	.loc 1 194 11 discriminator 1 view .LVU378
	cmpq	%r8, %r10	 # n, i
	jnb	.L32	 #,
	.loc 1 194 19 discriminator 2 view .LVU379
 # C:\Users\MattsDesktop\ECSE6320P1SIMD\Project1DotProduct\dotpMain.cpp:194:     for(;i<n;++i) s+=x[i]*y[i];
	.loc 1 194 20 is_stmt 0 discriminator 2 view .LVU380
	vmovss	(%rdx,%r10,4), %xmm4	 # *_58, tmp295
	vfmadd231ss	(%rcx,%r10,4), %xmm4, %xmm0	 # *_60, tmp295, s
.LVL89:
	.loc 1 194 5 is_stmt 1 discriminator 2 view .LVU381
	leaq	2(%rax), %r10	 #, i
.LVL90:
	.loc 1 194 11 discriminator 1 view .LVU382
	cmpq	%r8, %r10	 # n, i
	jnb	.L32	 #,
	.loc 1 194 19 discriminator 2 view .LVU383
 # C:\Users\MattsDesktop\ECSE6320P1SIMD\Project1DotProduct\dotpMain.cpp:194:     for(;i<n;++i) s+=x[i]*y[i];
	.loc 1 194 20 is_stmt 0 discriminator 2 view .LVU384
	vmovss	(%rdx,%r10,4), %xmm4	 # *_15, tmp296
	vfmadd231ss	(%rcx,%r10,4), %xmm4, %xmm0	 # *_17, tmp296, s
.LVL91:
	.loc 1 194 5 is_stmt 1 discriminator 2 view .LVU385
	leaq	3(%rax), %r10	 #, i
.LVL92:
	.loc 1 194 11 discriminator 1 view .LVU386
	cmpq	%r8, %r10	 # n, i
	jnb	.L32	 #,
	.loc 1 194 19 discriminator 2 view .LVU387
 # C:\Users\MattsDesktop\ECSE6320P1SIMD\Project1DotProduct\dotpMain.cpp:194:     for(;i<n;++i) s+=x[i]*y[i];
	.loc 1 194 20 is_stmt 0 discriminator 2 view .LVU388
	vmovss	(%rdx,%r10,4), %xmm4	 # *_30, tmp297
	vfmadd231ss	(%rcx,%r10,4), %xmm4, %xmm0	 # *_36, tmp297, s
.LVL93:
	.loc 1 194 5 is_stmt 1 discriminator 2 view .LVU389
	leaq	4(%rax), %r10	 #, i
.LVL94:
	.loc 1 194 11 discriminator 1 view .LVU390
	cmpq	%r8, %r10	 # n, i
	jnb	.L32	 #,
	.loc 1 194 19 discriminator 2 view .LVU391
 # C:\Users\MattsDesktop\ECSE6320P1SIMD\Project1DotProduct\dotpMain.cpp:194:     for(;i<n;++i) s+=x[i]*y[i];
	.loc 1 194 20 is_stmt 0 discriminator 2 view .LVU392
	vmovss	(%rcx,%r10,4), %xmm4	 # *_89, tmp298
	vfmadd231ss	(%rdx,%r10,4), %xmm4, %xmm0	 # *_91, tmp298, s
.LVL95:
	.loc 1 194 5 is_stmt 1 discriminator 2 view .LVU393
	leaq	5(%rax), %r10	 #, i
.LVL96:
	.loc 1 194 11 discriminator 1 view .LVU394
	cmpq	%r8, %r10	 # n, i
	jnb	.L32	 #,
	.loc 1 194 19 discriminator 2 view .LVU395
 # C:\Users\MattsDesktop\ECSE6320P1SIMD\Project1DotProduct\dotpMain.cpp:194:     for(;i<n;++i) s+=x[i]*y[i];
	.loc 1 194 20 is_stmt 0 discriminator 2 view .LVU396
	vmovss	(%rcx,%r10,4), %xmm4	 # *_99, tmp299
	vfmadd231ss	(%rdx,%r10,4), %xmm4, %xmm0	 # *_101, tmp299, s
.LVL97:
	.loc 1 194 5 is_stmt 1 discriminator 2 view .LVU397
	leaq	6(%rax), %r10	 #, i
.LVL98:
	.loc 1 194 11 discriminator 1 view .LVU398
	cmpq	%r8, %r10	 # n, i
	jnb	.L32	 #,
	.loc 1 194 19 discriminator 2 view .LVU399
 # C:\Users\MattsDesktop\ECSE6320P1SIMD\Project1DotProduct\dotpMain.cpp:194:     for(;i<n;++i) s+=x[i]*y[i];
	.loc 1 194 20 is_stmt 0 discriminator 2 view .LVU400
	vmovss	(%rcx,%r10,4), %xmm4	 # *_109, tmp300
	vfmadd231ss	(%rdx,%r10,4), %xmm4, %xmm0	 # *_111, tmp300, s
.LVL99:
	.loc 1 194 5 is_stmt 1 discriminator 2 view .LVU401
	leaq	7(%rax), %r10	 #, i
.LVL100:
	.loc 1 194 11 discriminator 1 view .LVU402
	cmpq	%r8, %r10	 # n, i
	jnb	.L32	 #,
	.loc 1 194 19 discriminator 2 view .LVU403
 # C:\Users\MattsDesktop\ECSE6320P1SIMD\Project1DotProduct\dotpMain.cpp:194:     for(;i<n;++i) s+=x[i]*y[i];
	.loc 1 194 20 is_stmt 0 discriminator 2 view .LVU404
	vmovss	(%rcx,%r10,4), %xmm4	 # *_119, tmp301
	vfmadd231ss	(%rdx,%r10,4), %xmm4, %xmm0	 # *_121, tmp301, s
.LVL101:
	.loc 1 194 5 is_stmt 1 discriminator 2 view .LVU405
	leaq	8(%rax), %r10	 #, i
.LVL102:
	.loc 1 194 11 discriminator 1 view .LVU406
	cmpq	%r8, %r10	 # n, i
	jnb	.L32	 #,
	.loc 1 194 19 discriminator 2 view .LVU407
 # C:\Users\MattsDesktop\ECSE6320P1SIMD\Project1DotProduct\dotpMain.cpp:194:     for(;i<n;++i) s+=x[i]*y[i];
	.loc 1 194 20 is_stmt 0 discriminator 2 view .LVU408
	vmovss	(%rcx,%r10,4), %xmm4	 # *_129, tmp302
	vfmadd231ss	(%rdx,%r10,4), %xmm4, %xmm0	 # *_131, tmp302, s
.LVL103:
	.loc 1 194 5 is_stmt 1 discriminator 2 view .LVU409
	leaq	9(%rax), %r10	 #, i
.LVL104:
	.loc 1 194 11 discriminator 1 view .LVU410
	cmpq	%r8, %r10	 # n, i
	jnb	.L32	 #,
	.loc 1 194 19 discriminator 2 view .LVU411
 # C:\Users\MattsDesktop\ECSE6320P1SIMD\Project1DotProduct\dotpMain.cpp:194:     for(;i<n;++i) s+=x[i]*y[i];
	.loc 1 194 20 is_stmt 0 discriminator 2 view .LVU412
	vmovss	(%rcx,%r10,4), %xmm5	 # *_139, tmp303
	vfmadd231ss	(%rdx,%r10,4), %xmm5, %xmm0	 # *_141, tmp303, s
.LVL105:
	.loc 1 194 5 is_stmt 1 discriminator 2 view .LVU413
	leaq	10(%rax), %r10	 #, i
.LVL106:
	.loc 1 194 11 discriminator 1 view .LVU414
	cmpq	%r8, %r10	 # n, i
	jnb	.L32	 #,
	.loc 1 194 19 discriminator 2 view .LVU415
 # C:\Users\MattsDesktop\ECSE6320P1SIMD\Project1DotProduct\dotpMain.cpp:194:     for(;i<n;++i) s+=x[i]*y[i];
	.loc 1 194 20 is_stmt 0 discriminator 2 view .LVU416
	vmovss	(%rcx,%r10,4), %xmm4	 # *_149, tmp304
	vfmadd231ss	(%rdx,%r10,4), %xmm4, %xmm0	 # *_151, tmp304, s
.LVL107:
	.loc 1 194 5 is_stmt 1 discriminator 2 view .LVU417
	leaq	11(%rax), %r10	 #, i
.LVL108:
	.loc 1 194 11 discriminator 1 view .LVU418
	cmpq	%r8, %r10	 # n, i
	jnb	.L32	 #,
	.loc 1 194 19 discriminator 2 view .LVU419
 # C:\Users\MattsDesktop\ECSE6320P1SIMD\Project1DotProduct\dotpMain.cpp:194:     for(;i<n;++i) s+=x[i]*y[i];
	.loc 1 194 20 is_stmt 0 discriminator 2 view .LVU420
	vmovss	(%rcx,%r10,4), %xmm5	 # *_159, tmp305
	vfmadd231ss	(%rdx,%r10,4), %xmm5, %xmm0	 # *_161, tmp305, s
.LVL109:
	.loc 1 194 5 is_stmt 1 discriminator 2 view .LVU421
	leaq	12(%rax), %r10	 #, i
.LVL110:
	.loc 1 194 11 discriminator 1 view .LVU422
	cmpq	%r8, %r10	 # n, i
	jnb	.L32	 #,
	.loc 1 194 19 discriminator 2 view .LVU423
 # C:\Users\MattsDesktop\ECSE6320P1SIMD\Project1DotProduct\dotpMain.cpp:194:     for(;i<n;++i) s+=x[i]*y[i];
	.loc 1 194 20 is_stmt 0 discriminator 2 view .LVU424
	vmovss	(%rcx,%r10,4), %xmm4	 # *_169, tmp306
	vfmadd231ss	(%rdx,%r10,4), %xmm4, %xmm0	 # *_171, tmp306, s
.LVL111:
	.loc 1 194 5 is_stmt 1 discriminator 2 view .LVU425
	leaq	13(%rax), %r10	 #, i
.LVL112:
	.loc 1 194 11 discriminator 1 view .LVU426
	cmpq	%r8, %r10	 # n, i
	jnb	.L32	 #,
	.loc 1 194 19 discriminator 2 view .LVU427
 # C:\Users\MattsDesktop\ECSE6320P1SIMD\Project1DotProduct\dotpMain.cpp:194:     for(;i<n;++i) s+=x[i]*y[i];
	.loc 1 194 5 is_stmt 0 discriminator 2 view .LVU428
	addq	$14, %rax	 #, i
 # C:\Users\MattsDesktop\ECSE6320P1SIMD\Project1DotProduct\dotpMain.cpp:194:     for(;i<n;++i) s+=x[i]*y[i];
	.loc 1 194 20 discriminator 2 view .LVU429
	vmovss	(%rcx,%r10,4), %xmm4	 # *_179, tmp307
	vfmadd231ss	(%rdx,%r10,4), %xmm4, %xmm0	 # *_181, tmp307, s
.LVL113:
	.loc 1 194 5 is_stmt 1 discriminator 2 view .LVU430
	.loc 1 194 11 discriminator 1 view .LVU431
	cmpq	%r8, %rax	 # n, i
	jnb	.L32	 #,
	.loc 1 194 19 discriminator 2 view .LVU432
 # C:\Users\MattsDesktop\ECSE6320P1SIMD\Project1DotProduct\dotpMain.cpp:194:     for(;i<n;++i) s+=x[i]*y[i];
	.loc 1 194 20 is_stmt 0 discriminator 2 view .LVU433
	vmovss	(%rcx,%rax,4), %xmm5	 # *_7, tmp308
	vfmadd231ss	(%rdx,%rax,4), %xmm5, %xmm0	 # *_9, tmp308, s
.LVL114:
	.loc 1 194 5 is_stmt 1 discriminator 2 view .LVU434
	.loc 1 194 11 discriminator 1 view .LVU435
.L32:
	.loc 1 195 5 view .LVU436
 # C:\Users\MattsDesktop\ECSE6320P1SIMD\Project1DotProduct\dotpMain.cpp:195:     out_sum=s;
	.loc 1 195 12 is_stmt 0 view .LVU437
	vmovss	%xmm0, (%r9)	 # s, *out_sum_21(D)
	vzeroupper
.LVL115:
 # C:\Users\MattsDesktop\ECSE6320P1SIMD\Project1DotProduct\dotpMain.cpp:196: }
	.loc 1 196 1 view .LVU438
	ret	
.LVL116:
.L34:
 # C:\Users\MattsDesktop\ECSE6320P1SIMD\Project1DotProduct\dotpMain.cpp:187:     size_t i=0;
	.loc 1 187 12 view .LVU439
	xorl	%eax, %eax	 # i
 # C:\Users\MattsDesktop\ECSE6320P1SIMD\Project1DotProduct\dotpMain.cpp:186:     __m512 acc=_mm512_setzero_ps();
	.loc 1 186 33 view .LVU440
	vxorps	%xmm0, %xmm0, %xmm0	 # acc
	jmp	.L30	 #
	.cfi_endproc
.LFE10981:
	.seh_endproc
	.p2align 4
	.globl	_Z11dotp_avx512IdEvPKT_S2_yRS0_
	.def	_Z11dotp_avx512IdEvPKT_S2_yRS0_;	.scl	2;	.type	32;	.endef
	.seh_proc	_Z11dotp_avx512IdEvPKT_S2_yRS0_
_Z11dotp_avx512IdEvPKT_S2_yRS0_:
.LVL117:
.LFB10982:
	.loc 1 198 83 is_stmt 1 view -0
	.cfi_startproc
	.loc 1 198 83 is_stmt 0 view .LVU442
	.seh_endprologue
	.loc 1 199 5 is_stmt 1 view .LVU443
.LVL118:
	.loc 1 200 5 view .LVU444
	.loc 1 201 5 view .LVU445
.LBB3216:
	.loc 1 201 13 discriminator 1 view .LVU446
	cmpq	$7, %r8	 #, n
	jbe	.L41	 #,
	leaq	-8(%r8), %r10	 #, _79
.LBE3216:
 # C:\Users\MattsDesktop\ECSE6320P1SIMD\Project1DotProduct\dotpMain.cpp:199:     __m512d acc=_mm512_setzero_pd();
	.loc 1 199 34 is_stmt 0 view .LVU447
	vxorpd	%xmm0, %xmm0, %xmm0	 # acc
	movq	%r10, %rax	 # _79, _75
	shrq	$3, %rax	 #, _75
	leaq	8(,%rax,8), %r11	 #, _53
 # C:\Users\MattsDesktop\ECSE6320P1SIMD\Project1DotProduct\dotpMain.cpp:200:     size_t i=0;
	.loc 1 200 12 view .LVU448
	xorl	%eax, %eax	 # i
.LVL119:
	.loc 1 200 12 view .LVU449
	.p2align 5
	.p2align 4
	.p2align 3
.L38:
.LVL120:
.LBB3222:
.LBB3217:
	.loc 1 202 9 is_stmt 1 view .LVU450
.LBB3218:
.LBI3218:
	.loc 1 91 23 view .LVU451
	.loc 1 91 52 view .LVU452
	.loc 1 91 52 is_stmt 0 view .LVU453
.LBE3218:
.LBB3219:
.LBI3219:
	.loc 1 91 23 is_stmt 1 view .LVU454
	.loc 1 91 52 view .LVU455
	.loc 1 91 52 is_stmt 0 view .LVU456
.LBE3219:
	.loc 1 203 9 is_stmt 1 view .LVU457
.LBB3220:
.LBI3220:
	.loc 5 13696 1 view .LVU458
.LBB3221:
	.loc 5 13698 3 view .LVU459
 # C:/msys64/ucrt64/lib/gcc/x86_64-w64-mingw32/14.2.0/include/avx512fintrin.h:13698:   return (__m512d) ((__v8df)__A + (__v8df)__B);
	.loc 5 13698 10 is_stmt 0 view .LVU460
	vmovupd	(%rdx,%rax,8), %zmm5	 # MEM[(__m512d_u * {ref-all})y_25(D) + i_50 * 8], tmp205
	vfmadd231pd	(%rcx,%rax,8), %zmm5, %zmm0	 # MEM[(__m512d_u * {ref-all})x_24(D) + i_50 * 8], tmp205, acc
.LVL121:
	.loc 5 13698 10 view .LVU461
.LBE3221:
.LBE3220:
.LBE3217:
	.loc 1 201 5 is_stmt 1 discriminator 2 view .LVU462
 # C:\Users\MattsDesktop\ECSE6320P1SIMD\Project1DotProduct\dotpMain.cpp:201:     for(;i+7<n;i+=8){
	.loc 1 201 17 is_stmt 0 discriminator 2 view .LVU463
	addq	$8, %rax	 #, i
.LVL122:
	.loc 1 201 13 is_stmt 1 discriminator 1 view .LVU464
	cmpq	%r11, %rax	 # _53, i
	jne	.L38	 #,
	andq	$-8, %r10	 #, _76
	leaq	8(%r10), %rax	 #, i
.LVL123:
.L37:
	.loc 1 201 13 is_stmt 0 discriminator 1 view .LVU465
.LBE3222:
	.loc 1 205 5 is_stmt 1 view .LVU466
	.loc 1 205 20 view .LVU467
	.loc 1 206 5 view .LVU468
	.loc 1 206 17 view .LVU469
.LBB3223:
	.loc 1 206 30 discriminator 1 view .LVU470
	.loc 1 206 38 discriminator 3 view .LVU471
 # C:\Users\MattsDesktop\ECSE6320P1SIMD\Project1DotProduct\dotpMain.cpp:206:     double s=0; for(int t=0;t<8;++t) s+=tmp[t];
	.loc 1 206 39 is_stmt 0 discriminator 3 view .LVU472
	vxorpd	%xmm4, %xmm4, %xmm4	 # tmp177
	vunpckhpd	%xmm0, %xmm0, %xmm2	 # tmp176, _140
	vextractf128	$0x1, %ymm0, %xmm1	 # tmp175, tmp183
	vaddsd	%xmm4, %xmm0, %xmm3	 # tmp177, _126, s
.LVL124:
	.loc 1 206 17 is_stmt 1 discriminator 3 view .LVU473
	.loc 1 206 30 discriminator 1 view .LVU474
	.loc 1 206 38 discriminator 3 view .LVU475
 # C:\Users\MattsDesktop\ECSE6320P1SIMD\Project1DotProduct\dotpMain.cpp:206:     double s=0; for(int t=0;t<8;++t) s+=tmp[t];
	.loc 1 206 39 is_stmt 0 discriminator 3 view .LVU476
	vextractf64x4	$0x1, %zmm0, %ymm0	 # acc, tmp188
	vaddsd	%xmm3, %xmm2, %xmm2	 # s, _140, s
.LVL125:
	.loc 1 206 17 is_stmt 1 discriminator 3 view .LVU477
	.loc 1 206 30 discriminator 1 view .LVU478
	.loc 1 206 38 discriminator 3 view .LVU479
 # C:\Users\MattsDesktop\ECSE6320P1SIMD\Project1DotProduct\dotpMain.cpp:206:     double s=0; for(int t=0;t<8;++t) s+=tmp[t];
	.loc 1 206 39 is_stmt 0 discriminator 3 view .LVU480
	vaddsd	%xmm2, %xmm1, %xmm2	 # s, _35, s
.LVL126:
	.loc 1 206 17 is_stmt 1 discriminator 3 view .LVU481
	.loc 1 206 30 discriminator 1 view .LVU482
	.loc 1 206 38 discriminator 3 view .LVU483
 # C:\Users\MattsDesktop\ECSE6320P1SIMD\Project1DotProduct\dotpMain.cpp:206:     double s=0; for(int t=0;t<8;++t) s+=tmp[t];
	.loc 1 206 39 is_stmt 0 discriminator 3 view .LVU484
	vunpckhpd	%xmm1, %xmm1, %xmm1	 # tmp183, _2
	vaddsd	%xmm2, %xmm1, %xmm1	 # s, _2, s
.LVL127:
	.loc 1 206 17 is_stmt 1 discriminator 3 view .LVU485
	.loc 1 206 30 discriminator 1 view .LVU486
	.loc 1 206 38 discriminator 3 view .LVU487
 # C:\Users\MattsDesktop\ECSE6320P1SIMD\Project1DotProduct\dotpMain.cpp:206:     double s=0; for(int t=0;t<8;++t) s+=tmp[t];
	.loc 1 206 39 is_stmt 0 discriminator 3 view .LVU488
	vunpckhpd	%xmm0, %xmm0, %xmm2	 # tmp189, _149
	vaddsd	%xmm1, %xmm0, %xmm1	 # s, _81, s
.LVL128:
	.loc 1 206 17 is_stmt 1 discriminator 3 view .LVU489
	.loc 1 206 30 discriminator 1 view .LVU490
	.loc 1 206 38 discriminator 3 view .LVU491
 # C:\Users\MattsDesktop\ECSE6320P1SIMD\Project1DotProduct\dotpMain.cpp:206:     double s=0; for(int t=0;t<8;++t) s+=tmp[t];
	.loc 1 206 39 is_stmt 0 discriminator 3 view .LVU492
	vextractf128	$0x1, %ymm0, %xmm0	 # tmp188, tmp195
	vaddsd	%xmm1, %xmm2, %xmm2	 # s, _149, s
.LVL129:
	.loc 1 206 17 is_stmt 1 discriminator 3 view .LVU493
	.loc 1 206 30 discriminator 1 view .LVU494
	.loc 1 206 38 discriminator 3 view .LVU495
 # C:\Users\MattsDesktop\ECSE6320P1SIMD\Project1DotProduct\dotpMain.cpp:206:     double s=0; for(int t=0;t<8;++t) s+=tmp[t];
	.loc 1 206 39 is_stmt 0 discriminator 3 view .LVU496
	vaddsd	%xmm2, %xmm0, %xmm1	 # s, _143, s
.LVL130:
	.loc 1 206 17 is_stmt 1 discriminator 3 view .LVU497
	.loc 1 206 30 discriminator 1 view .LVU498
	.loc 1 206 38 discriminator 3 view .LVU499
 # C:\Users\MattsDesktop\ECSE6320P1SIMD\Project1DotProduct\dotpMain.cpp:206:     double s=0; for(int t=0;t<8;++t) s+=tmp[t];
	.loc 1 206 39 is_stmt 0 discriminator 3 view .LVU500
	vunpckhpd	%xmm0, %xmm0, %xmm0	 # tmp195, _141
	vaddsd	%xmm1, %xmm0, %xmm0	 # s, _141, s
.LVL131:
	.loc 1 206 17 is_stmt 1 discriminator 3 view .LVU501
	.loc 1 206 30 discriminator 1 view .LVU502
	.loc 1 206 30 is_stmt 0 discriminator 1 view .LVU503
.LBE3223:
	.loc 1 207 11 is_stmt 1 discriminator 1 view .LVU504
	cmpq	%r8, %rax	 # n, i
	jnb	.L39	 #,
	.loc 1 207 19 discriminator 2 view .LVU505
 # C:\Users\MattsDesktop\ECSE6320P1SIMD\Project1DotProduct\dotpMain.cpp:207:     for(;i<n;++i) s+=x[i]*y[i];
	.loc 1 207 5 is_stmt 0 discriminator 2 view .LVU506
	leaq	1(%rax), %r10	 #, i
 # C:\Users\MattsDesktop\ECSE6320P1SIMD\Project1DotProduct\dotpMain.cpp:207:     for(;i<n;++i) s+=x[i]*y[i];
	.loc 1 207 20 discriminator 2 view .LVU507
	vmovsd	(%rdx,%rax,8), %xmm4	 # *_68, tmp206
	vfmadd231sd	(%rcx,%rax,8), %xmm4, %xmm0	 # *_70, tmp206, s
.LVL132:
	.loc 1 207 5 is_stmt 1 discriminator 2 view .LVU508
	.loc 1 207 11 discriminator 1 view .LVU509
	cmpq	%r8, %r10	 # n, i
	jnb	.L39	 #,
	.loc 1 207 19 discriminator 2 view .LVU510
 # C:\Users\MattsDesktop\ECSE6320P1SIMD\Project1DotProduct\dotpMain.cpp:207:     for(;i<n;++i) s+=x[i]*y[i];
	.loc 1 207 20 is_stmt 0 discriminator 2 view .LVU511
	vmovsd	(%rdx,%r10,8), %xmm4	 # *_58, tmp207
	vfmadd231sd	(%rcx,%r10,8), %xmm4, %xmm0	 # *_60, tmp207, s
.LVL133:
	.loc 1 207 5 is_stmt 1 discriminator 2 view .LVU512
	leaq	2(%rax), %r10	 #, i
.LVL134:
	.loc 1 207 11 discriminator 1 view .LVU513
	cmpq	%r8, %r10	 # n, i
	jnb	.L39	 #,
	.loc 1 207 19 discriminator 2 view .LVU514
 # C:\Users\MattsDesktop\ECSE6320P1SIMD\Project1DotProduct\dotpMain.cpp:207:     for(;i<n;++i) s+=x[i]*y[i];
	.loc 1 207 20 is_stmt 0 discriminator 2 view .LVU515
	vmovsd	(%rdx,%r10,8), %xmm4	 # *_15, tmp208
	vfmadd231sd	(%rcx,%r10,8), %xmm4, %xmm0	 # *_17, tmp208, s
.LVL135:
	.loc 1 207 5 is_stmt 1 discriminator 2 view .LVU516
	leaq	3(%rax), %r10	 #, i
.LVL136:
	.loc 1 207 11 discriminator 1 view .LVU517
	cmpq	%r8, %r10	 # n, i
	jnb	.L39	 #,
	.loc 1 207 19 discriminator 2 view .LVU518
 # C:\Users\MattsDesktop\ECSE6320P1SIMD\Project1DotProduct\dotpMain.cpp:207:     for(;i<n;++i) s+=x[i]*y[i];
	.loc 1 207 20 is_stmt 0 discriminator 2 view .LVU519
	vmovsd	(%rdx,%r10,8), %xmm4	 # *_30, tmp209
	vfmadd231sd	(%rcx,%r10,8), %xmm4, %xmm0	 # *_36, tmp209, s
.LVL137:
	.loc 1 207 5 is_stmt 1 discriminator 2 view .LVU520
	leaq	4(%rax), %r10	 #, i
.LVL138:
	.loc 1 207 11 discriminator 1 view .LVU521
	cmpq	%r8, %r10	 # n, i
	jnb	.L39	 #,
	.loc 1 207 19 discriminator 2 view .LVU522
 # C:\Users\MattsDesktop\ECSE6320P1SIMD\Project1DotProduct\dotpMain.cpp:207:     for(;i<n;++i) s+=x[i]*y[i];
	.loc 1 207 20 is_stmt 0 discriminator 2 view .LVU523
	vmovsd	(%rcx,%r10,8), %xmm4	 # *_89, tmp210
	vfmadd231sd	(%rdx,%r10,8), %xmm4, %xmm0	 # *_91, tmp210, s
.LVL139:
	.loc 1 207 5 is_stmt 1 discriminator 2 view .LVU524
	leaq	5(%rax), %r10	 #, i
.LVL140:
	.loc 1 207 11 discriminator 1 view .LVU525
	cmpq	%r8, %r10	 # n, i
	jnb	.L39	 #,
	.loc 1 207 19 discriminator 2 view .LVU526
 # C:\Users\MattsDesktop\ECSE6320P1SIMD\Project1DotProduct\dotpMain.cpp:207:     for(;i<n;++i) s+=x[i]*y[i];
	.loc 1 207 5 is_stmt 0 discriminator 2 view .LVU527
	addq	$6, %rax	 #, i
 # C:\Users\MattsDesktop\ECSE6320P1SIMD\Project1DotProduct\dotpMain.cpp:207:     for(;i<n;++i) s+=x[i]*y[i];
	.loc 1 207 20 discriminator 2 view .LVU528
	vmovsd	(%rcx,%r10,8), %xmm3	 # *_99, tmp211
	vfmadd231sd	(%rdx,%r10,8), %xmm3, %xmm0	 # *_101, tmp211, s
.LVL141:
	.loc 1 207 5 is_stmt 1 discriminator 2 view .LVU529
	.loc 1 207 11 discriminator 1 view .LVU530
	cmpq	%r8, %rax	 # n, i
	jnb	.L39	 #,
	.loc 1 207 19 discriminator 2 view .LVU531
 # C:\Users\MattsDesktop\ECSE6320P1SIMD\Project1DotProduct\dotpMain.cpp:207:     for(;i<n;++i) s+=x[i]*y[i];
	.loc 1 207 20 is_stmt 0 discriminator 2 view .LVU532
	vmovsd	(%rcx,%rax,8), %xmm4	 # *_7, tmp212
	vfmadd231sd	(%rdx,%rax,8), %xmm4, %xmm0	 # *_9, tmp212, s
.LVL142:
	.loc 1 207 5 is_stmt 1 discriminator 2 view .LVU533
	.loc 1 207 11 discriminator 1 view .LVU534
.L39:
	.loc 1 208 5 view .LVU535
 # C:\Users\MattsDesktop\ECSE6320P1SIMD\Project1DotProduct\dotpMain.cpp:208:     out_sum=s;
	.loc 1 208 12 is_stmt 0 view .LVU536
	vmovsd	%xmm0, (%r9)	 # s, *out_sum_21(D)
	vzeroupper
.LVL143:
 # C:\Users\MattsDesktop\ECSE6320P1SIMD\Project1DotProduct\dotpMain.cpp:209: }
	.loc 1 209 1 view .LVU537
	ret	
.LVL144:
	.p2align 4,,10
	.p2align 3
.L41:
 # C:\Users\MattsDesktop\ECSE6320P1SIMD\Project1DotProduct\dotpMain.cpp:200:     size_t i=0;
	.loc 1 200 12 view .LVU538
	xorl	%eax, %eax	 # i
 # C:\Users\MattsDesktop\ECSE6320P1SIMD\Project1DotProduct\dotpMain.cpp:199:     __m512d acc=_mm512_setzero_pd();
	.loc 1 199 34 view .LVU539
	vxorpd	%xmm0, %xmm0, %xmm0	 # acc
	jmp	.L37	 #
	.cfi_endproc
.LFE10982:
	.seh_endproc
	.section	.text$_Z11dotp_scalarIfEvPKT_S2_yRS0_,"x"
	.linkonce discard
	.p2align 4
	.globl	_Z11dotp_scalarIfEvPKT_S2_yRS0_
	.def	_Z11dotp_scalarIfEvPKT_S2_yRS0_;	.scl	2;	.type	32;	.endef
	.seh_proc	_Z11dotp_scalarIfEvPKT_S2_yRS0_
_Z11dotp_scalarIfEvPKT_S2_yRS0_:
.LVL145:
.LFB11380:
	.loc 1 97 6 is_stmt 1 view -0
	.cfi_startproc
	.loc 1 97 6 is_stmt 0 view .LVU541
	.seh_endprologue
.LVL146:
.LBB3224:
	.loc 1 99 21 is_stmt 1 discriminator 1 view .LVU542
	testq	%r8, %r8	 # n
	je	.L46	 #,
 # C:\Users\MattsDesktop\ECSE6320P1SIMD\Project1DotProduct\dotpMain.cpp:99:     for(size_t i=0;i<n;++i) s+=x[i]*y[i];
	.loc 1 99 16 is_stmt 0 view .LVU543
	xorl	%eax, %eax	 # i
.LBE3224:
 # C:\Users\MattsDesktop\ECSE6320P1SIMD\Project1DotProduct\dotpMain.cpp:98:     T s=0;
	.loc 1 98 7 view .LVU544
	vxorps	%xmm1, %xmm1, %xmm1	 # s
.LVL147:
	.loc 1 98 7 view .LVU545
	.p2align 5
	.p2align 4
	.p2align 3
.L45:
.LVL148:
.LBB3225:
 # C:\Users\MattsDesktop\ECSE6320P1SIMD\Project1DotProduct\dotpMain.cpp:99:     for(size_t i=0;i<n;++i) s+=x[i]*y[i];
	.loc 1 99 36 discriminator 3 view .LVU546
	vmovss	(%rcx,%rax,4), %xmm0	 # MEM[(const float *)x_13(D) + i_21 * 4], MEM[(const float *)x_13(D) + i_21 * 4]
	vmulss	(%rdx,%rax,4), %xmm0, %xmm0	 # MEM[(const float *)y_14(D) + i_21 * 4], MEM[(const float *)x_13(D) + i_21 * 4], _6
 # C:\Users\MattsDesktop\ECSE6320P1SIMD\Project1DotProduct\dotpMain.cpp:99:     for(size_t i=0;i<n;++i) s+=x[i]*y[i];
	.loc 1 99 5 discriminator 3 view .LVU547
	addq	$1, %rax	 #, i
.LVL149:
 # C:\Users\MattsDesktop\ECSE6320P1SIMD\Project1DotProduct\dotpMain.cpp:99:     for(size_t i=0;i<n;++i) s+=x[i]*y[i];
	.loc 1 99 30 discriminator 3 view .LVU548
	vaddss	%xmm0, %xmm1, %xmm1	 # _6, s, s
.LVL150:
	.loc 1 99 5 is_stmt 1 discriminator 3 view .LVU549
	.loc 1 99 21 discriminator 1 view .LVU550
	cmpq	%rax, %r8	 # i, n
	jne	.L45	 #,
.LBE3225:
 # C:\Users\MattsDesktop\ECSE6320P1SIMD\Project1DotProduct\dotpMain.cpp:100:     out_sum=s;
	.loc 1 100 12 is_stmt 0 view .LVU551
	vmovss	%xmm1, (%r9)	 # s, *out_sum_11(D)
 # C:\Users\MattsDesktop\ECSE6320P1SIMD\Project1DotProduct\dotpMain.cpp:101: }
	.loc 1 101 1 view .LVU552
	ret	
.LVL151:
	.p2align 4,,10
	.p2align 3
.L46:
 # C:\Users\MattsDesktop\ECSE6320P1SIMD\Project1DotProduct\dotpMain.cpp:98:     T s=0;
	.loc 1 98 7 view .LVU553
	vxorps	%xmm1, %xmm1, %xmm1	 # s
 # C:\Users\MattsDesktop\ECSE6320P1SIMD\Project1DotProduct\dotpMain.cpp:100:     out_sum=s;
	.loc 1 100 12 view .LVU554
	vmovss	%xmm1, (%r9)	 # s, *out_sum_11(D)
 # C:\Users\MattsDesktop\ECSE6320P1SIMD\Project1DotProduct\dotpMain.cpp:101: }
	.loc 1 101 1 view .LVU555
	ret	
	.cfi_endproc
.LFE11380:
	.seh_endproc
	.section	.text$_Z11dotp_scalarIdEvPKT_S2_yRS0_,"x"
	.linkonce discard
	.p2align 4
	.globl	_Z11dotp_scalarIdEvPKT_S2_yRS0_
	.def	_Z11dotp_scalarIdEvPKT_S2_yRS0_;	.scl	2;	.type	32;	.endef
	.seh_proc	_Z11dotp_scalarIdEvPKT_S2_yRS0_
_Z11dotp_scalarIdEvPKT_S2_yRS0_:
.LVL152:
.LFB11388:
	.loc 1 97 6 is_stmt 1 view -0
	.cfi_startproc
	.loc 1 97 6 is_stmt 0 view .LVU557
	.seh_endprologue
.LVL153:
.LBB3226:
	.loc 1 99 21 is_stmt 1 discriminator 1 view .LVU558
	testq	%r8, %r8	 # n
	je	.L51	 #,
 # C:\Users\MattsDesktop\ECSE6320P1SIMD\Project1DotProduct\dotpMain.cpp:99:     for(size_t i=0;i<n;++i) s+=x[i]*y[i];
	.loc 1 99 16 is_stmt 0 view .LVU559
	xorl	%eax, %eax	 # i
.LBE3226:
 # C:\Users\MattsDesktop\ECSE6320P1SIMD\Project1DotProduct\dotpMain.cpp:98:     T s=0;
	.loc 1 98 7 view .LVU560
	vxorpd	%xmm1, %xmm1, %xmm1	 # s
.LVL154:
	.loc 1 98 7 view .LVU561
	.p2align 5
	.p2align 4
	.p2align 3
.L50:
.LVL155:
.LBB3227:
 # C:\Users\MattsDesktop\ECSE6320P1SIMD\Project1DotProduct\dotpMain.cpp:99:     for(size_t i=0;i<n;++i) s+=x[i]*y[i];
	.loc 1 99 36 discriminator 3 view .LVU562
	vmovsd	(%rcx,%rax,8), %xmm0	 # MEM[(const double *)x_13(D) + i_21 * 8], MEM[(const double *)x_13(D) + i_21 * 8]
	vmulsd	(%rdx,%rax,8), %xmm0, %xmm0	 # MEM[(const double *)y_14(D) + i_21 * 8], MEM[(const double *)x_13(D) + i_21 * 8], _6
 # C:\Users\MattsDesktop\ECSE6320P1SIMD\Project1DotProduct\dotpMain.cpp:99:     for(size_t i=0;i<n;++i) s+=x[i]*y[i];
	.loc 1 99 5 discriminator 3 view .LVU563
	addq	$1, %rax	 #, i
.LVL156:
 # C:\Users\MattsDesktop\ECSE6320P1SIMD\Project1DotProduct\dotpMain.cpp:99:     for(size_t i=0;i<n;++i) s+=x[i]*y[i];
	.loc 1 99 30 discriminator 3 view .LVU564
	vaddsd	%xmm0, %xmm1, %xmm1	 # _6, s, s
.LVL157:
	.loc 1 99 5 is_stmt 1 discriminator 3 view .LVU565
	.loc 1 99 21 discriminator 1 view .LVU566
	cmpq	%rax, %r8	 # i, n
	jne	.L50	 #,
.LBE3227:
 # C:\Users\MattsDesktop\ECSE6320P1SIMD\Project1DotProduct\dotpMain.cpp:100:     out_sum=s;
	.loc 1 100 12 is_stmt 0 view .LVU567
	vmovsd	%xmm1, (%r9)	 # s, *out_sum_11(D)
 # C:\Users\MattsDesktop\ECSE6320P1SIMD\Project1DotProduct\dotpMain.cpp:101: }
	.loc 1 101 1 view .LVU568
	ret	
.LVL158:
	.p2align 4,,10
	.p2align 3
.L51:
 # C:\Users\MattsDesktop\ECSE6320P1SIMD\Project1DotProduct\dotpMain.cpp:98:     T s=0;
	.loc 1 98 7 view .LVU569
	vxorpd	%xmm1, %xmm1, %xmm1	 # s
 # C:\Users\MattsDesktop\ECSE6320P1SIMD\Project1DotProduct\dotpMain.cpp:100:     out_sum=s;
	.loc 1 100 12 view .LVU570
	vmovsd	%xmm1, (%r9)	 # s, *out_sum_11(D)
 # C:\Users\MattsDesktop\ECSE6320P1SIMD\Project1DotProduct\dotpMain.cpp:101: }
	.loc 1 101 1 view .LVU571
	ret	
	.cfi_endproc
.LFE11388:
	.seh_endproc
	.text
	.p2align 4
	.globl	_Z11dotp_scalarIiEvPKT_S2_yRS0_
	.def	_Z11dotp_scalarIiEvPKT_S2_yRS0_;	.scl	2;	.type	32;	.endef
	.seh_proc	_Z11dotp_scalarIiEvPKT_S2_yRS0_
_Z11dotp_scalarIiEvPKT_S2_yRS0_:
.LVL159:
.LFB10974:
	.loc 1 103 90 is_stmt 1 view -0
	.cfi_startproc
	.loc 1 103 90 is_stmt 0 view .LVU573
	.seh_endprologue
	.loc 1 104 5 is_stmt 1 view .LVU574
.LVL160:
	.loc 1 105 5 view .LVU575
.LBB3229:
	.loc 1 105 21 discriminator 1 view .LVU576
	testq	%r8, %r8	 # n
	je	.L56	 #,
 # C:\Users\MattsDesktop\ECSE6320P1SIMD\Project1DotProduct\dotpMain.cpp:105:     for(size_t i=0;i<n;++i) s+=x[i]*y[i];
	.loc 1 105 16 is_stmt 0 view .LVU577
	xorl	%eax, %eax	 # i
.LBE3229:
 # C:\Users\MattsDesktop\ECSE6320P1SIMD\Project1DotProduct\dotpMain.cpp:104:     int32_t s=0;
	.loc 1 104 13 view .LVU578
	xorl	%r11d, %r11d	 # s
.LVL161:
	.loc 1 104 13 view .LVU579
	.p2align 5
	.p2align 4
	.p2align 3
.L55:
.LVL162:
.LBB3230:
	.loc 1 105 29 is_stmt 1 discriminator 3 view .LVU580
 # C:\Users\MattsDesktop\ECSE6320P1SIMD\Project1DotProduct\dotpMain.cpp:105:     for(size_t i=0;i<n;++i) s+=x[i]*y[i];
	.loc 1 105 36 is_stmt 0 discriminator 3 view .LVU581
	movl	(%rcx,%rax,4), %r10d	 # MEM[(const int32_t *)x_13(D) + i_21 * 4], MEM[(const int32_t *)x_13(D) + i_21 * 4]
	imull	(%rdx,%rax,4), %r10d	 # MEM[(const int32_t *)y_14(D) + i_21 * 4], _6
 # C:\Users\MattsDesktop\ECSE6320P1SIMD\Project1DotProduct\dotpMain.cpp:105:     for(size_t i=0;i<n;++i) s+=x[i]*y[i];
	.loc 1 105 5 discriminator 3 view .LVU582
	addq	$1, %rax	 #, i
.LVL163:
 # C:\Users\MattsDesktop\ECSE6320P1SIMD\Project1DotProduct\dotpMain.cpp:105:     for(size_t i=0;i<n;++i) s+=x[i]*y[i];
	.loc 1 105 30 discriminator 3 view .LVU583
	addl	%r10d, %r11d	 # _6, s
.LVL164:
	.loc 1 105 5 is_stmt 1 discriminator 3 view .LVU584
	.loc 1 105 21 discriminator 1 view .LVU585
	cmpq	%rax, %r8	 # i, n
	jne	.L55	 #,
.LBE3230:
	.loc 1 106 5 view .LVU586
 # C:\Users\MattsDesktop\ECSE6320P1SIMD\Project1DotProduct\dotpMain.cpp:106:     out_sum=s;
	.loc 1 106 12 is_stmt 0 view .LVU587
	movl	%r11d, (%r9)	 # s, *out_sum_11(D)
 # C:\Users\MattsDesktop\ECSE6320P1SIMD\Project1DotProduct\dotpMain.cpp:107: }
	.loc 1 107 1 view .LVU588
	ret	
.LVL165:
	.p2align 4,,10
	.p2align 3
.L56:
 # C:\Users\MattsDesktop\ECSE6320P1SIMD\Project1DotProduct\dotpMain.cpp:104:     int32_t s=0;
	.loc 1 104 13 view .LVU589
	xorl	%r11d, %r11d	 # s
	.loc 1 106 5 is_stmt 1 view .LVU590
 # C:\Users\MattsDesktop\ECSE6320P1SIMD\Project1DotProduct\dotpMain.cpp:106:     out_sum=s;
	.loc 1 106 12 is_stmt 0 view .LVU591
	movl	%r11d, (%r9)	 # s, *out_sum_11(D)
 # C:\Users\MattsDesktop\ECSE6320P1SIMD\Project1DotProduct\dotpMain.cpp:107: }
	.loc 1 107 1 view .LVU592
	ret	
	.cfi_endproc
.LFE10974:
	.seh_endproc
	.p2align 4
	.globl	_Z9dotp_sse2IiEvPKT_S2_yRS0_
	.def	_Z9dotp_sse2IiEvPKT_S2_yRS0_;	.scl	2;	.type	32;	.endef
	.seh_proc	_Z9dotp_sse2IiEvPKT_S2_yRS0_
_Z9dotp_sse2IiEvPKT_S2_yRS0_:
.LFB12011:
	.cfi_startproc
	.loc 1 139 6 is_stmt 1 view .LVU593
	.seh_endprologue
	xorl	%r11d, %r11d	 # s
	testq	%r8, %r8	 # n
	je	.L59	 #,
	xorl	%eax, %eax	 # i
	.p2align 5
	.p2align 4
	.p2align 3
.L60:
	movl	(%rcx,%rax,4), %r10d	 # MEM[(const int32_t *)x_2(D) + i_19 * 4], MEM[(const int32_t *)x_2(D) + i_19 * 4]
	imull	(%rdx,%rax,4), %r10d	 # MEM[(const int32_t *)y_3(D) + i_19 * 4], _13
	addq	$1, %rax	 #, i
	addl	%r10d, %r11d	 # _13, s
	cmpq	%rax, %r8	 # i, n
	jne	.L60	 #,
.L59:
	movl	%r11d, (%r9)	 # s, *out_sum_5(D)
	ret	
	.cfi_endproc
.LFE12011:
	.seh_endproc
	.p2align 4
	.globl	_Z8dotp_avxIiEvPKT_S2_yRS0_
	.def	_Z8dotp_avxIiEvPKT_S2_yRS0_;	.scl	2;	.type	32;	.endef
	.seh_proc	_Z8dotp_avxIiEvPKT_S2_yRS0_
_Z8dotp_avxIiEvPKT_S2_yRS0_:
.LFB12013:
	.cfi_startproc
	.loc 1 175 6 view .LVU594
	.seh_endprologue
	xorl	%r11d, %r11d	 # s
	testq	%r8, %r8	 # n
	je	.L64	 #,
	xorl	%eax, %eax	 # i
	.p2align 5
	.p2align 4
	.p2align 3
.L65:
	movl	(%rcx,%rax,4), %r10d	 # MEM[(const int32_t *)x_2(D) + i_19 * 4], MEM[(const int32_t *)x_2(D) + i_19 * 4]
	imull	(%rdx,%rax,4), %r10d	 # MEM[(const int32_t *)y_3(D) + i_19 * 4], _13
	addq	$1, %rax	 #, i
	addl	%r10d, %r11d	 # _13, s
	cmpq	%rax, %r8	 # i, n
	jne	.L65	 #,
.L64:
	movl	%r11d, (%r9)	 # s, *out_sum_5(D)
	ret	
	.cfi_endproc
.LFE12013:
	.seh_endproc
	.p2align 4
	.globl	_Z11dotp_avx512IiEvPKT_S2_yRS0_
	.def	_Z11dotp_avx512IiEvPKT_S2_yRS0_;	.scl	2;	.type	32;	.endef
	.seh_proc	_Z11dotp_avx512IiEvPKT_S2_yRS0_
_Z11dotp_avx512IiEvPKT_S2_yRS0_:
.LFB12015:
	.cfi_startproc
	.loc 1 211 6 view .LVU595
	.seh_endprologue
	xorl	%r11d, %r11d	 # s
	testq	%r8, %r8	 # n
	je	.L69	 #,
	xorl	%eax, %eax	 # i
	.p2align 5
	.p2align 4
	.p2align 3
.L70:
	movl	(%rcx,%rax,4), %r10d	 # MEM[(const int32_t *)x_2(D) + i_19 * 4], MEM[(const int32_t *)x_2(D) + i_19 * 4]
	imull	(%rdx,%rax,4), %r10d	 # MEM[(const int32_t *)y_3(D) + i_19 * 4], _13
	addq	$1, %rax	 #, i
	addl	%r10d, %r11d	 # _13, s
	cmpq	%rax, %r8	 # i, n
	jne	.L70	 #,
.L69:
	movl	%r11d, (%r9)	 # s, *out_sum_5(D)
	ret	
	.cfi_endproc
.LFE12015:
	.seh_endproc
	.section	.text$_ZNSt7__cxx1112basic_stringIcSt11char_traitsIcESaIcEE22__resize_and_overwriteIZNS_9to_stringEyEUlPcyE_EEvyT_,"x"
	.linkonce discard
	.align 2
	.p2align 4
	.globl	_ZNSt7__cxx1112basic_stringIcSt11char_traitsIcESaIcEE22__resize_and_overwriteIZNS_9to_stringEyEUlPcyE_EEvyT_
	.def	_ZNSt7__cxx1112basic_stringIcSt11char_traitsIcESaIcEE22__resize_and_overwriteIZNS_9to_stringEyEUlPcyE_EEvyT_;	.scl	2;	.type	32;	.endef
	.seh_proc	_ZNSt7__cxx1112basic_stringIcSt11char_traitsIcESaIcEE22__resize_and_overwriteIZNS_9to_stringEyEUlPcyE_EEvyT_
_ZNSt7__cxx1112basic_stringIcSt11char_traitsIcESaIcEE22__resize_and_overwriteIZNS_9to_stringEyEUlPcyE_EEvyT_:
.LVL166:
.LFB11117:
	.file 6 "C:/msys64/ucrt64/include/c++/14.2.0/bits/basic_string.tcc"
	.loc 6 583 5 view -0
	.cfi_startproc
	.loc 6 583 5 is_stmt 0 view .LVU597
	pushq	%rbp	 #
	.seh_pushreg	%rbp
	.cfi_def_cfa_offset 16
	.cfi_offset 6, -16
	pushq	%rdi	 #
	.seh_pushreg	%rdi
	.cfi_def_cfa_offset 24
	.cfi_offset 5, -24
	pushq	%rsi	 #
	.seh_pushreg	%rsi
	.cfi_def_cfa_offset 32
	.cfi_offset 4, -32
	pushq	%rbx	 #
	.seh_pushreg	%rbx
	.cfi_def_cfa_offset 40
	.cfi_offset 3, -40
	subq	$248, %rsp	 #,
	.seh_stackalloc	248
	.cfi_def_cfa_offset 288
	.seh_endprologue
 # C:/msys64/ucrt64/include/c++/14.2.0/bits/basic_string.tcc:583:     basic_string<_CharT, _Traits, _Alloc>::
	.loc 6 583 5 view .LVU598
	movq	%rdx, %rdi	 # tmp150, __n
	movq	%rcx, %rbp	 # tmp149, this
	movq	%r8, %rsi	 # tmp151, __op
.LVL167:
 # C:/msys64/ucrt64/include/c++/14.2.0/bits/basic_string.tcc:590:       reserve(__n);
	.loc 6 590 14 view .LVU599
	call	_ZNSt7__cxx1112basic_stringIcSt11char_traitsIcESaIcEE7reserveEy	 #
.LVL168:
.LBB3249:
.LBI3249:
	.file 7 "C:/msys64/ucrt64/include/c++/14.2.0/bits/basic_string.h"
	.loc 7 227 7 is_stmt 1 view .LVU600
.LBB3250:
 # C:/msys64/ucrt64/include/c++/14.2.0/bits/basic_string.h:228:       { return _M_dataplus._M_p; }
	.loc 7 228 28 is_stmt 0 view .LVU601
	movq	0(%rbp), %rbx	 # MEM[(const struct basic_string *)this_2(D)]._M_dataplus._M_p, _7
.LVL169:
	.loc 7 228 28 view .LVU602
.LBE3250:
.LBE3249:
.LBB3251:
.LBI3251:
	.loc 7 4331 41 is_stmt 1 view .LVU603
.LBB3252:
	.loc 7 4332 7 view .LVU604
 # C:/msys64/ucrt64/include/c++/14.2.0/bits/basic_string.h:4332:       __detail::__to_chars_10_impl(__p, __n, __val);
	.loc 7 4332 35 is_stmt 0 view .LVU605
	movq	%rsi, %r8	 # __op, __val
.LVL170:
.LBB3253:
.LBI3253:
	.file 8 "C:/msys64/ucrt64/include/c++/14.2.0/bits/charconv.h"
	.loc 8 81 5 is_stmt 1 view .LVU606
.LBB3254:
 # C:/msys64/ucrt64/include/c++/14.2.0/bits/charconv.h:93:       unsigned __pos = __len - 1;
	.loc 8 93 16 is_stmt 0 view .LVU607
	leal	-1(%rdi), %r9d	 #, __pos
.LVL171:
	.loc 8 94 20 is_stmt 1 view .LVU608
 # C:/msys64/ucrt64/include/c++/14.2.0/bits/charconv.h:87:       constexpr char __digits[201] =
	.loc 8 87 22 is_stmt 0 view .LVU609
	vmovdqu64	.LC2(%rip), %zmm0	 #, tmp124
	movabsq	$4122263930388298034, %rax	 #, tmp154
	movabsq	$16106987313379638, %rdx	 #,
	movq	%rdx, 225(%rsp)	 #, __digits
	vmovdqu64	%zmm0, 32(%rsp)	 # tmp124, __digits
	vmovdqu64	.LC3(%rip), %zmm0	 #, tmp125
	vmovdqu64	%zmm0, 96(%rsp)	 # tmp125, __digits
	vmovdqu64	.LC4(%rip), %zmm0	 #, tmp126
	vmovdqu64	%zmm0, 160(%rsp)	 # tmp126, __digits
	movq	%rax, 217(%rsp)	 # tmp154, __digits
 # C:/msys64/ucrt64/include/c++/14.2.0/bits/charconv.h:94:       while (__val >= 100)
	.loc 8 94 20 view .LVU610
	cmpq	$99, %rsi	 #, __val
	jbe	.L74	 #,
.LBB3255:
 # C:/msys64/ucrt64/include/c++/14.2.0/bits/charconv.h:96: 	  auto const __num = (__val % 100) * 2;
	.loc 8 96 30 view .LVU611
	movabsq	$2951479051793528259, %rsi	 #, tmp130
.LVL172:
	.p2align 4
	.p2align 3
.L75:
	.loc 8 96 30 view .LVU612
	movq	%r8, %rdx	 # __val, tmp128
	shrq	$2, %rdx	 #, tmp128
	movq	%rdx, %rax	 # tmp128, tmp128
	mulq	%rsi	 # tmp130
	movq	%r8, %rax	 # __val, _15
	movq	%rdx, %r11	 # tmp129, tmp127
	andq	$-4, %rdx	 #, tmp132
	shrq	$2, %r11	 #, tmp127
	addq	%r11, %rdx	 # tmp127, tmp133
	leaq	(%rdx,%rdx,4), %r10	 #, tmp135
	salq	$2, %r10	 #, tmp136
	subq	%r10, %rax	 # tmp136, _15
	movq	%r8, %r10	 # __val, __val
 # C:/msys64/ucrt64/include/c++/14.2.0/bits/charconv.h:97: 	  __val /= 100;
	.loc 8 97 10 view .LVU613
	movq	%r11, %r8	 # tmp127, __val
.LVL173:
 # C:/msys64/ucrt64/include/c++/14.2.0/bits/charconv.h:98: 	  __first[__pos] = __digits[__num + 1];
	.loc 8 98 12 view .LVU614
	movl	%r9d, %r11d	 # __pos, _20
 # C:/msys64/ucrt64/include/c++/14.2.0/bits/charconv.h:96: 	  auto const __num = (__val % 100) * 2;
	.loc 8 96 15 view .LVU615
	addq	%rax, %rax	 # __num
.LVL174:
 # C:/msys64/ucrt64/include/c++/14.2.0/bits/charconv.h:98: 	  __first[__pos] = __digits[__num + 1];
	.loc 8 98 19 view .LVU616
	movzbl	33(%rsp,%rax), %ecx	 # __digits[_18], tmp159
 # C:/msys64/ucrt64/include/c++/14.2.0/bits/charconv.h:99: 	  __first[__pos - 1] = __digits[__num];
	.loc 8 99 23 view .LVU617
	movzbl	32(%rsp,%rax), %eax	 # __digits[__num_16], __digits[__num_16]
.LVL175:
 # C:/msys64/ucrt64/include/c++/14.2.0/bits/charconv.h:98: 	  __first[__pos] = __digits[__num + 1];
	.loc 8 98 19 view .LVU618
	movb	%cl, (%rbx,%r11)	 # tmp159, *_21
 # C:/msys64/ucrt64/include/c++/14.2.0/bits/charconv.h:99: 	  __first[__pos - 1] = __digits[__num];
	.loc 8 99 18 view .LVU619
	leal	-1(%r9), %r11d	 #, _24
 # C:/msys64/ucrt64/include/c++/14.2.0/bits/charconv.h:100: 	  __pos -= 2;
	.loc 8 100 10 view .LVU620
	subl	$2, %r9d	 #, __pos
.LVL176:
	.loc 8 100 10 view .LVU621
.LBE3255:
	.loc 8 94 20 is_stmt 1 view .LVU622
.LBB3256:
 # C:/msys64/ucrt64/include/c++/14.2.0/bits/charconv.h:99: 	  __first[__pos - 1] = __digits[__num];
	.loc 8 99 23 is_stmt 0 view .LVU623
	movb	%al, (%rbx,%r11)	 # __digits[__num_16], *_25
.LBE3256:
 # C:/msys64/ucrt64/include/c++/14.2.0/bits/charconv.h:94:       while (__val >= 100)
	.loc 8 94 20 view .LVU624
	cmpq	$9999, %r10	 #, __val
	ja	.L75	 #,
.LVL177:
.L74:
.LBB3257:
 # C:/msys64/ucrt64/include/c++/14.2.0/bits/charconv.h:109: 	__first[0] = '0' + __val;
	.loc 8 109 19 view .LVU625
	leal	48(%r8), %eax	 #, _31
 # C:/msys64/ucrt64/include/c++/14.2.0/bits/charconv.h:102:       if (__val >= 10)
	.loc 8 102 7 view .LVU626
	cmpq	$9, %r8	 #, __val
	jbe	.L77	 #,
.LBB3258:
 # C:/msys64/ucrt64/include/c++/14.2.0/bits/charconv.h:104: 	  auto const __num = __val * 2;
	.loc 8 104 15 view .LVU627
	addq	%r8, %r8	 # __num
.LVL178:
 # C:/msys64/ucrt64/include/c++/14.2.0/bits/charconv.h:105: 	  __first[1] = __digits[__num + 1];
	.loc 8 105 15 view .LVU628
	movzbl	33(%rsp,%r8), %eax	 # __digits[_29], __digits[_29]
	movb	%al, 1(%rbx)	 # __digits[_29], MEM[(char *)_7 + 1B]
 # C:/msys64/ucrt64/include/c++/14.2.0/bits/charconv.h:106: 	  __first[0] = __digits[__num];
	.loc 8 106 25 view .LVU629
	movzbl	32(%rsp,%r8), %eax	 # __digits[__num_28], _31
.LVL179:
.L77:
 # C:/msys64/ucrt64/include/c++/14.2.0/bits/charconv.h:106: 	  __first[0] = __digits[__num];
	.loc 8 106 15 view .LVU630
	movb	%al, (%rbx)	 # _31, *_7
.LVL180:
	.loc 8 106 15 view .LVU631
.LBE3258:
.LBE3257:
.LBE3254:
.LBE3253:
	.loc 7 4333 7 is_stmt 1 view .LVU632
	.loc 7 4333 7 is_stmt 0 view .LVU633
.LBE3252:
.LBE3251:
.LBB3259:
.LBI3259:
	.loc 6 597 23 is_stmt 1 view .LVU634
.LBB3260:
.LBI3260:
	.loc 7 259 7 view .LVU635
.LBB3261:
.LBB3262:
.LBI3262:
	.loc 7 222 7 view .LVU636
.LBE3262:
.LBB3264:
.LBB3265:
 # C:/msys64/ucrt64/include/c++/14.2.0/bits/char_traits.h:350: 	__c1 = __c2;
	.file 9 "C:/msys64/ucrt64/include/c++/14.2.0/bits/char_traits.h"
	.loc 9 350 7 is_stmt 0 view .LVU637
	movq	0(%rbp), %rax	 # MEM[(const struct basic_string *)this_2(D)]._M_dataplus._M_p, MEM[(const struct basic_string *)this_2(D)]._M_dataplus._M_p
.LBE3265:
.LBE3264:
.LBB3267:
.LBB3263:
 # C:/msys64/ucrt64/include/c++/14.2.0/bits/basic_string.h:223:       { _M_string_length = __length; }
	.loc 7 223 26 view .LVU638
	movq	%rdi, 8(%rbp)	 # __n, this_2(D)->_M_string_length
.LVL181:
	.loc 7 223 26 view .LVU639
.LBE3263:
.LBE3267:
.LBB3268:
.LBI3268:
	.loc 7 227 7 is_stmt 1 view .LVU640
	.loc 7 227 7 is_stmt 0 view .LVU641
.LBE3268:
.LBB3269:
.LBI3264:
	.loc 9 343 7 is_stmt 1 view .LVU642
.LBB3266:
	.loc 9 350 2 view .LVU643
 # C:/msys64/ucrt64/include/c++/14.2.0/bits/char_traits.h:350: 	__c1 = __c2;
	.loc 9 350 7 is_stmt 0 view .LVU644
	movb	$0, (%rax,%rdi)	 #, MEM[(char_type &)_9]
.LVL182:
	.loc 9 350 7 view .LVU645
	vzeroupper
.LVL183:
.LBE3266:
.LBE3269:
.LBE3261:
.LBE3260:
.LBE3259:
 # C:/msys64/ucrt64/include/c++/14.2.0/bits/basic_string.tcc:613:     }
	.loc 6 613 5 view .LVU646
	addq	$248, %rsp	 #,
	.cfi_def_cfa_offset 40
	popq	%rbx	 #
	.cfi_restore 3
	.cfi_def_cfa_offset 32
.LVL184:
	.loc 6 613 5 view .LVU647
	popq	%rsi	 #
	.cfi_restore 4
	.cfi_def_cfa_offset 24
.LVL185:
	.loc 6 613 5 view .LVU648
	popq	%rdi	 #
	.cfi_restore 5
	.cfi_def_cfa_offset 16
.LVL186:
	.loc 6 613 5 view .LVU649
	popq	%rbp	 #
	.cfi_restore 6
	.cfi_def_cfa_offset 8
.LVL187:
	.loc 6 613 5 view .LVU650
	ret	
	.cfi_endproc
.LFE11117:
	.seh_endproc
	.section .rdata,"dr"
.LC5:
	.ascii "CSV open failed\12\0"
	.align 8
.LC6:
	.ascii "Kernel,Type,N_buf,Pattern,Stride,Trial,Time(ms),GFLOP/s,Result\12\0"
.LC7:
	.ascii "\12\0"
	.section	.text$_Z13log_per_trialIfEvRKNSt7__cxx1112basic_stringIcSt11char_traitsIcESaIcEEES7_S7_yS7_yiddT_,"x"
	.linkonce discard
	.p2align 4
	.globl	_Z13log_per_trialIfEvRKNSt7__cxx1112basic_stringIcSt11char_traitsIcESaIcEEES7_S7_yS7_yiddT_
	.def	_Z13log_per_trialIfEvRKNSt7__cxx1112basic_stringIcSt11char_traitsIcESaIcEEES7_S7_yS7_yiddT_;	.scl	2;	.type	32;	.endef
	.seh_proc	_Z13log_per_trialIfEvRKNSt7__cxx1112basic_stringIcSt11char_traitsIcESaIcEEES7_S7_yS7_yiddT_
_Z13log_per_trialIfEvRKNSt7__cxx1112basic_stringIcSt11char_traitsIcESaIcEEES7_S7_yS7_yiddT_:
.LVL188:
.LFB11627:
	.loc 1 37 6 is_stmt 1 view -0
	.cfi_startproc
	.loc 1 37 6 is_stmt 0 view .LVU652
	pushq	%r15	 #
	.seh_pushreg	%r15
	.cfi_def_cfa_offset 16
	.cfi_offset 15, -16
	pushq	%r14	 #
	.seh_pushreg	%r14
	.cfi_def_cfa_offset 24
	.cfi_offset 14, -24
	pushq	%r13	 #
	.seh_pushreg	%r13
	.cfi_def_cfa_offset 32
	.cfi_offset 13, -32
	pushq	%r12	 #
	.seh_pushreg	%r12
	.cfi_def_cfa_offset 40
	.cfi_offset 12, -40
	pushq	%rbp	 #
	.seh_pushreg	%rbp
	.cfi_def_cfa_offset 48
	.cfi_offset 6, -48
	pushq	%rdi	 #
	.seh_pushreg	%rdi
	.cfi_def_cfa_offset 56
	.cfi_offset 5, -56
	pushq	%rsi	 #
	.seh_pushreg	%rsi
	.cfi_def_cfa_offset 64
	.cfi_offset 4, -64
	pushq	%rbx	 #
	.seh_pushreg	%rbx
	.cfi_def_cfa_offset 72
	.cfi_offset 3, -72
	subq	$552, %rsp	 #,
	.seh_stackalloc	552
	.cfi_def_cfa_offset 624
	.seh_endprologue
.LVL189:
.LBB3446:
.LBI3446:
	.file 10 "C:/msys64/ucrt64/include/c++/14.2.0/fstream"
	.loc 10 874 7 is_stmt 1 view .LVU653
.LBB3447:
.LBB3448:
.LBB3449:
.LBI3449:
	.file 11 "C:/msys64/ucrt64/include/c++/14.2.0/bits/basic_ios.h"
	.loc 11 464 7 view .LVU654
.LBB3450:
.LBB3451:
 # C:/msys64/ucrt64/include/c++/14.2.0/bits/basic_ios.h:466: 	_M_streambuf(0), _M_ctype(0), _M_num_put(0), _M_num_get(0)
	.loc 11 466 59 is_stmt 0 view .LVU655
	leaq	280(%rsp), %r14	 #, tmp319
.LVL190:
	.loc 11 466 59 view .LVU656
.LBE3451:
.LBE3450:
.LBE3449:
.LBE3448:
.LBE3447:
.LBE3446:
 # C:\Users\MattsDesktop\ECSE6320P1SIMD\Project1DotProduct\dotpMain.cpp:37: void log_per_trial(const std::string &filename,
	.loc 1 37 6 view .LVU657
	movq	%rdx, %rsi	 # tmp322, kernel
	movq	%r8, %rbp	 # tmp323, dtype
	movq	%rcx, 624(%rsp)	 # tmp321, filename
.LVL191:
.LBB3509:
.LBB3504:
.LBB3499:
.LBB3462:
.LBB3457:
.LBB3452:
 # C:/msys64/ucrt64/include/c++/14.2.0/bits/basic_ios.h:466: 	_M_streambuf(0), _M_ctype(0), _M_num_put(0), _M_num_get(0)
	.loc 11 466 59 view .LVU658
	movq	%r14, %rcx	 # tmp319,
.LVL192:
	.loc 11 466 59 view .LVU659
.LBE3452:
.LBE3457:
.LBE3462:
.LBE3499:
.LBE3504:
.LBE3509:
 # C:\Users\MattsDesktop\ECSE6320P1SIMD\Project1DotProduct\dotpMain.cpp:37: void log_per_trial(const std::string &filename,
	.loc 1 37 6 view .LVU660
	movq	%r9, 648(%rsp)	 # tmp324, N_buf
.LBB3510:
.LBB3505:
.LBB3500:
.LBB3463:
.LBB3458:
.LBB3453:
 # C:/msys64/ucrt64/include/c++/14.2.0/bits/basic_ios.h:466: 	_M_streambuf(0), _M_ctype(0), _M_num_put(0), _M_num_get(0)
	.loc 11 466 59 view .LVU661
	leaq	64(%rsp), %r13	 #, tmp316
.LVL193:
	.loc 11 466 59 view .LVU662
	call	_ZNSt8ios_baseC2Ev	 #
.LVL194:
 # C:/msys64/ucrt64/include/c++/14.2.0/bits/basic_ios.h:466: 	_M_streambuf(0), _M_ctype(0), _M_num_put(0), _M_num_get(0)
	.loc 11 466 59 discriminator 1 view .LVU663
	movq	.refptr._ZTVSt9basic_iosIcSt11char_traitsIcEE(%rip), %rax	 #, tmp350
.LBE3453:
.LBE3458:
.LBE3463:
.LBB3464:
.LBB3465:
.LBB3466:
 # C:/msys64/ucrt64/include/c++/14.2.0/ostream:438:       { this->init(0); }
	.file 12 "C:/msys64/ucrt64/include/c++/14.2.0/ostream"
	.loc 12 438 19 view .LVU664
	xorl	%edx, %edx	 #
.LBE3466:
.LBE3465:
.LBE3464:
.LBB3473:
.LBB3459:
.LBB3454:
 # C:/msys64/ucrt64/include/c++/14.2.0/bits/basic_ios.h:465:       : ios_base(), _M_tie(0), _M_fill(char_type()), _M_fill_init(false), 
	.loc 11 465 21 view .LVU665
	movq	$0, 496(%rsp)	 #, MEM[(struct basic_ios *)&f + 216B]._M_tie
 # C:/msys64/ucrt64/include/c++/14.2.0/bits/basic_ios.h:466: 	_M_streambuf(0), _M_ctype(0), _M_num_put(0), _M_num_get(0)
	.loc 11 466 2 view .LVU666
	movq	$0, 512(%rsp)	 #, MEM[(struct basic_ios *)&f + 216B]._M_streambuf
 # C:/msys64/ucrt64/include/c++/14.2.0/bits/basic_ios.h:466: 	_M_streambuf(0), _M_ctype(0), _M_num_put(0), _M_num_get(0)
	.loc 11 466 19 view .LVU667
	movq	$0, 520(%rsp)	 #, MEM[(struct basic_ios *)&f + 216B]._M_ctype
 # C:/msys64/ucrt64/include/c++/14.2.0/bits/basic_ios.h:466: 	_M_streambuf(0), _M_ctype(0), _M_num_put(0), _M_num_get(0)
	.loc 11 466 59 discriminator 1 view .LVU668
	addq	$16, %rax	 #, tmp199
	movq	%rax, 280(%rsp)	 # tmp199, MEM[(struct basic_ios *)&f + 216B].D.51970._vptr.ios_base
 # C:/msys64/ucrt64/include/c++/14.2.0/bits/basic_ios.h:465:       : ios_base(), _M_tie(0), _M_fill(char_type()), _M_fill_init(false), 
	.loc 11 465 32 view .LVU669
	xorl	%eax, %eax	 #
	movw	%ax, 504(%rsp)	 #, MEM <unsigned short> [(void *)&f + 440B]
.LBE3454:
.LBE3459:
.LBE3473:
.LBB3474:
.LBB3470:
.LBB3467:
 # C:/msys64/ucrt64/include/c++/14.2.0/ostream:438:       { this->init(0); }
	.loc 12 438 7 view .LVU670
	movq	.refptr._ZTTSt14basic_ofstreamIcSt11char_traitsIcEE(%rip), %rax	 #, tmp200
.LBE3467:
.LBE3470:
.LBE3474:
.LBB3475:
.LBB3460:
.LBB3455:
 # C:/msys64/ucrt64/include/c++/14.2.0/bits/basic_ios.h:466: 	_M_streambuf(0), _M_ctype(0), _M_num_put(0), _M_num_get(0)
	.loc 11 466 32 view .LVU671
	movq	$0, 528(%rsp)	 #, MEM[(struct basic_ios *)&f + 216B]._M_num_put
.LBE3455:
.LBE3460:
.LBE3475:
.LBB3476:
.LBB3471:
.LBB3468:
 # C:/msys64/ucrt64/include/c++/14.2.0/ostream:438:       { this->init(0); }
	.loc 12 438 7 view .LVU672
	movq	8(%rax), %rdi	 # MEM[(const void * *)&_ZTTSt14basic_ofstreamIcSt11char_traitsIcEE + 8B], _74
	movq	16(%rax), %r15	 # MEM[(const void * *)&_ZTTSt14basic_ofstreamIcSt11char_traitsIcEE + 16B], _78
.LBE3468:
.LBE3471:
.LBE3476:
.LBB3477:
.LBB3461:
.LBB3456:
 # C:/msys64/ucrt64/include/c++/14.2.0/bits/basic_ios.h:466: 	_M_streambuf(0), _M_ctype(0), _M_num_put(0), _M_num_get(0)
	.loc 11 466 47 view .LVU673
	movq	$0, 536(%rsp)	 #, MEM[(struct basic_ios *)&f + 216B]._M_num_get
.LVL195:
	.loc 11 466 47 view .LVU674
.LBE3456:
.LBE3461:
.LBE3477:
.LBB3478:
.LBI3464:
	.loc 12 437 7 is_stmt 1 view .LVU675
.LBB3472:
.LBB3469:
 # C:/msys64/ucrt64/include/c++/14.2.0/ostream:438:       { this->init(0); }
	.loc 12 438 7 is_stmt 0 view .LVU676
	movq	-24(%rdi), %rcx	 # MEM[(long long int *)_74 + -24B], _77
	movq	%rdi, 64(%rsp)	 # _74, MEM[(struct basic_ostream *)&f]._vptr.basic_ostream
	addq	%r13, %rcx	 # tmp316, _77
	movq	%r15, (%rcx)	 # _78, MEM[(struct basic_ios *)_77].D.51970._vptr.ios_base
.LEHB0:
 # C:/msys64/ucrt64/include/c++/14.2.0/ostream:438:       { this->init(0); }
	.loc 12 438 19 view .LVU677
	call	_ZNSt9basic_iosIcSt11char_traitsIcEE4initEPSt15basic_streambufIcS1_E	 #
.LVL196:
.LEHE0:
	.loc 12 438 19 view .LVU678
.LBE3469:
.LBE3472:
.LBE3478:
 # C:/msys64/ucrt64/include/c++/14.2.0/fstream:876:       : __ostream_type(), _M_filebuf()
	.loc 10 876 38 discriminator 1 view .LVU679
	movq	.refptr._ZTVSt14basic_ofstreamIcSt11char_traitsIcEE(%rip), %rbx	 #, tmp318
 # C:/msys64/ucrt64/include/c++/14.2.0/fstream:876:       : __ostream_type(), _M_filebuf()
	.loc 10 876 27 discriminator 1 view .LVU680
	leaq	72(%rsp), %r12	 #, tmp317
	movq	%r12, %rcx	 # tmp317,
 # C:/msys64/ucrt64/include/c++/14.2.0/fstream:876:       : __ostream_type(), _M_filebuf()
	.loc 10 876 38 discriminator 1 view .LVU681
	leaq	24(%rbx), %rax	 #, tmp205
	movq	%rax, 64(%rsp)	 # tmp205, MEM[(struct basic_ofstream *)&f].D.107333._vptr.basic_ostream
	leaq	64(%rbx), %rax	 #, tmp207
	movq	%rax, 280(%rsp)	 # tmp207, MEM[(struct basic_ios *)&f + 216B].D.51970._vptr.ios_base
.LEHB1:
 # C:/msys64/ucrt64/include/c++/14.2.0/fstream:876:       : __ostream_type(), _M_filebuf()
	.loc 10 876 27 discriminator 1 view .LVU682
	call	_ZNSt13basic_filebufIcSt11char_traitsIcEEC1Ev	 #
.LVL197:
.LEHE1:
 # C:/msys64/ucrt64/include/c++/14.2.0/fstream:878: 	this->init(&_M_filebuf);
	.loc 10 878 12 view .LVU683
	movq	%r12, %rdx	 # tmp317,
	movq	%r14, %rcx	 # tmp319,
.LEHB2:
	call	_ZNSt9basic_iosIcSt11char_traitsIcEE4initEPSt15basic_streambufIcS1_E	 #
.LVL198:
.LBB3479:
.LBI3479:
	.loc 10 1009 7 is_stmt 1 view .LVU684
.LBB3480:
.LBB3481:
.LBI3481:
	.loc 10 341 7 view .LVU685
.LBB3482:
 # C:/msys64/ucrt64/include/c++/14.2.0/fstream:342:       { return open(__s.c_str(), __mode); }
	.loc 10 342 20 is_stmt 0 discriminator 1 view .LVU686
	movq	624(%rsp), %rax	 # filename, tmp352
	movl	$17, %r8d	 #,
	movq	%r12, %rcx	 # tmp317,
	movq	(%rax), %rdx	 # MEM[(char * *)filename_6(D)], MEM[(char * *)filename_6(D)]
	call	_ZNSt13basic_filebufIcSt11char_traitsIcEE4openEPKcSt13_Ios_Openmode	 #
.LVL199:
	.loc 10 342 20 discriminator 1 view .LVU687
.LBE3482:
.LBE3481:
.LBB3483:
.LBB3484:
 # C:/msys64/ucrt64/include/c++/14.2.0/fstream:973: 	  this->setstate(ios_base::failbit);
	.loc 10 973 18 view .LVU688
	movq	64(%rsp), %rdx	 # f.D.107333._vptr.basic_ostream, f.D.107333._vptr.basic_ostream
	movq	-24(%rdx), %rcx	 # MEM[(long long int *)pretmp_196 + -24B], _213
	addq	%r13, %rcx	 # tmp316, _213
.LBE3484:
.LBE3483:
 # C:/msys64/ucrt64/include/c++/14.2.0/fstream:1011: 	if (!_M_filebuf.open(__s, __mode | ios_base::out))
	.loc 10 1011 2 discriminator 2 view .LVU689
	testq	%rax, %rax	 # tmp325
	je	.L118	 #,
 # C:/msys64/ucrt64/include/c++/14.2.0/fstream:1016: 	  this->clear();
	.loc 10 1016 15 view .LVU690
	xorl	%edx, %edx	 #
	call	_ZNSt9basic_iosIcSt11char_traitsIcEE5clearESt12_Ios_Iostate	 #
.LVL200:
.LEHE2:
	.loc 10 1016 15 view .LVU691
.LBE3480:
.LBE3479:
.LBE3500:
.LBE3505:
.LBE3510:
.LBB3511:
.LBI3511:
	.loc 11 129 7 is_stmt 1 view .LVU692
.LBB3512:
.LBI3512:
	.loc 11 205 7 view .LVU693
.LBB3513:
.LBI3513:
	.loc 11 141 7 view .LVU694
	.loc 11 141 7 is_stmt 0 view .LVU695
.LBE3513:
.LBB3514:
.LBI3514:
	.file 13 "C:/msys64/ucrt64/include/c++/14.2.0/bits/ios_base.h"
	.loc 13 181 3 is_stmt 1 view .LVU696
.LBB3515:
	.loc 13 182 5 view .LVU697
	.loc 13 182 5 is_stmt 0 view .LVU698
.LBE3515:
.LBE3514:
.LBE3512:
.LBE3511:
 # C:\Users\MattsDesktop\ECSE6320P1SIMD\Project1DotProduct\dotpMain.cpp:48:     if (!f) { std::cerr<<"CSV open failed\n"; return; }
	.loc 1 48 5 discriminator 1 view .LVU699
	testb	$5, 312(%rsp)	 #, MEM[(const struct basic_ios *)&f + 216B].D.51970._M_streambuf_state
	jne	.L119	 #,
.L116:
 # C:\Users\MattsDesktop\ECSE6320P1SIMD\Project1DotProduct\dotpMain.cpp:49:     if (!csv_header_written) {
	.loc 1 49 5 view .LVU700
	cmpb	$0, _ZL18csv_header_written(%rip)	 #, csv_header_written
	jne	.L90	 #,
.LVL201:
.LBB3520:
.LBI3520:
	.loc 12 668 5 is_stmt 1 view .LVU701
.LBB3521:
 # C:/msys64/ucrt64/include/c++/14.2.0/ostream:673: 	__ostream_insert(__out, __s,
	.loc 12 673 18 is_stmt 0 view .LVU702
	movl	$63, %r8d	 #,
	leaq	.LC6(%rip), %rdx	 #, tmp260
	movq	%r13, %rcx	 # tmp316,
.LEHB3:
	call	_ZSt16__ostream_insertIcSt11char_traitsIcEERSt13basic_ostreamIT_T0_ES6_PKS3_x	 #
.LVL202:
	.loc 12 673 18 view .LVU703
.LBE3521:
.LBE3520:
 # C:\Users\MattsDesktop\ECSE6320P1SIMD\Project1DotProduct\dotpMain.cpp:51:         csv_header_written = true;
	.loc 1 51 28 view .LVU704
	movb	$1, _ZL18csv_header_written(%rip)	 #, csv_header_written
.L90:
.LVL203:
.LBB3522:
.LBI3522:
	.loc 7 4077 5 is_stmt 1 view .LVU705
.LBB3523:
.LBB3524:
.LBI3524:
	.loc 7 1076 7 view .LVU706
	.loc 7 1076 7 is_stmt 0 view .LVU707
.LBE3524:
.LBB3525:
.LBI3525:
	.loc 7 2653 7 is_stmt 1 view .LVU708
.LBB3526:
.LBI3526:
	.loc 7 227 7 view .LVU709
	.loc 7 227 7 is_stmt 0 view .LVU710
.LBE3526:
.LBE3525:
 # C:/msys64/ucrt64/include/c++/14.2.0/bits/basic_string.h:4082:       return __ostream_insert(__os, __str.data(), __str.size());
	.loc 7 4082 30 discriminator 2 view .LVU711
	movq	(%rsi), %rdx	 # MEM[(const struct basic_string *)kernel_11(D)]._M_dataplus._M_p, MEM[(const struct basic_string *)kernel_11(D)]._M_dataplus._M_p
	movq	8(%rsi), %r8	 # MEM[(const struct basic_string *)kernel_11(D)]._M_string_length,
	movq	%r13, %rcx	 # tmp316,
	call	_ZSt16__ostream_insertIcSt11char_traitsIcEERSt13basic_ostreamIT_T0_ES6_PKS3_x	 #
.LVL204:
	movq	%rax, %rcx	 # tmp330, _132
.LVL205:
	.loc 7 4082 30 discriminator 2 view .LVU712
.LBE3523:
.LBE3522:
.LBB3527:
.LBB3528:
 # C:/msys64/ucrt64/include/c++/14.2.0/ostream:578:       if (__out.width() != 0)
	.loc 12 578 22 view .LVU713
	movq	(%rax), %rax	 # _49->_vptr.basic_ostream, _49->_vptr.basic_ostream
.LVL206:
	.loc 12 578 22 view .LVU714
	movb	$44, 56(%rsp)	 #, __c
.LVL207:
	.loc 12 578 22 view .LVU715
.LBE3528:
.LBI3527:
	.loc 12 576 5 is_stmt 1 view .LVU716
.LBB3531:
.LBB3529:
.LBI3529:
	.loc 13 775 5 view .LVU717
.LBB3530:
	.loc 13 776 7 view .LVU718
 # C:/msys64/ucrt64/include/c++/14.2.0/bits/ios_base.h:776:     { return _M_width; }
	.loc 13 776 14 is_stmt 0 view .LVU719
	movq	-24(%rax), %rax	 # MEM[(long long int *)_127 + -24B], MEM[(long long int *)_127 + -24B]
.LBE3530:
.LBE3529:
 # C:/msys64/ucrt64/include/c++/14.2.0/ostream:578:       if (__out.width() != 0)
	.loc 12 578 7 discriminator 1 view .LVU720
	cmpq	$0, 16(%rcx,%rax)	 #, MEM[(const struct ios_base *)_130]._M_width
	jne	.L120	 #,
 # C:/msys64/ucrt64/include/c++/14.2.0/ostream:580:       __out.put(__c);
	.loc 12 580 16 view .LVU721
	movl	$44, %edx	 #,
	movq	%rcx, 40(%rsp)	 # _132, %sfp
	call	_ZNSo3putEc	 #
.LVL208:
	.loc 12 580 16 view .LVU722
	movq	40(%rsp), %rcx	 # %sfp, _132
.LVL209:
.L92:
	.loc 12 580 16 view .LVU723
.LBE3531:
.LBE3527:
.LBB3533:
.LBI3533:
	.loc 7 4077 5 is_stmt 1 view .LVU724
.LBB3534:
.LBB3535:
.LBI3535:
	.loc 7 1076 7 view .LVU725
	.loc 7 1076 7 is_stmt 0 view .LVU726
.LBE3535:
.LBB3536:
.LBI3536:
	.loc 7 2653 7 is_stmt 1 view .LVU727
.LBB3537:
.LBI3537:
	.loc 7 227 7 view .LVU728
	.loc 7 227 7 is_stmt 0 view .LVU729
.LBE3537:
.LBE3536:
 # C:/msys64/ucrt64/include/c++/14.2.0/bits/basic_string.h:4082:       return __ostream_insert(__os, __str.data(), __str.size());
	.loc 7 4082 30 discriminator 2 view .LVU730
	movq	0(%rbp), %rdx	 # MEM[(const struct basic_string *)dtype_14(D)]._M_dataplus._M_p, MEM[(const struct basic_string *)dtype_14(D)]._M_dataplus._M_p
	movq	8(%rbp), %r8	 # MEM[(const struct basic_string *)dtype_14(D)]._M_string_length,
	call	_ZSt16__ostream_insertIcSt11char_traitsIcEERSt13basic_ostreamIT_T0_ES6_PKS3_x	 #
.LVL210:
	.loc 7 4082 30 discriminator 2 view .LVU731
	movq	%rax, %rcx	 # tmp332, _141
.LVL211:
	.loc 7 4082 30 discriminator 2 view .LVU732
.LBE3534:
.LBE3533:
.LBB3538:
.LBB3539:
 # C:/msys64/ucrt64/include/c++/14.2.0/ostream:578:       if (__out.width() != 0)
	.loc 12 578 22 view .LVU733
	movq	(%rax), %rax	 # _53->_vptr.basic_ostream, _53->_vptr.basic_ostream
.LVL212:
	.loc 12 578 22 view .LVU734
	movb	$44, 57(%rsp)	 #, __c
.LVL213:
	.loc 12 578 22 view .LVU735
.LBE3539:
.LBI3538:
	.loc 12 576 5 is_stmt 1 view .LVU736
.LBB3542:
.LBB3540:
.LBI3540:
	.loc 13 775 5 view .LVU737
.LBB3541:
	.loc 13 776 7 view .LVU738
 # C:/msys64/ucrt64/include/c++/14.2.0/bits/ios_base.h:776:     { return _M_width; }
	.loc 13 776 14 is_stmt 0 view .LVU739
	movq	-24(%rax), %rax	 # MEM[(long long int *)_136 + -24B], MEM[(long long int *)_136 + -24B]
.LBE3541:
.LBE3540:
 # C:/msys64/ucrt64/include/c++/14.2.0/ostream:578:       if (__out.width() != 0)
	.loc 12 578 7 discriminator 1 view .LVU740
	cmpq	$0, 16(%rcx,%rax)	 #, MEM[(const struct ios_base *)_139]._M_width
	je	.L93	 #,
 # C:/msys64/ucrt64/include/c++/14.2.0/ostream:579: 	return __ostream_insert(__out, &__c, 1);
	.loc 12 579 25 view .LVU741
	leaq	57(%rsp), %rdx	 #, tmp271
.LVL214:
	.loc 12 579 25 view .LVU742
	movl	$1, %r8d	 #,
	call	_ZSt16__ostream_insertIcSt11char_traitsIcEERSt13basic_ostreamIT_T0_ES6_PKS3_x	 #
.LVL215:
	.loc 12 579 25 view .LVU743
	movq	%rax, %rcx	 # tmp333, _141
.L94:
.LVL216:
	.loc 12 579 25 view .LVU744
.LBE3542:
.LBE3538:
.LBB3544:
.LBI3544:
	.loc 12 213 7 is_stmt 1 view .LVU745
.LBB3545:
 # C:/msys64/ucrt64/include/c++/14.2.0/ostream:214:       { return _M_insert(__n); }
	.loc 12 214 25 is_stmt 0 view .LVU746
	movq	648(%rsp), %rdx	 # N_buf,
	call	_ZNSo9_M_insertIyEERSoT_	 #
.LVL217:
	.loc 12 214 25 view .LVU747
	movq	%rax, %rcx	 # tmp334, _150
.LVL218:
	.loc 12 214 25 view .LVU748
.LBE3545:
.LBE3544:
.LBB3546:
.LBB3547:
 # C:/msys64/ucrt64/include/c++/14.2.0/ostream:578:       if (__out.width() != 0)
	.loc 12 578 22 view .LVU749
	movq	(%rax), %rax	 # MEM[(struct basic_ostream *)_54]._vptr.basic_ostream, MEM[(struct basic_ostream *)_54]._vptr.basic_ostream
.LVL219:
	.loc 12 578 22 view .LVU750
	movb	$44, 58(%rsp)	 #, __c
.LVL220:
	.loc 12 578 22 view .LVU751
.LBE3547:
.LBI3546:
	.loc 12 576 5 is_stmt 1 view .LVU752
.LBB3550:
.LBB3548:
.LBI3548:
	.loc 13 775 5 view .LVU753
.LBB3549:
	.loc 13 776 7 view .LVU754
 # C:/msys64/ucrt64/include/c++/14.2.0/bits/ios_base.h:776:     { return _M_width; }
	.loc 13 776 14 is_stmt 0 view .LVU755
	movq	-24(%rax), %rax	 # MEM[(long long int *)_145 + -24B], MEM[(long long int *)_145 + -24B]
.LBE3549:
.LBE3548:
 # C:/msys64/ucrt64/include/c++/14.2.0/ostream:578:       if (__out.width() != 0)
	.loc 12 578 7 discriminator 1 view .LVU756
	cmpq	$0, 16(%rcx,%rax)	 #, MEM[(const struct ios_base *)_148]._M_width
	je	.L95	 #,
 # C:/msys64/ucrt64/include/c++/14.2.0/ostream:579: 	return __ostream_insert(__out, &__c, 1);
	.loc 12 579 25 view .LVU757
	leaq	58(%rsp), %rdx	 #, tmp274
.LVL221:
	.loc 12 579 25 view .LVU758
	movl	$1, %r8d	 #,
	call	_ZSt16__ostream_insertIcSt11char_traitsIcEERSt13basic_ostreamIT_T0_ES6_PKS3_x	 #
.LVL222:
	.loc 12 579 25 view .LVU759
	movq	%rax, %rcx	 # tmp335, _150
.L96:
.LVL223:
	.loc 12 579 25 view .LVU760
.LBE3550:
.LBE3546:
.LBB3552:
.LBI3552:
	.loc 7 4077 5 is_stmt 1 view .LVU761
.LBB3553:
.LBB3554:
.LBI3554:
	.loc 7 1076 7 view .LVU762
	.loc 7 1076 7 is_stmt 0 view .LVU763
.LBE3554:
.LBB3555:
.LBI3555:
	.loc 7 2653 7 is_stmt 1 view .LVU764
.LBB3556:
.LBI3556:
	.loc 7 227 7 view .LVU765
	.loc 7 227 7 is_stmt 0 view .LVU766
.LBE3556:
.LBE3555:
 # C:/msys64/ucrt64/include/c++/14.2.0/bits/basic_string.h:4082:       return __ostream_insert(__os, __str.data(), __str.size());
	.loc 7 4082 30 discriminator 2 view .LVU767
	movq	656(%rsp), %rax	 # pattern, tmp359
	movq	(%rax), %rdx	 # MEM[(const struct basic_string *)pattern_20(D)]._M_dataplus._M_p, MEM[(const struct basic_string *)pattern_20(D)]._M_dataplus._M_p
	movq	8(%rax), %r8	 # MEM[(const struct basic_string *)pattern_20(D)]._M_string_length,
	call	_ZSt16__ostream_insertIcSt11char_traitsIcEERSt13basic_ostreamIT_T0_ES6_PKS3_x	 #
.LVL224:
	.loc 7 4082 30 discriminator 2 view .LVU768
	movq	%rax, %rsi	 # tmp336, _159
.LVL225:
	.loc 7 4082 30 discriminator 2 view .LVU769
.LBE3553:
.LBE3552:
.LBB3557:
.LBB3558:
 # C:/msys64/ucrt64/include/c++/14.2.0/ostream:578:       if (__out.width() != 0)
	.loc 12 578 22 view .LVU770
	movq	(%rax), %rax	 # _58->_vptr.basic_ostream, _58->_vptr.basic_ostream
.LVL226:
	.loc 12 578 22 view .LVU771
	movb	$44, 59(%rsp)	 #, __c
.LVL227:
	.loc 12 578 22 view .LVU772
.LBE3558:
.LBI3557:
	.loc 12 576 5 is_stmt 1 view .LVU773
.LBB3561:
.LBB3559:
.LBI3559:
	.loc 13 775 5 view .LVU774
.LBB3560:
	.loc 13 776 7 view .LVU775
 # C:/msys64/ucrt64/include/c++/14.2.0/bits/ios_base.h:776:     { return _M_width; }
	.loc 13 776 14 is_stmt 0 view .LVU776
	movq	-24(%rax), %rax	 # MEM[(long long int *)_154 + -24B], MEM[(long long int *)_154 + -24B]
.LBE3560:
.LBE3559:
 # C:/msys64/ucrt64/include/c++/14.2.0/ostream:578:       if (__out.width() != 0)
	.loc 12 578 7 discriminator 1 view .LVU777
	cmpq	$0, 16(%rsi,%rax)	 #, MEM[(const struct ios_base *)_157]._M_width
	je	.L97	 #,
 # C:/msys64/ucrt64/include/c++/14.2.0/ostream:579: 	return __ostream_insert(__out, &__c, 1);
	.loc 12 579 25 view .LVU778
	leaq	59(%rsp), %rdx	 #, tmp279
.LVL228:
	.loc 12 579 25 view .LVU779
	movl	$1, %r8d	 #,
	movq	%rsi, %rcx	 # _159,
	call	_ZSt16__ostream_insertIcSt11char_traitsIcEERSt13basic_ostreamIT_T0_ES6_PKS3_x	 #
.LVL229:
	.loc 12 579 25 view .LVU780
	movq	%rax, %rsi	 # tmp337, _159
.LVL230:
.L98:
	.loc 12 579 25 view .LVU781
.LBE3561:
.LBE3557:
.LBB3563:
.LBI3563:
	.loc 12 213 7 is_stmt 1 view .LVU782
.LBB3564:
 # C:/msys64/ucrt64/include/c++/14.2.0/ostream:214:       { return _M_insert(__n); }
	.loc 12 214 25 is_stmt 0 view .LVU783
	movq	664(%rsp), %rdx	 # stride,
	movq	%rsi, %rcx	 # _159,
	call	_ZNSo9_M_insertIyEERSoT_	 #
.LVL231:
	movq	%rax, %rsi	 # tmp338, _168
.LVL232:
	.loc 12 214 25 view .LVU784
.LBE3564:
.LBE3563:
.LBB3565:
.LBB3566:
 # C:/msys64/ucrt64/include/c++/14.2.0/ostream:578:       if (__out.width() != 0)
	.loc 12 578 22 view .LVU785
	movq	(%rax), %rax	 # MEM[(struct basic_ostream *)_59]._vptr.basic_ostream, MEM[(struct basic_ostream *)_59]._vptr.basic_ostream
.LVL233:
	.loc 12 578 22 view .LVU786
	movb	$44, 60(%rsp)	 #, __c
.LVL234:
	.loc 12 578 22 view .LVU787
.LBE3566:
.LBI3565:
	.loc 12 576 5 is_stmt 1 view .LVU788
.LBB3569:
.LBB3567:
.LBI3567:
	.loc 13 775 5 view .LVU789
.LBB3568:
	.loc 13 776 7 view .LVU790
 # C:/msys64/ucrt64/include/c++/14.2.0/bits/ios_base.h:776:     { return _M_width; }
	.loc 13 776 14 is_stmt 0 view .LVU791
	movq	-24(%rax), %rax	 # MEM[(long long int *)_163 + -24B], MEM[(long long int *)_163 + -24B]
.LBE3568:
.LBE3567:
 # C:/msys64/ucrt64/include/c++/14.2.0/ostream:578:       if (__out.width() != 0)
	.loc 12 578 7 discriminator 1 view .LVU792
	cmpq	$0, 16(%rsi,%rax)	 #, MEM[(const struct ios_base *)_166]._M_width
	je	.L99	 #,
 # C:/msys64/ucrt64/include/c++/14.2.0/ostream:579: 	return __ostream_insert(__out, &__c, 1);
	.loc 12 579 25 view .LVU793
	leaq	60(%rsp), %rdx	 #, tmp282
.LVL235:
	.loc 12 579 25 view .LVU794
	movl	$1, %r8d	 #,
	movq	%rsi, %rcx	 # _168,
	call	_ZSt16__ostream_insertIcSt11char_traitsIcEERSt13basic_ostreamIT_T0_ES6_PKS3_x	 #
.LVL236:
	.loc 12 579 25 view .LVU795
	movq	%rax, %rsi	 # tmp339, _168
.LVL237:
.L100:
	.loc 12 579 25 view .LVU796
.LBE3569:
.LBE3565:
 # C:\Users\MattsDesktop\ECSE6320P1SIMD\Project1DotProduct\dotpMain.cpp:55:       << trial << ',' << time_ms << ',' << gflops << ',' << sum << "\n";
	.loc 1 55 16 view .LVU797
	movl	672(%rsp), %edx	 # trial,
	movq	%rsi, %rcx	 # _168,
	call	_ZNSolsEi	 #
.LVL238:
	movq	%rax, %rsi	 # tmp340, _177
.LVL239:
.LBB3571:
.LBB3572:
 # C:/msys64/ucrt64/include/c++/14.2.0/ostream:578:       if (__out.width() != 0)
	.loc 12 578 22 view .LVU798
	movq	(%rax), %rax	 # _28->_vptr.basic_ostream, _28->_vptr.basic_ostream
.LVL240:
	.loc 12 578 22 view .LVU799
	movb	$44, 61(%rsp)	 #, __c
.LVL241:
	.loc 12 578 22 view .LVU800
.LBE3572:
.LBI3571:
	.loc 12 576 5 is_stmt 1 view .LVU801
.LBB3575:
.LBB3573:
.LBI3573:
	.loc 13 775 5 view .LVU802
.LBB3574:
	.loc 13 776 7 view .LVU803
 # C:/msys64/ucrt64/include/c++/14.2.0/bits/ios_base.h:776:     { return _M_width; }
	.loc 13 776 14 is_stmt 0 view .LVU804
	movq	-24(%rax), %rax	 # MEM[(long long int *)_172 + -24B], MEM[(long long int *)_172 + -24B]
.LBE3574:
.LBE3573:
 # C:/msys64/ucrt64/include/c++/14.2.0/ostream:578:       if (__out.width() != 0)
	.loc 12 578 7 discriminator 1 view .LVU805
	cmpq	$0, 16(%rsi,%rax)	 #, MEM[(const struct ios_base *)_175]._M_width
	je	.L101	 #,
 # C:/msys64/ucrt64/include/c++/14.2.0/ostream:579: 	return __ostream_insert(__out, &__c, 1);
	.loc 12 579 25 view .LVU806
	leaq	61(%rsp), %rdx	 #, tmp285
.LVL242:
	.loc 12 579 25 view .LVU807
	movl	$1, %r8d	 #,
	movq	%rsi, %rcx	 # _177,
	call	_ZSt16__ostream_insertIcSt11char_traitsIcEERSt13basic_ostreamIT_T0_ES6_PKS3_x	 #
.LVL243:
	.loc 12 579 25 view .LVU808
	movq	%rax, %rsi	 # tmp341, _177
.LVL244:
.L102:
	.loc 12 579 25 view .LVU809
.LBE3575:
.LBE3571:
.LBB3577:
.LBI3577:
	.loc 12 228 7 is_stmt 1 view .LVU810
.LBB3578:
 # C:/msys64/ucrt64/include/c++/14.2.0/ostream:229:       { return _M_insert(__f); }
	.loc 12 229 25 is_stmt 0 view .LVU811
	vmovsd	680(%rsp), %xmm1	 # time_ms,
	movq	%rsi, %rcx	 # _177,
	call	_ZNSo9_M_insertIdEERSoT_	 #
.LVL245:
	movq	%rax, %rsi	 # tmp342, _186
.LVL246:
	.loc 12 229 25 view .LVU812
.LBE3578:
.LBE3577:
.LBB3579:
.LBB3580:
 # C:/msys64/ucrt64/include/c++/14.2.0/ostream:578:       if (__out.width() != 0)
	.loc 12 578 22 view .LVU813
	movq	(%rax), %rax	 # MEM[(struct basic_ostream *)_60]._vptr.basic_ostream, MEM[(struct basic_ostream *)_60]._vptr.basic_ostream
.LVL247:
	.loc 12 578 22 view .LVU814
	movb	$44, 62(%rsp)	 #, __c
.LVL248:
	.loc 12 578 22 view .LVU815
.LBE3580:
.LBI3579:
	.loc 12 576 5 is_stmt 1 view .LVU816
.LBB3583:
.LBB3581:
.LBI3581:
	.loc 13 775 5 view .LVU817
.LBB3582:
	.loc 13 776 7 view .LVU818
 # C:/msys64/ucrt64/include/c++/14.2.0/bits/ios_base.h:776:     { return _M_width; }
	.loc 13 776 14 is_stmt 0 view .LVU819
	movq	-24(%rax), %rax	 # MEM[(long long int *)_181 + -24B], MEM[(long long int *)_181 + -24B]
.LBE3582:
.LBE3581:
 # C:/msys64/ucrt64/include/c++/14.2.0/ostream:578:       if (__out.width() != 0)
	.loc 12 578 7 discriminator 1 view .LVU820
	cmpq	$0, 16(%rsi,%rax)	 #, MEM[(const struct ios_base *)_184]._M_width
	je	.L103	 #,
 # C:/msys64/ucrt64/include/c++/14.2.0/ostream:579: 	return __ostream_insert(__out, &__c, 1);
	.loc 12 579 25 view .LVU821
	leaq	62(%rsp), %rdx	 #, tmp288
.LVL249:
	.loc 12 579 25 view .LVU822
	movl	$1, %r8d	 #,
	movq	%rsi, %rcx	 # _186,
	call	_ZSt16__ostream_insertIcSt11char_traitsIcEERSt13basic_ostreamIT_T0_ES6_PKS3_x	 #
.LVL250:
	.loc 12 579 25 view .LVU823
	movq	%rax, %rsi	 # tmp343, _186
.LVL251:
.L104:
	.loc 12 579 25 view .LVU824
.LBE3583:
.LBE3579:
.LBB3585:
.LBI3585:
	.loc 12 228 7 is_stmt 1 view .LVU825
.LBB3586:
 # C:/msys64/ucrt64/include/c++/14.2.0/ostream:229:       { return _M_insert(__f); }
	.loc 12 229 25 is_stmt 0 view .LVU826
	vmovsd	688(%rsp), %xmm1	 # gflops,
	movq	%rsi, %rcx	 # _186,
	call	_ZNSo9_M_insertIdEERSoT_	 #
.LVL252:
	movq	%rax, %rsi	 # tmp344, _195
.LVL253:
	.loc 12 229 25 view .LVU827
.LBE3586:
.LBE3585:
.LBB3587:
.LBB3588:
 # C:/msys64/ucrt64/include/c++/14.2.0/ostream:578:       if (__out.width() != 0)
	.loc 12 578 22 view .LVU828
	movq	(%rax), %rax	 # MEM[(struct basic_ostream *)_61]._vptr.basic_ostream, MEM[(struct basic_ostream *)_61]._vptr.basic_ostream
.LVL254:
	.loc 12 578 22 view .LVU829
	movb	$44, 63(%rsp)	 #, __c
.LVL255:
	.loc 12 578 22 view .LVU830
.LBE3588:
.LBI3587:
	.loc 12 576 5 is_stmt 1 view .LVU831
.LBB3591:
.LBB3589:
.LBI3589:
	.loc 13 775 5 view .LVU832
.LBB3590:
	.loc 13 776 7 view .LVU833
 # C:/msys64/ucrt64/include/c++/14.2.0/bits/ios_base.h:776:     { return _M_width; }
	.loc 13 776 14 is_stmt 0 view .LVU834
	movq	-24(%rax), %rax	 # MEM[(long long int *)_190 + -24B], MEM[(long long int *)_190 + -24B]
.LBE3590:
.LBE3589:
 # C:/msys64/ucrt64/include/c++/14.2.0/ostream:578:       if (__out.width() != 0)
	.loc 12 578 7 discriminator 1 view .LVU835
	cmpq	$0, 16(%rsi,%rax)	 #, MEM[(const struct ios_base *)_193]._M_width
	je	.L105	 #,
 # C:/msys64/ucrt64/include/c++/14.2.0/ostream:579: 	return __ostream_insert(__out, &__c, 1);
	.loc 12 579 25 view .LVU836
	leaq	63(%rsp), %rdx	 #, tmp291
.LVL256:
	.loc 12 579 25 view .LVU837
	movl	$1, %r8d	 #,
	movq	%rsi, %rcx	 # _195,
	call	_ZSt16__ostream_insertIcSt11char_traitsIcEERSt13basic_ostreamIT_T0_ES6_PKS3_x	 #
.LVL257:
	.loc 12 579 25 view .LVU838
	movq	%rax, %rsi	 # tmp345, _195
.LVL258:
.L106:
	.loc 12 579 25 view .LVU839
.LBE3591:
.LBE3587:
.LBB3593:
.LBI3593:
	.loc 12 232 7 is_stmt 1 view .LVU840
.LBB3594:
 # C:/msys64/ucrt64/include/c++/14.2.0/ostream:236: 	return _M_insert(static_cast<double>(__f));
	.loc 12 236 18 is_stmt 0 view .LVU841
	vcvtss2sd	696(%rsp), %xmm1, %xmm1	 # sum,
	movq	%rsi, %rcx	 # _195,
	call	_ZNSo9_M_insertIdEERSoT_	 #
.LVL259:
	movq	%rax, %rcx	 # tmp346, _63
.LVL260:
	.loc 12 236 18 view .LVU842
.LBE3594:
.LBE3593:
.LBB3595:
.LBI3595:
	.loc 12 668 5 is_stmt 1 view .LVU843
.LBB3596:
 # C:/msys64/ucrt64/include/c++/14.2.0/ostream:673: 	__ostream_insert(__out, __s,
	.loc 12 673 18 is_stmt 0 view .LVU844
	movl	$1, %r8d	 #,
	leaq	.LC7(%rip), %rdx	 #, tmp293
	call	_ZSt16__ostream_insertIcSt11char_traitsIcEERSt13basic_ostreamIT_T0_ES6_PKS3_x	 #
.LVL261:
.LEHE3:
	.loc 12 673 18 view .LVU845
.LBE3596:
.LBE3595:
.LBB3597:
.LBI3597:
	.loc 10 911 7 is_stmt 1 view .LVU846
.LBB3598:
 # C:/msys64/ucrt64/include/c++/14.2.0/fstream:912:       { }
	.loc 10 912 9 is_stmt 0 view .LVU847
	leaq	24(%rbx), %rax	 #, tmp295
.LBB3599:
.LBB3600:
 # C:/msys64/ucrt64/include/c++/14.2.0/fstream:259: 	  { this->close(); }
	.loc 10 259 17 view .LVU848
	movq	%r12, %rcx	 # tmp317,
.LBE3600:
.LBE3599:
 # C:/msys64/ucrt64/include/c++/14.2.0/fstream:912:       { }
	.loc 10 912 9 view .LVU849
	addq	$64, %rbx	 #, tmp297
	movq	%rax, 64(%rsp)	 # tmp295, f.D.107333._vptr.basic_ostream
.LBB3606:
.LBB3603:
 # C:/msys64/ucrt64/include/c++/14.2.0/fstream:262:       }
	.loc 10 262 7 view .LVU850
	movq	.refptr._ZTVSt13basic_filebufIcSt11char_traitsIcEE(%rip), %rax	 #, tmp361
.LBE3603:
.LBE3606:
 # C:/msys64/ucrt64/include/c++/14.2.0/fstream:912:       { }
	.loc 10 912 9 view .LVU851
	movq	%rbx, 280(%rsp)	 # tmp297, MEM[(struct basic_ios *)&f + 216B].D.51970._vptr.ios_base
.LVL262:
.LBB3607:
.LBI3599:
	.loc 10 256 7 is_stmt 1 view .LVU852
.LBB3604:
 # C:/msys64/ucrt64/include/c++/14.2.0/fstream:262:       }
	.loc 10 262 7 is_stmt 0 view .LVU853
	addq	$16, %rax	 #, tmp299
	movq	%rax, 72(%rsp)	 # tmp299, MEM[(struct basic_filebuf *)&f + 8B].D.106927._vptr.basic_streambuf
.LEHB4:
 # C:/msys64/ucrt64/include/c++/14.2.0/fstream:259: 	  { this->close(); }
	.loc 10 259 17 view .LVU854
	call	_ZNSt13basic_filebufIcSt11char_traitsIcEE5closeEv	 #
.LVL263:
.LEHE4:
.L108:
 # C:/msys64/ucrt64/include/c++/14.2.0/fstream:262:       }
	.loc 10 262 7 view .LVU855
	leaq	144(%rsp), %rcx	 #, tmp303
	call	_ZNSt12__basic_fileIcED1Ev	 #
.LVL264:
.LBB3601:
.LBI3601:
	.file 14 "C:/msys64/ucrt64/include/c++/14.2.0/streambuf"
	.loc 14 204 7 is_stmt 1 view .LVU856
.LBB3602:
 # C:/msys64/ucrt64/include/c++/14.2.0/streambuf:205:       { }
	.loc 14 205 9 is_stmt 0 view .LVU857
	movq	.refptr._ZTVSt15basic_streambufIcSt11char_traitsIcEE(%rip), %rax	 #, tmp362
	leaq	128(%rsp), %rcx	 #, tmp307
	addq	$16, %rax	 #, tmp305
	movq	%rax, 72(%rsp)	 # tmp305, MEM[(struct basic_streambuf *)&f + 8B]._vptr.basic_streambuf
	call	_ZNSt6localeD1Ev	 #
.LVL265:
	.loc 14 205 9 view .LVU858
.LBE3602:
.LBE3601:
.LBE3604:
.LBE3607:
.LBB3608:
.LBI3608:
	.loc 12 101 7 is_stmt 1 view .LVU859
.LBB3609:
 # C:/msys64/ucrt64/include/c++/14.2.0/ostream:101:       ~basic_ostream() { }
	.loc 12 101 26 is_stmt 0 view .LVU860
	movq	-24(%rdi), %rax	 # MEM[(long long int *)_74 + -24B], MEM[(long long int *)_74 + -24B]
	movq	%rdi, 64(%rsp)	 # _74, MEM[(struct basic_ostream *)&f]._vptr.basic_ostream
.LBE3609:
.LBE3608:
.LBB3611:
.LBB3612:
 # C:/msys64/ucrt64/include/c++/14.2.0/bits/basic_ios.h:286:       ~basic_ios() { }
	.loc 11 286 22 view .LVU861
	movq	%r14, %rcx	 # tmp319,
.LBE3612:
.LBE3611:
.LBB3614:
.LBB3610:
 # C:/msys64/ucrt64/include/c++/14.2.0/ostream:101:       ~basic_ostream() { }
	.loc 12 101 26 view .LVU862
	movq	%r15, 64(%rsp,%rax)	 # _78,
.LVL266:
	.loc 12 101 26 view .LVU863
.LBE3610:
.LBE3614:
.LBB3615:
.LBI3611:
	.loc 11 286 7 is_stmt 1 view .LVU864
.LBB3613:
 # C:/msys64/ucrt64/include/c++/14.2.0/bits/basic_ios.h:286:       ~basic_ios() { }
	.loc 11 286 22 is_stmt 0 view .LVU865
	movq	.refptr._ZTVSt9basic_iosIcSt11char_traitsIcEE(%rip), %rax	 #, tmp363
	leaq	16(%rax), %rbp	 #, tmp310
.LVL267:
	.loc 11 286 22 view .LVU866
	movq	%rbp, 280(%rsp)	 # tmp310, MEM[(struct basic_ios *)&f + 216B].D.51970._vptr.ios_base
	call	_ZNSt8ios_baseD2Ev	 #
	nop	
.LVL268:
	.loc 11 286 22 view .LVU867
.LBE3613:
.LBE3615:
.LBE3598:
.LBE3597:
 # C:\Users\MattsDesktop\ECSE6320P1SIMD\Project1DotProduct\dotpMain.cpp:56: }
	.loc 1 56 1 view .LVU868
	addq	$552, %rsp	 #,
	.cfi_remember_state
	.cfi_def_cfa_offset 72
	popq	%rbx	 #
	.cfi_restore 3
	.cfi_def_cfa_offset 64
	popq	%rsi	 #
	.cfi_restore 4
	.cfi_def_cfa_offset 56
	popq	%rdi	 #
	.cfi_restore 5
	.cfi_def_cfa_offset 48
	popq	%rbp	 #
	.cfi_restore 6
	.cfi_def_cfa_offset 40
	popq	%r12	 #
	.cfi_restore 12
	.cfi_def_cfa_offset 32
	popq	%r13	 #
	.cfi_restore 13
	.cfi_def_cfa_offset 24
	popq	%r14	 #
	.cfi_restore 14
	.cfi_def_cfa_offset 16
	popq	%r15	 #
	.cfi_restore 15
	.cfi_def_cfa_offset 8
	ret	
.LVL269:
	.p2align 4,,10
	.p2align 3
.L120:
	.cfi_restore_state
.LBB3618:
.LBB3532:
 # C:/msys64/ucrt64/include/c++/14.2.0/ostream:579: 	return __ostream_insert(__out, &__c, 1);
	.loc 12 579 25 view .LVU869
	leaq	56(%rsp), %rdx	 #, tmp266
.LVL270:
	.loc 12 579 25 view .LVU870
	movl	$1, %r8d	 #,
.LEHB5:
	call	_ZSt16__ostream_insertIcSt11char_traitsIcEERSt13basic_ostreamIT_T0_ES6_PKS3_x	 #
.LVL271:
	.loc 12 579 25 view .LVU871
	movq	%rax, %rcx	 # tmp331, _132
 # C:/msys64/ucrt64/include/c++/14.2.0/ostream:579: 	return __ostream_insert(__out, &__c, 1);
	.loc 12 579 40 view .LVU872
	jmp	.L92	 #
.LVL272:
	.p2align 4,,10
	.p2align 3
.L105:
	.loc 12 579 40 view .LVU873
.LBE3532:
.LBE3618:
.LBB3619:
.LBB3592:
 # C:/msys64/ucrt64/include/c++/14.2.0/ostream:580:       __out.put(__c);
	.loc 12 580 16 view .LVU874
	movl	$44, %edx	 #,
	movq	%rsi, %rcx	 # _195,
	call	_ZNSo3putEc	 #
.LVL273:
 # C:/msys64/ucrt64/include/c++/14.2.0/ostream:581:       return __out;
	.loc 12 581 14 view .LVU875
	jmp	.L106	 #
.LVL274:
	.p2align 4,,10
	.p2align 3
.L103:
	.loc 12 581 14 view .LVU876
.LBE3592:
.LBE3619:
.LBB3620:
.LBB3584:
 # C:/msys64/ucrt64/include/c++/14.2.0/ostream:580:       __out.put(__c);
	.loc 12 580 16 view .LVU877
	movl	$44, %edx	 #,
	movq	%rsi, %rcx	 # _186,
	call	_ZNSo3putEc	 #
.LVL275:
 # C:/msys64/ucrt64/include/c++/14.2.0/ostream:581:       return __out;
	.loc 12 581 14 view .LVU878
	jmp	.L104	 #
.LVL276:
	.p2align 4,,10
	.p2align 3
.L101:
	.loc 12 581 14 view .LVU879
.LBE3584:
.LBE3620:
.LBB3621:
.LBB3576:
 # C:/msys64/ucrt64/include/c++/14.2.0/ostream:580:       __out.put(__c);
	.loc 12 580 16 view .LVU880
	movl	$44, %edx	 #,
	movq	%rsi, %rcx	 # _177,
	call	_ZNSo3putEc	 #
.LVL277:
 # C:/msys64/ucrt64/include/c++/14.2.0/ostream:581:       return __out;
	.loc 12 581 14 view .LVU881
	jmp	.L102	 #
.LVL278:
	.p2align 4,,10
	.p2align 3
.L99:
	.loc 12 581 14 view .LVU882
.LBE3576:
.LBE3621:
.LBB3622:
.LBB3570:
 # C:/msys64/ucrt64/include/c++/14.2.0/ostream:580:       __out.put(__c);
	.loc 12 580 16 view .LVU883
	movl	$44, %edx	 #,
	movq	%rsi, %rcx	 # _168,
	call	_ZNSo3putEc	 #
.LVL279:
 # C:/msys64/ucrt64/include/c++/14.2.0/ostream:581:       return __out;
	.loc 12 581 14 view .LVU884
	jmp	.L100	 #
.LVL280:
	.p2align 4,,10
	.p2align 3
.L97:
	.loc 12 581 14 view .LVU885
.LBE3570:
.LBE3622:
.LBB3623:
.LBB3562:
 # C:/msys64/ucrt64/include/c++/14.2.0/ostream:580:       __out.put(__c);
	.loc 12 580 16 view .LVU886
	movl	$44, %edx	 #,
	movq	%rsi, %rcx	 # _159,
	call	_ZNSo3putEc	 #
.LVL281:
 # C:/msys64/ucrt64/include/c++/14.2.0/ostream:581:       return __out;
	.loc 12 581 14 view .LVU887
	jmp	.L98	 #
.LVL282:
	.p2align 4,,10
	.p2align 3
.L95:
	.loc 12 581 14 view .LVU888
.LBE3562:
.LBE3623:
.LBB3624:
.LBB3551:
 # C:/msys64/ucrt64/include/c++/14.2.0/ostream:580:       __out.put(__c);
	.loc 12 580 16 view .LVU889
	movl	$44, %edx	 #,
	movq	%rcx, 40(%rsp)	 # _150, %sfp
	call	_ZNSo3putEc	 #
.LVL283:
	.loc 12 580 16 view .LVU890
	movq	40(%rsp), %rcx	 # %sfp, _150
	jmp	.L96	 #
.LVL284:
	.p2align 4,,10
	.p2align 3
.L93:
	.loc 12 580 16 view .LVU891
.LBE3551:
.LBE3624:
.LBB3625:
.LBB3543:
	movl	$44, %edx	 #,
	movq	%rcx, 40(%rsp)	 # _141, %sfp
	call	_ZNSo3putEc	 #
.LVL285:
.LEHE5:
	.loc 12 580 16 view .LVU892
	movq	40(%rsp), %rcx	 # %sfp, _141
	jmp	.L94	 #
.LVL286:
	.p2align 4,,10
	.p2align 3
.L118:
	.loc 12 580 16 view .LVU893
.LBE3543:
.LBE3625:
.LBB3626:
.LBB3506:
.LBB3501:
.LBB3493:
.LBB3492:
.LBB3491:
.LBI3483:
	.loc 10 970 7 is_stmt 1 view .LVU894
.LBB3490:
.LBB3485:
.LBI3485:
	.loc 11 161 7 view .LVU895
.LBB3486:
.LBB3487:
.LBI3487:
	.loc 11 141 7 view .LVU896
	.loc 11 141 7 is_stmt 0 view .LVU897
.LBE3487:
.LBB3488:
.LBI3488:
	.loc 13 186 3 is_stmt 1 view .LVU898
.LBB3489:
	.loc 13 187 5 view .LVU899
 # C:/msys64/ucrt64/include/c++/14.2.0/bits/ios_base.h:187:   { return _Ios_Iostate(static_cast<int>(__a) | static_cast<int>(__b)); }
	.loc 13 187 70 is_stmt 0 view .LVU900
	movl	32(%rcx), %edx	 # MEM[(const struct basic_ios *)_213].D.51970._M_streambuf_state, _99
	orl	$4, %edx	 #, _99
.LEHB6:
.LBE3489:
.LBE3488:
 # C:/msys64/ucrt64/include/c++/14.2.0/bits/basic_ios.h:162:       { this->clear(this->rdstate() | __state); }
	.loc 11 162 20 discriminator 2 view .LVU901
	call	_ZNSt9basic_iosIcSt11char_traitsIcEE5clearESt12_Ios_Iostate	 #
.LVL287:
.LEHE6:
	.loc 11 162 20 discriminator 2 view .LVU902
.LBE3486:
.LBE3485:
.LBE3490:
.LBE3491:
.LBE3492:
.LBE3493:
.LBE3501:
.LBE3506:
.LBE3626:
.LBB3627:
	.loc 11 129 7 is_stmt 1 view .LVU903
.LBB3519:
	.loc 11 205 7 view .LVU904
.LBB3517:
	.loc 11 141 7 view .LVU905
	.loc 11 141 7 is_stmt 0 view .LVU906
.LBE3517:
.LBB3518:
	.loc 13 181 3 is_stmt 1 view .LVU907
.LBB3516:
	.loc 13 182 5 view .LVU908
	.loc 13 182 5 is_stmt 0 view .LVU909
.LBE3516:
.LBE3518:
.LBE3519:
.LBE3627:
 # C:\Users\MattsDesktop\ECSE6320P1SIMD\Project1DotProduct\dotpMain.cpp:48:     if (!f) { std::cerr<<"CSV open failed\n"; return; }
	.loc 1 48 5 discriminator 1 view .LVU910
	testb	$5, 312(%rsp)	 #, MEM[(const struct basic_ios *)&f + 216B].D.51970._M_streambuf_state
	je	.L116	 #,
.L119:
.LVL288:
.LBB3628:
.LBI3628:
	.loc 12 668 5 is_stmt 1 view .LVU911
.LBB3629:
 # C:/msys64/ucrt64/include/c++/14.2.0/ostream:673: 	__ostream_insert(__out, __s,
	.loc 12 673 18 is_stmt 0 view .LVU912
	movq	.refptr._ZSt4cerr(%rip), %rcx	 #,
	movl	$16, %r8d	 #,
	leaq	.LC5(%rip), %rdx	 #, tmp237
.LEHB7:
	call	_ZSt16__ostream_insertIcSt11char_traitsIcEERSt13basic_ostreamIT_T0_ES6_PKS3_x	 #
.LVL289:
.LEHE7:
	.loc 12 673 18 view .LVU913
.LBE3629:
.LBE3628:
.LBB3630:
.LBI3630:
	.loc 10 911 7 is_stmt 1 view .LVU914
.LBB3631:
 # C:/msys64/ucrt64/include/c++/14.2.0/fstream:912:       { }
	.loc 10 912 9 is_stmt 0 view .LVU915
	leaq	24(%rbx), %rax	 #, tmp240
.LBB3632:
.LBB3633:
 # C:/msys64/ucrt64/include/c++/14.2.0/fstream:259: 	  { this->close(); }
	.loc 10 259 17 view .LVU916
	movq	%r12, %rcx	 # tmp317,
.LBE3633:
.LBE3632:
 # C:/msys64/ucrt64/include/c++/14.2.0/fstream:912:       { }
	.loc 10 912 9 view .LVU917
	addq	$64, %rbx	 #, tmp242
	movq	%rax, 64(%rsp)	 # tmp240, f.D.107333._vptr.basic_ostream
.LBB3637:
.LBB3634:
 # C:/msys64/ucrt64/include/c++/14.2.0/fstream:262:       }
	.loc 10 262 7 view .LVU918
	movq	.refptr._ZTVSt13basic_filebufIcSt11char_traitsIcEE(%rip), %rax	 #, tmp356
.LBE3634:
.LBE3637:
 # C:/msys64/ucrt64/include/c++/14.2.0/fstream:912:       { }
	.loc 10 912 9 view .LVU919
	movq	%rbx, 280(%rsp)	 # tmp242, MEM[(struct basic_ios *)&f + 216B].D.51970._vptr.ios_base
.LVL290:
.LBB3638:
.LBI3632:
	.loc 10 256 7 is_stmt 1 view .LVU920
.LBB3635:
 # C:/msys64/ucrt64/include/c++/14.2.0/fstream:262:       }
	.loc 10 262 7 is_stmt 0 view .LVU921
	addq	$16, %rax	 #, tmp244
	movq	%rax, 72(%rsp)	 # tmp244, MEM[(struct basic_filebuf *)&f + 8B].D.106927._vptr.basic_streambuf
.LEHB8:
 # C:/msys64/ucrt64/include/c++/14.2.0/fstream:259: 	  { this->close(); }
	.loc 10 259 17 view .LVU922
	call	_ZNSt13basic_filebufIcSt11char_traitsIcEE5closeEv	 #
.LVL291:
.LEHE8:
	jmp	.L108	 #
.LVL292:
.L115:
	.loc 10 259 17 view .LVU923
.LBE3635:
.LBE3638:
.LBE3631:
.LBE3630:
.LBB3641:
.LBB3617:
.LBB3616:
.LBB3605:
 # C:/msys64/ucrt64/include/c++/14.2.0/fstream:260: 	__catch(...)
	.loc 10 260 2 discriminator 1 view .LVU924
	movq	%rax, %rcx	 # tmp347, tmp313
	vzeroupper
.LVL293:
	call	__cxa_begin_catch	 #
.LVL294:
 # C:/msys64/ucrt64/include/c++/14.2.0/fstream:260: 	__catch(...)
	.loc 10 260 2 discriminator 2 view .LVU925
	call	__cxa_end_catch	 #
.LVL295:
	jmp	.L108	 #
.LVL296:
.L114:
	.loc 10 260 2 discriminator 2 view .LVU926
.LBE3605:
.LBE3616:
.LBE3617:
.LBE3641:
.LBB3642:
.LBB3640:
.LBB3639:
.LBB3636:
 # C:/msys64/ucrt64/include/c++/14.2.0/fstream:260: 	__catch(...)
	.loc 10 260 2 discriminator 1 view .LVU927
	movq	%rax, %rcx	 # tmp329, tmp258
	vzeroupper
.LVL297:
	call	__cxa_begin_catch	 #
.LVL298:
 # C:/msys64/ucrt64/include/c++/14.2.0/fstream:260: 	__catch(...)
	.loc 10 260 2 discriminator 2 view .LVU928
	call	__cxa_end_catch	 #
.LVL299:
	jmp	.L108	 #
.LVL300:
.L113:
	.loc 10 260 2 discriminator 2 view .LVU929
.LBE3636:
.LBE3639:
.LBE3640:
.LBE3642:
.LBB3643:
.LBB3507:
.LBB3502:
 # C:/msys64/ucrt64/include/c++/14.2.0/fstream:880:       }
	.loc 10 880 7 view .LVU930
	movq	%rax, %rbx	 # tmp326, tmp227
	movq	%r12, %rcx	 # tmp317,
	vzeroupper
.LVL301:
	call	_ZNSt13basic_filebufIcSt11char_traitsIcEED1Ev	 #
.LVL302:
	movq	%rbx, %rax	 # tmp227, tmp226
.L85:
.LVL303:
.LBB3494:
.LBI3494:
	.loc 12 101 7 is_stmt 1 view .LVU931
.LBB3495:
 # C:/msys64/ucrt64/include/c++/14.2.0/ostream:101:       ~basic_ostream() { }
	.loc 12 101 26 is_stmt 0 view .LVU932
	movq	-24(%rdi), %rdx	 # MEM[(long long int *)_74 + -24B], MEM[(long long int *)_74 + -24B]
	movq	%rdi, 64(%rsp)	 # _74, MEM[(struct basic_ostream *)&f]._vptr.basic_ostream
	movq	%rax, %rbx	 # tmp226, tmp231
	movq	%r15, 64(%rsp,%rdx)	 # _78, MEM[(struct basic_ios *)_84].D.51970._vptr.ios_base
.LVL304:
	.loc 12 101 26 view .LVU933
	jmp	.L86	 #
.LVL305:
.L110:
	.loc 12 101 26 view .LVU934
.LBE3495:
.LBE3494:
.LBE3502:
.LBE3507:
.LBE3643:
 # C:\Users\MattsDesktop\ECSE6320P1SIMD\Project1DotProduct\dotpMain.cpp:56: }
	.loc 1 56 1 view .LVU935
	movq	%rax, %rbx	 # tmp348, tmp315
	movq	%r13, %rcx	 # tmp316,
	vzeroupper
.LVL306:
	call	_ZNSt14basic_ofstreamIcSt11char_traitsIcEED1Ev	 #
.LVL307:
	movq	%rbx, %rcx	 # tmp315,
.LEHB9:
	call	_Unwind_Resume	 #
.LVL308:
.L112:
	.loc 1 56 1 view .LVU936
	vzeroupper
.LVL309:
	jmp	.L85	 #
.LVL310:
.L111:
.LBB3644:
.LBB3508:
.LBB3503:
.LBB3496:
.LBB3497:
 # C:/msys64/ucrt64/include/c++/14.2.0/bits/basic_ios.h:286:       ~basic_ios() { }
	.loc 11 286 22 view .LVU937
	movq	%rax, %rbx	 # tmp328, tmp231
	vzeroupper
.LVL311:
.L86:
	.loc 11 286 22 view .LVU938
.LBE3497:
.LBI3496:
	.loc 11 286 7 is_stmt 1 view .LVU939
.LBB3498:
 # C:/msys64/ucrt64/include/c++/14.2.0/bits/basic_ios.h:286:       ~basic_ios() { }
	.loc 11 286 22 is_stmt 0 view .LVU940
	movq	.refptr._ZTVSt9basic_iosIcSt11char_traitsIcEE(%rip), %rax	 #, tmp355
	movq	%r14, %rcx	 # tmp319,
	leaq	16(%rax), %rbp	 #, tmp234
.LVL312:
	.loc 11 286 22 view .LVU941
	movq	%rbp, 280(%rsp)	 # tmp234, MEM[(struct basic_ios *)&f + 216B].D.51970._vptr.ios_base
	call	_ZNSt8ios_baseD2Ev	 #
.LVL313:
	.loc 11 286 22 view .LVU942
	movq	%rbx, %rcx	 # tmp231,
	call	_Unwind_Resume	 #
	nop	
.LVL314:
.LEHE9:
.LBE3498:
.LBE3496:
.LBE3503:
.LBE3508:
.LBE3644:
	.cfi_endproc
.LFE11627:
	.seh_handler	__gxx_personality_seh0, @unwind, @except
	.seh_handlerdata
	.align 4
.LLSDA11627:
	.byte	0xff
	.byte	0x9b
	.uleb128 .LLSDATT11627-.LLSDATTD11627
.LLSDATTD11627:
	.byte	0x1
	.uleb128 .LLSDACSE11627-.LLSDACSB11627
.LLSDACSB11627:
	.uleb128 .LEHB0-.LFB11627
	.uleb128 .LEHE0-.LEHB0
	.uleb128 .L111-.LFB11627
	.uleb128 0
	.uleb128 .LEHB1-.LFB11627
	.uleb128 .LEHE1-.LEHB1
	.uleb128 .L112-.LFB11627
	.uleb128 0
	.uleb128 .LEHB2-.LFB11627
	.uleb128 .LEHE2-.LEHB2
	.uleb128 .L113-.LFB11627
	.uleb128 0
	.uleb128 .LEHB3-.LFB11627
	.uleb128 .LEHE3-.LEHB3
	.uleb128 .L110-.LFB11627
	.uleb128 0
	.uleb128 .LEHB4-.LFB11627
	.uleb128 .LEHE4-.LEHB4
	.uleb128 .L115-.LFB11627
	.uleb128 0x1
	.uleb128 .LEHB5-.LFB11627
	.uleb128 .LEHE5-.LEHB5
	.uleb128 .L110-.LFB11627
	.uleb128 0
	.uleb128 .LEHB6-.LFB11627
	.uleb128 .LEHE6-.LEHB6
	.uleb128 .L113-.LFB11627
	.uleb128 0
	.uleb128 .LEHB7-.LFB11627
	.uleb128 .LEHE7-.LEHB7
	.uleb128 .L110-.LFB11627
	.uleb128 0
	.uleb128 .LEHB8-.LFB11627
	.uleb128 .LEHE8-.LEHB8
	.uleb128 .L114-.LFB11627
	.uleb128 0x1
	.uleb128 .LEHB9-.LFB11627
	.uleb128 .LEHE9-.LEHB9
	.uleb128 0
	.uleb128 0
.LLSDACSE11627:
	.byte	0x1
	.byte	0
	.align 4
	.long	0

.LLSDATT11627:
	.section	.text$_Z13log_per_trialIfEvRKNSt7__cxx1112basic_stringIcSt11char_traitsIcESaIcEEES7_S7_yS7_yiddT_,"x"
	.linkonce discard
	.seh_endproc
	.section .rdata,"dr"
.LC9:
	.ascii "misaligned\0"
.LC10:
	.ascii "contiguous\0"
	.align 8
.LC15:
	.ascii "basic_string: construction from null is not valid\0"
	.section	.text$_Z16sweep_contiguousIfEvPKcPFvPKT_S4_yRS2_E,"x"
	.linkonce discard
	.p2align 4
	.globl	_Z16sweep_contiguousIfEvPKcPFvPKT_S4_yRS2_E
	.def	_Z16sweep_contiguousIfEvPKcPFvPKT_S4_yRS2_E;	.scl	2;	.type	32;	.endef
	.seh_proc	_Z16sweep_contiguousIfEvPKcPFvPKT_S4_yRS2_E
_Z16sweep_contiguousIfEvPKcPFvPKT_S4_yRS2_E:
.LVL315:
.LFB11381:
	.loc 1 243 6 is_stmt 1 view -0
	.cfi_startproc
	.loc 1 243 6 is_stmt 0 view .LVU944
	pushq	%r15	 #
	.seh_pushreg	%r15
	.cfi_def_cfa_offset 16
	.cfi_offset 15, -16
	pushq	%r14	 #
	.seh_pushreg	%r14
	.cfi_def_cfa_offset 24
	.cfi_offset 14, -24
	pushq	%r13	 #
	.seh_pushreg	%r13
	.cfi_def_cfa_offset 32
	.cfi_offset 13, -32
	pushq	%r12	 #
	.seh_pushreg	%r12
	.cfi_def_cfa_offset 40
	.cfi_offset 12, -40
	pushq	%rbp	 #
	.seh_pushreg	%rbp
	.cfi_def_cfa_offset 48
	.cfi_offset 6, -48
	pushq	%rdi	 #
	.seh_pushreg	%rdi
	.cfi_def_cfa_offset 56
	.cfi_offset 5, -56
	pushq	%rsi	 #
	.seh_pushreg	%rsi
	.cfi_def_cfa_offset 64
	.cfi_offset 4, -64
	pushq	%rbx	 #
	.seh_pushreg	%rbx
	.cfi_def_cfa_offset 72
	.cfi_offset 3, -72
	subq	$472, %rsp	 #,
	.seh_stackalloc	472
	.cfi_def_cfa_offset 544
	vmovups	%xmm6, 304(%rsp)	 #,
	.seh_savexmm	%xmm6, 304
	vmovups	%xmm7, 320(%rsp)	 #,
	.seh_savexmm	%xmm7, 320
	vmovups	%xmm8, 336(%rsp)	 #,
	.seh_savexmm	%xmm8, 336
	vmovups	%xmm9, 352(%rsp)	 #,
	.seh_savexmm	%xmm9, 352
	vmovups	%xmm10, 368(%rsp)	 #,
	.seh_savexmm	%xmm10, 368
	vmovups	%xmm11, 384(%rsp)	 #,
	.seh_savexmm	%xmm11, 384
	vmovups	%xmm12, 400(%rsp)	 #,
	.seh_savexmm	%xmm12, 400
	vmovups	%xmm13, 416(%rsp)	 #,
	.seh_savexmm	%xmm13, 416
	vmovups	%xmm14, 432(%rsp)	 #,
	.seh_savexmm	%xmm14, 432
	vmovups	%xmm15, 448(%rsp)	 #,
	.seh_savexmm	%xmm15, 448
	.cfi_offset 23, -240
	.cfi_offset 24, -224
	.cfi_offset 25, -208
	.cfi_offset 26, -192
	.cfi_offset 27, -176
	.cfi_offset 28, -160
	.cfi_offset 29, -144
	.cfi_offset 30, -128
	.cfi_offset 31, -112
	.cfi_offset 32, -96
	.seh_endprologue
.LVL316:
.LBB4280:
.LBI4280:
	.file 15 "C:/msys64/ucrt64/include/c++/14.2.0/bits/allocator.h"
	.loc 15 161 7 is_stmt 1 view .LVU945
.LBB4281:
.LBI4281:
	.file 16 "C:/msys64/ucrt64/include/c++/14.2.0/bits/new_allocator.h"
	.loc 16 88 7 view .LVU946
	.loc 16 88 7 is_stmt 0 view .LVU947
.LBE4281:
.LBE4280:
.LBB4282:
.LBI4282:
	.file 17 "C:/msys64/ucrt64/include/c++/14.2.0/bits/stl_vector.h"
	.loc 17 678 7 is_stmt 1 view .LVU948
.LBB4283:
.LBI4283:
	.loc 17 320 7 view .LVU949
.LBB4284:
.LBI4284:
	.loc 17 145 2 view .LVU950
.LBB4285:
.LBI4285:
	.loc 15 165 7 view .LVU951
.LBB4286:
.LBI4286:
	.loc 16 92 7 view .LVU952
	.loc 16 92 7 is_stmt 0 view .LVU953
.LBE4286:
.LBE4285:
.LBB4287:
.LBI4287:
	.loc 17 98 2 is_stmt 1 view .LVU954
	.loc 17 98 2 is_stmt 0 view .LVU955
.LBE4287:
.LBE4284:
.LBE4283:
.LBB4288:
.LBI4288:
	.file 18 "C:/msys64/ucrt64/include/c++/14.2.0/initializer_list"
	.loc 18 77 7 is_stmt 1 view .LVU956
	.loc 18 77 7 is_stmt 0 view .LVU957
.LBE4288:
.LBB4289:
.LBI4289:
	.loc 18 73 7 is_stmt 1 view .LVU958
	.loc 18 73 7 is_stmt 0 view .LVU959
.LBE4289:
.LBB4290:
.LBI4290:
	.loc 17 1689 2 is_stmt 1 view .LVU960
.LBB4291:
.LBB4292:
.LBI4292:
	.loc 17 1917 7 view .LVU961
.LBB4293:
.LBI4293:
	.loc 15 165 7 view .LVU962
.LBB4294:
.LBI4294:
	.loc 16 92 7 view .LVU963
	.loc 16 92 7 is_stmt 0 view .LVU964
.LBE4294:
.LBE4293:
.LBB4295:
.LBI4295:
	.loc 15 182 7 is_stmt 1 view .LVU965
.LBB4296:
.LBI4296:
	.loc 16 104 7 view .LVU966
	.loc 16 104 7 is_stmt 0 view .LVU967
.LBE4296:
.LBE4295:
.LBE4292:
.LBB4297:
.LBI4297:
	.loc 17 377 7 is_stmt 1 view .LVU968
.LBB4298:
.LBB4299:
.LBI4299:
	.file 19 "C:/msys64/ucrt64/include/c++/14.2.0/bits/alloc_traits.h"
	.loc 19 477 7 view .LVU969
.LBB4300:
.LBI4300:
	.loc 16 126 7 view .LVU970
	.loc 16 126 7 is_stmt 0 view .LVU971
	vxorps	%xmm9, %xmm9, %xmm9	 # tmp308
.LBE4300:
.LBE4299:
.LBE4298:
.LBE4297:
.LBE4291:
.LBE4290:
.LBE4282:
 # C:\Users\MattsDesktop\ECSE6320P1SIMD\Project1DotProduct\dotpMain.cpp:243: void sweep_contiguous(const char* label, void (*func)(const T*,const T*,size_t,T&)){
	.loc 1 243 6 view .LVU972
	vmovq	%rcx, %xmm13	 # tmp294, label
	leaq	162(%rsp), %rdi	 #, ivtmp.730
.LBB4358:
.LBB4353:
.LBB4348:
.LBB4313:
.LBB4310:
.LBB4307:
.LBB4304:
.LBB4301:
 # C:/msys64/ucrt64/include/c++/14.2.0/bits/new_allocator.h:151: 	return static_cast<_Tp*>(_GLIBCXX_OPERATOR_NEW(__n * sizeof(_Tp)));
	.loc 16 151 48 view .LVU973
	movl	$64, %ecx	 #,
.LVL317:
	.loc 16 151 48 view .LVU974
.LBE4301:
.LBE4304:
.LBE4307:
.LBE4310:
.LBE4313:
.LBE4348:
.LBE4353:
.LBE4358:
 # C:\Users\MattsDesktop\ECSE6320P1SIMD\Project1DotProduct\dotpMain.cpp:243: void sweep_contiguous(const char* label, void (*func)(const T*,const T*,size_t,T&)){
	.loc 1 243 6 view .LVU975
	vmovq	%rdx, %xmm14	 # tmp295, func
.LEHB10:
.LBB4359:
.LBB4354:
.LBB4349:
.LBB4314:
.LBB4311:
.LBB4308:
.LBB4305:
.LBB4302:
 # C:/msys64/ucrt64/include/c++/14.2.0/bits/new_allocator.h:151: 	return static_cast<_Tp*>(_GLIBCXX_OPERATOR_NEW(__n * sizeof(_Tp)));
	.loc 16 151 48 view .LVU976
	call	_Znwy	 #
.LVL318:
.LEHE10:
	.loc 16 151 48 view .LVU977
.LBE4302:
.LBE4305:
.LBE4308:
.LBE4311:
.LBE4314:
.LBE4349:
.LBE4354:
.LBE4359:
.LBB4360:
 # C:\Users\MattsDesktop\ECSE6320P1SIMD\Project1DotProduct\dotpMain.cpp:247:     for(bool mis:{false,true}){
	.loc 1 247 5 view .LVU978
	movl	$256, %r8d	 #,
	movb	$0, 127(%rsp)	 #, %sfp
.LBE4360:
.LBB5004:
.LBB4355:
.LBB4350:
.LBB4315:
.LBB4316:
.LBB4317:
.LBB4318:
.LBB4319:
.LBB4320:
.LBB4321:
.LBB4322:
.LBB4323:
.LBB4324:
.LBB4325:
 # C:/msys64/ucrt64/include/c++/14.2.0/bits/stl_algobase.h:452: 	    __builtin_memmove(__result, __first, sizeof(_Tp) * _Num);
	.file 20 "C:/msys64/ucrt64/include/c++/14.2.0/bits/stl_algobase.h"
	.loc 20 452 23 view .LVU979
	vmovdqu64	.LC8(%rip), %zmm0	 #, tmp160
	movq	%rdi, 144(%rsp)	 # ivtmp.730, %sfp
	leaq	164(%rsp), %rdi	 #, tmp277
.LBE4325:
.LBE4324:
.LBE4323:
.LBE4322:
.LBE4321:
.LBE4320:
.LBE4319:
.LBE4318:
.LBE4317:
.LBE4316:
.LBE4315:
.LBE4350:
.LBE4355:
.LBE5004:
.LBB5005:
.LBB4361:
.LBB4362:
.LBB4363:
.LBB4364:
.LBB4365:
.LBB4366:
.LBB4367:
.LBB4368:
.LBB4369:
.LBB4370:
 # C:/msys64/ucrt64/include/c++/14.2.0/bits/chrono.h:214: 	      static_cast<_CR>(__d.count()) / static_cast<_CR>(_CF::den)));
	.file 21 "C:/msys64/ucrt64/include/c++/14.2.0/bits/chrono.h"
	.loc 21 214 38 discriminator 1 view .LVU980
	vmovsd	.LC13(%rip), %xmm8	 #, tmp291
.LBE4370:
.LBE4369:
.LBE4368:
.LBE4367:
.LBE4366:
.LBE4365:
.LBE4364:
.LBE4363:
.LBE4362:
.LBE4361:
.LBE5005:
.LBB5006:
.LBB4356:
.LBB4351:
.LBB4345:
.LBB4312:
.LBB4309:
.LBB4306:
.LBB4303:
 # C:/msys64/ucrt64/include/c++/14.2.0/bits/new_allocator.h:151: 	return static_cast<_Tp*>(_GLIBCXX_OPERATOR_NEW(__n * sizeof(_Tp)));
	.loc 16 151 48 view .LVU981
	movq	%rax, 152(%rsp)	 # _160, %sfp
.LVL319:
	.loc 16 151 48 view .LVU982
.LBE4303:
.LBE4306:
.LBE4309:
.LBE4312:
.LBE4345:
.LBB4346:
.LBI4315:
	.file 22 "C:/msys64/ucrt64/include/c++/14.2.0/bits/stl_uninitialized.h"
	.loc 22 366 5 is_stmt 1 view .LVU983
.LBB4343:
.LBI4316:
	.loc 22 163 5 view .LVU984
.LBB4341:
.LBB4339:
.LBI4318:
	.loc 22 145 9 view .LVU985
.LBB4337:
.LBI4319:
	.loc 20 642 5 view .LVU986
.LBB4335:
.LBI4320:
	.loc 20 553 5 view .LVU987
.LBB4333:
.LBI4321:
	.loc 20 547 5 view .LVU988
.LBB4331:
.LBI4322:
	.loc 20 512 5 view .LVU989
.LBB4329:
.LBB4327:
.LBI4324:
	.loc 20 448 2 view .LVU990
	.loc 20 448 2 is_stmt 0 view .LVU991
	addq	$64, %rax	 #, _12
.LVL320:
	.loc 20 448 2 view .LVU992
	movq	%rdi, 112(%rsp)	 # tmp277, %sfp
.LBE4327:
.LBE4329:
.LBE4331:
.LBE4333:
.LBE4335:
.LBE4337:
.LBE4339:
.LBE4341:
.LBE4343:
.LBE4346:
.LBE4351:
.LBE4356:
.LBE5006:
.LBB5007:
 # C:\Users\MattsDesktop\ECSE6320P1SIMD\Project1DotProduct\dotpMain.cpp:247:     for(bool mis:{false,true}){
	.loc 1 247 5 view .LVU993
	movl	$1024, %edi	 #, n
	movw	%r8w, 162(%rsp)	 #, MEM <unsigned short> [(bool *)&D.129244]
.LBE5007:
.LBB5008:
.LBB4357:
.LBB4352:
.LBB4347:
.LBB4344:
.LBB4342:
.LBB4340:
.LBB4338:
.LBB4336:
.LBB4334:
.LBB4332:
.LBB4330:
.LBB4328:
.LBB4326:
 # C:/msys64/ucrt64/include/c++/14.2.0/bits/stl_algobase.h:452: 	    __builtin_memmove(__result, __first, sizeof(_Tp) * _Num);
	.loc 20 452 23 view .LVU994
	vmovdqu64	%zmm0, -64(%rax)	 # tmp160, MEM <vector(64) unsigned char> [(char * {ref-all})_160]
.LVL321:
	.loc 20 452 23 view .LVU995
.LBE4326:
.LBE4328:
.LBE4330:
.LBE4332:
.LBE4334:
.LBE4336:
.LBE4338:
.LBE4340:
.LBE4342:
.LBE4344:
.LBE4347:
.LBE4352:
.LBE4357:
.LBE5008:
.LBB5009:
.LBI5009:
	.loc 15 182 7 is_stmt 1 view .LVU996
.LBB5010:
.LBI5010:
	.loc 16 104 7 view .LVU997
	.loc 16 104 7 is_stmt 0 view .LVU998
.LBE5010:
.LBE5009:
.LBB5011:
	.loc 1 247 5 is_stmt 1 discriminator 1 view .LVU999
	vmovq	%rax, %xmm15	 # _12, _12
	vzeroupper
.LVL322:
.L122:
.LBB5001:
 # C:\Users\MattsDesktop\ECSE6320P1SIMD\Project1DotProduct\dotpMain.cpp:248:         use_aligned_loads = !mis;
	.loc 1 248 30 is_stmt 0 view .LVU1000
	movzbl	127(%rsp), %esi	 # %sfp, prephitmp_107
	leaq	.LC10(%rip), %r15	 #, iftmp.18_137
	movl	%esi, %eax	 # prephitmp_107, tmp161
	xorl	$1, %eax	 #, tmp161
	testb	%sil, %sil	 # prephitmp_107
	movb	%al, _ZL17use_aligned_loads(%rip)	 # tmp161, use_aligned_loads
.LVL323:
.LBB4998:
.LBB4990:
.LBI4990:
	.loc 17 873 7 is_stmt 1 view .LVU1001
.LBB4991:
.LBI4991:
	.file 23 "C:/msys64/ucrt64/include/c++/14.2.0/bits/stl_iterator.h"
	.loc 23 1067 7 view .LVU1002
	.loc 23 1067 7 is_stmt 0 view .LVU1003
.LBE4991:
.LBE4990:
.LBB4992:
.LBI4992:
	.loc 17 893 7 is_stmt 1 view .LVU1004
.LBB4993:
.LBI4993:
	.loc 23 1067 7 view .LVU1005
	.loc 23 1067 7 is_stmt 0 view .LVU1006
.LBE4993:
.LBE4992:
	.loc 1 249 9 is_stmt 1 discriminator 1 view .LVU1007
	leaq	.LC9(%rip), %rax	 #, tmp328
	cmovne	%rax, %r15	 # tmp328,, iftmp.18_137
	movq	152(%rsp), %rax	 # %sfp, _160
	movq	%rax, 104(%rsp)	 # _160, %sfp
	jmp	.L148	 #
.LVL324:
	.p2align 4,,10
	.p2align 3
.L123:
.LBB4994:
.LBB4967:
.LBI4967:
	.loc 1 81 13 view .LVU1008
.LBB4968:
.LBI4968:
	.loc 1 68 13 view .LVU1009
.LBB4969:
	.loc 1 69 5 view .LVU1010
	testq	%rsi, %rsi	 # x
	je	.L127	 #,
	.loc 1 71 5 view .LVU1011
 # C:\Users\MattsDesktop\ECSE6320P1SIMD\Project1DotProduct\dotpMain.cpp:71:     _aligned_free(p);
	.loc 1 71 18 is_stmt 0 view .LVU1012
	movq	%rsi, %rcx	 # x,
.LEHB11:
	call	*__imp__aligned_free(%rip)	 #
.LVL325:
.L127:
	.loc 1 71 18 view .LVU1013
.LBE4969:
.LBE4968:
.LBE4967:
.LBB4970:
.LBI4970:
	.loc 1 81 13 is_stmt 1 view .LVU1014
.LBB4971:
.LBI4971:
	.loc 1 68 13 view .LVU1015
.LBB4972:
	.loc 1 69 5 view .LVU1016
	testq	%rbx, %rbx	 # y
	je	.L128	 #,
	.loc 1 71 5 view .LVU1017
 # C:\Users\MattsDesktop\ECSE6320P1SIMD\Project1DotProduct\dotpMain.cpp:71:     _aligned_free(p);
	.loc 1 71 18 is_stmt 0 view .LVU1018
	movq	%rbx, %rcx	 # y,
	call	*__imp__aligned_free(%rip)	 #
.LVL326:
.L128:
	.loc 1 71 18 view .LVU1019
.LBE4972:
.LBE4971:
.LBE4970:
.LBE4994:
	.loc 1 249 9 is_stmt 1 discriminator 2 view .LVU1020
	.loc 1 249 9 discriminator 1 view .LVU1021
	addq	$8, 104(%rsp)	 #, %sfp
.LVL327:
	.loc 1 249 9 is_stmt 0 discriminator 1 view .LVU1022
	movq	104(%rsp), %rax	 # %sfp, ivtmp.706
	vmovq	%xmm15, %rsi	 # _12, _12
	cmpq	%rsi, %rax	 # _12, ivtmp.706
	je	.L147	 #,
.LVL328:
.LBB4995:
 # C:\Users\MattsDesktop\ECSE6320P1SIMD\Project1DotProduct\dotpMain.cpp:249:         for(size_t n:sizes){
	.loc 1 249 9 discriminator 3 view .LVU1023
	movq	(%rax), %rdi	 # MEM[(long long unsigned int &)_58], n
.LVL329:
.L148:
.LBB4973:
.LBI4973:
	.loc 1 77 11 is_stmt 1 view .LVU1024
.LBB4974:
 # C:\Users\MattsDesktop\ECSE6320P1SIMD\Project1DotProduct\dotpMain.cpp:78:     return reinterpret_cast<T*>(aligned_malloc(n*sizeof(T),align));
	.loc 1 78 47 is_stmt 0 view .LVU1025
	leaq	4(,%rdi,4), %rbx	 #, _75
.LVL330:
.LBB4975:
.LBI4975:
	.loc 1 59 14 is_stmt 1 view .LVU1026
.LBB4976:
	.loc 1 61 5 view .LVU1027
 # C:\Users\MattsDesktop\ECSE6320P1SIMD\Project1DotProduct\dotpMain.cpp:61:     return _aligned_malloc(bytes, align);
	.loc 1 61 27 is_stmt 0 view .LVU1028
	movl	$64, %edx	 #,
	movq	%rbx, %rcx	 # _75,
	call	*__imp__aligned_malloc(%rip)	 #
.LVL331:
	.loc 1 61 27 view .LVU1029
	movq	%rax, %rsi	 # tmp297, x
.LVL332:
	.loc 1 61 27 view .LVU1030
.LBE4976:
.LBE4975:
.LBE4974:
.LBE4973:
.LBB4977:
.LBI4977:
	.loc 1 77 11 is_stmt 1 view .LVU1031
.LBB4978:
.LBI4978:
	.loc 1 59 14 view .LVU1032
.LBB4979:
	.loc 1 61 5 view .LVU1033
 # C:\Users\MattsDesktop\ECSE6320P1SIMD\Project1DotProduct\dotpMain.cpp:61:     return _aligned_malloc(bytes, align);
	.loc 1 61 27 is_stmt 0 view .LVU1034
	movl	$64, %edx	 #,
	movq	%rbx, %rcx	 # _75,
	call	*__imp__aligned_malloc(%rip)	 #
.LVL333:
	.loc 1 61 27 view .LVU1035
	movq	%rax, %rbx	 # tmp298, y
.LVL334:
	.loc 1 61 27 view .LVU1036
.LBE4979:
.LBE4978:
.LBE4977:
 # C:\Users\MattsDesktop\ECSE6320P1SIMD\Project1DotProduct\dotpMain.cpp:252:             if(!x||!y){ aligned_free_array(x);aligned_free_array(y);continue;}
	.loc 1 252 13 view .LVU1037
	testq	%rsi, %rsi	 # x
	je	.L127	 #,
	testq	%rax, %rax	 # y
	je	.L123	 #,
.LVL335:
.LBB4980:
	.loc 1 253 29 is_stmt 1 discriminator 1 view .LVU1038
	testq	%rdi, %rdi	 # n
	je	.L129	 #,
	vmovss	.LC11(%rip), %xmm1	 #, tmp282
 # C:\Users\MattsDesktop\ECSE6320P1SIMD\Project1DotProduct\dotpMain.cpp:253:             for(size_t i=0;i<n;++i){x[i]=T(1);y[i]=T(2);}
	.loc 1 253 24 is_stmt 0 view .LVU1039
	xorl	%eax, %eax	 # i
.LVL336:
	.loc 1 253 24 view .LVU1040
	vmovss	.LC12(%rip), %xmm0	 #, tmp283
.LVL337:
	.loc 1 253 24 view .LVU1041
	.p2align 5
	.p2align 4
	.p2align 3
.L124:
.LVL338:
 # C:\Users\MattsDesktop\ECSE6320P1SIMD\Project1DotProduct\dotpMain.cpp:253:             for(size_t i=0;i<n;++i){x[i]=T(1);y[i]=T(2);}
	.loc 1 253 41 discriminator 3 view .LVU1042
	vmovss	%xmm1, (%rsi,%rax,4)	 # tmp282, MEM[(float *)_72 + i_235 * 4]
 # C:\Users\MattsDesktop\ECSE6320P1SIMD\Project1DotProduct\dotpMain.cpp:253:             for(size_t i=0;i<n;++i){x[i]=T(1);y[i]=T(2);}
	.loc 1 253 51 discriminator 3 view .LVU1043
	vmovss	%xmm0, (%rbx,%rax,4)	 # tmp283, MEM[(float *)_65 + i_235 * 4]
	.loc 1 253 13 is_stmt 1 discriminator 3 view .LVU1044
	addq	$1, %rax	 #, i
.LVL339:
	.loc 1 253 29 discriminator 1 view .LVU1045
	cmpq	%rdi, %rax	 # n, i
	jne	.L124	 #,
.LVL340:
.L129:
	.loc 1 253 29 is_stmt 0 discriminator 1 view .LVU1046
.LBE4980:
 # C:\Users\MattsDesktop\ECSE6320P1SIMD\Project1DotProduct\dotpMain.cpp:254:             if(mis){ x = (T*)((char*)x + sizeof(T)); y = (T*)((char*)y + sizeof(T)); n--; }
	.loc 1 254 13 view .LVU1047
	cmpb	$0, 127(%rsp)	 #, %sfp
	je	.L126	 #,
 # C:\Users\MattsDesktop\ECSE6320P1SIMD\Project1DotProduct\dotpMain.cpp:254:             if(mis){ x = (T*)((char*)x + sizeof(T)); y = (T*)((char*)y + sizeof(T)); n--; }
	.loc 1 254 24 discriminator 1 view .LVU1048
	addq	$4, %rsi	 #, x
.LVL341:
 # C:\Users\MattsDesktop\ECSE6320P1SIMD\Project1DotProduct\dotpMain.cpp:254:             if(mis){ x = (T*)((char*)x + sizeof(T)); y = (T*)((char*)y + sizeof(T)); n--; }
	.loc 1 254 56 discriminator 1 view .LVU1049
	addq	$4, %rbx	 #, y
.LVL342:
 # C:\Users\MattsDesktop\ECSE6320P1SIMD\Project1DotProduct\dotpMain.cpp:254:             if(mis){ x = (T*)((char*)x + sizeof(T)); y = (T*)((char*)y + sizeof(T)); n--; }
	.loc 1 254 86 discriminator 1 view .LVU1050
	subq	$1, %rdi	 #, n
.L126:
.LVL343:
.LBB4981:
	.loc 1 255 26 is_stmt 1 discriminator 1 view .LVU1051
	vmovq	%xmm13, %rax	 # label, label
	testq	%rax, %rax	 # label
	je	.L130	 #,
.LVL344:
.LBB4963:
 # C:\Users\MattsDesktop\ECSE6320P1SIMD\Project1DotProduct\dotpMain.cpp:264:                 double ms=sec*1e3;
	.loc 1 264 24 is_stmt 0 view .LVU1052
	vmovsd	.LC14(%rip), %xmm11	 #, tmp288
.LBE4963:
 # C:\Users\MattsDesktop\ECSE6320P1SIMD\Project1DotProduct\dotpMain.cpp:255:             for(int t=0;t<trials;++t){
	.loc 1 255 21 view .LVU1053
	xorl	%r12d, %r12d	 # t
.LBB4964:
.LBB4390:
.LBB4391:
.LBB4392:
.LBB4393:
.LBB4394:
 # C:/msys64/ucrt64/include/c++/14.2.0/bits/basic_string.h:194: 	: allocator_type(__a), _M_p(__dat) { }
	.loc 7 194 25 discriminator 1 view .LVU1054
	leaq	288(%rsp), %r13	 #, tmp289
.LVL345:
.L143:
	.loc 7 194 25 discriminator 1 view .LVU1055
.LBE4394:
.LBE4393:
.LBE4392:
.LBE4391:
.LBE4390:
 # C:\Users\MattsDesktop\ECSE6320P1SIMD\Project1DotProduct\dotpMain.cpp:258:                 func(x,y,n,sum);
	.loc 1 258 21 view .LVU1056
	movq	112(%rsp), %r9	 # %sfp,
	movq	%rdi, %r8	 # n,
	movq	%rbx, %rdx	 # y,
	movq	%rsi, %rcx	 # x,
	vmovq	%xmm14, %r14	 # func, func
	call	*%r14	 # func
.LVL346:
 # C:\Users\MattsDesktop\ECSE6320P1SIMD\Project1DotProduct\dotpMain.cpp:259:                 auto start=std::chrono::high_resolution_clock::now();
	.loc 1 259 67 view .LVU1057
	call	_ZNSt6chrono3_V212system_clock3nowEv	 #
.LVL347:
 # C:\Users\MattsDesktop\ECSE6320P1SIMD\Project1DotProduct\dotpMain.cpp:260:                 func(x,y,n,sum);
	.loc 1 260 21 view .LVU1058
	movq	112(%rsp), %r9	 # %sfp,
	movq	%rdi, %r8	 # n,
	movq	%rbx, %rdx	 # y,
 # C:\Users\MattsDesktop\ECSE6320P1SIMD\Project1DotProduct\dotpMain.cpp:259:                 auto start=std::chrono::high_resolution_clock::now();
	.loc 1 259 67 view .LVU1059
	movq	%rax, %rbp	 # tmp299, start
.LVL348:
 # C:\Users\MattsDesktop\ECSE6320P1SIMD\Project1DotProduct\dotpMain.cpp:260:                 func(x,y,n,sum);
	.loc 1 260 21 view .LVU1060
	movq	%rsi, %rcx	 # x,
	call	*%r14	 # func
.LVL349:
.LEHE11:
 # C:\Users\MattsDesktop\ECSE6320P1SIMD\Project1DotProduct\dotpMain.cpp:261:                 auto end=std::chrono::high_resolution_clock::now();
	.loc 1 261 65 view .LVU1061
	call	_ZNSt6chrono3_V212system_clock3nowEv	 #
.LVL350:
.LBB4495:
.LBI4495:
	.loc 21 1141 7 is_stmt 1 view .LVU1062
.LBB4496:
.LBI4496:
	.loc 21 949 2 view .LVU1063
	.loc 21 949 2 is_stmt 0 view .LVU1064
.LBE4496:
.LBB4497:
.LBI4497:
	.loc 21 949 2 is_stmt 1 view .LVU1065
	.loc 21 949 2 is_stmt 0 view .LVU1066
.LBE4497:
.LBB4498:
.LBI4498:
	.loc 21 710 7 is_stmt 1 view .LVU1067
.LBB4499:
.LBB4500:
.LBI4500:
	.loc 21 573 23 view .LVU1068
	.loc 21 573 23 is_stmt 0 view .LVU1069
.LBE4500:
.LBE4499:
.LBE4498:
.LBE4495:
.LBB4508:
.LBI4366:
	.loc 21 581 14 is_stmt 1 view .LVU1070
.LBB4384:
.LBI4367:
	.loc 21 275 7 view .LVU1071
.LBB4380:
.LBB4376:
.LBI4369:
	.loc 21 210 4 view .LVU1072
.LBE4376:
.LBE4380:
.LBE4384:
.LBE4508:
.LBB4509:
.LBB4486:
.LBB4401:
.LBB4398:
.LBB4395:
 # C:/msys64/ucrt64/include/c++/14.2.0/bits/basic_string.h:194: 	: allocator_type(__a), _M_p(__dat) { }
	.loc 7 194 25 is_stmt 0 discriminator 1 view .LVU1073
	movq	%r13, 272(%rsp)	 # tmp289,
.LBE4395:
.LBE4398:
.LBE4401:
.LBE4486:
.LBE4509:
 # C:\Users\MattsDesktop\ECSE6320P1SIMD\Project1DotProduct\dotpMain.cpp:265:                 log_per_trial<T>("dotp_benchmark.csv",label,dtype_name<T>(),n,
	.loc 1 265 33 view .LVU1074
	addl	$1, %r12d	 #, t
.LVL351:
	.loc 1 265 33 view .LVU1075
	vmovss	164(%rsp), %xmm10	 # sum, sum.17_22
.LVL352:
.LBB4510:
.LBB4504:
.LBB4502:
 # C:/msys64/ucrt64/include/c++/14.2.0/bits/chrono.h:716: 	return __cd(__cd(__lhs).count() - __cd(__rhs).count());
	.loc 21 716 34 discriminator 2 view .LVU1076
	subq	%rbp, %rax	 # start, _101
.LBE4502:
.LBE4504:
.LBE4510:
 # C:\Users\MattsDesktop\ECSE6320P1SIMD\Project1DotProduct\dotpMain.cpp:263:                 double gflops = (2.0*n)/(sec*1e9);
	.loc 1 263 37 view .LVU1077
	vcvtusi2sdq	%rdi, %xmm9, %xmm7	 # n, tmp308, tmp310
.LBB4511:
.LBB4512:
.LBB4513:
.LBB4514:
.LBB4515:
 # C:/msys64/ucrt64/include/c++/14.2.0/bits/basic_string.h:194: 	: allocator_type(__a), _M_p(__dat) { }
	.loc 7 194 25 discriminator 1 view .LVU1078
	leaq	224(%rsp), %rbp	 #, tmp285
.LVL353:
	.loc 7 194 25 discriminator 1 view .LVU1079
.LBE4515:
.LBE4514:
.LBE4513:
.LBE4512:
.LBE4511:
.LBB4616:
.LBB4617:
.LBB4618:
.LBB4619:
.LBB4620:
.LBB4621:
.LBB4622:
.LBB4623:
.LBB4624:
.LBB4625:
 # C:/msys64/ucrt64/include/c++/14.2.0/bits/char_traits.h:427: 	return static_cast<char_type*>(__builtin_memcpy(__s1, __s2, __n));
	.loc 9 427 49 view .LVU1080
	movl	$1634692198, 256(%rsp)	 #, MEM <char[1:7]> [(void *)&D.129396 + 16B]
.LBE4625:
.LBE4624:
.LBE4623:
.LBE4622:
.LBE4621:
.LBE4620:
.LBE4619:
.LBE4618:
.LBE4617:
.LBE4616:
.LBB4716:
.LBB4385:
.LBB4381:
.LBB4377:
.LBB4373:
 # C:/msys64/ucrt64/include/c++/14.2.0/bits/chrono.h:214: 	      static_cast<_CR>(__d.count()) / static_cast<_CR>(_CF::den)));
	.loc 21 214 8 discriminator 1 view .LVU1081
	vcvtsi2sdq	%rax, %xmm9, %xmm6	 # _101, tmp308, tmp309
.LBE4373:
.LBE4377:
.LBE4381:
.LBE4385:
.LBE4716:
.LBB4717:
.LBB4487:
.LBB4402:
.LBB4403:
.LBB4404:
.LBB4405:
.LBB4406:
.LBB4407:
.LBB4408:
.LBB4409:
 # C:/msys64/ucrt64/include/c++/14.2.0/bits/char_traits.h:427: 	return static_cast<char_type*>(__builtin_memcpy(__s1, __s2, __n));
	.loc 9 427 49 view .LVU1082
	movq	(%r15), %rax	 # MEM <char[1:10]> [(void *)iftmp.18_137], MEM <char[1:10]> [(void *)iftmp.18_137]
.LBE4409:
.LBE4408:
.LBE4407:
.LBE4406:
.LBE4405:
.LBE4404:
.LBE4403:
.LBE4402:
.LBE4487:
.LBE4717:
.LBB4718:
.LBB4607:
.LBB4530:
.LBB4531:
.LBB4532:
 # C:/msys64/ucrt64/include/c++/14.2.0/bits/char_traits.h:391: 	return __builtin_strlen(__s);
	.loc 9 391 25 view .LVU1083
	vmovq	%xmm13, %rcx	 # label,
.LBE4532:
.LBE4531:
.LBE4530:
.LBE4607:
.LBE4718:
.LBB4719:
.LBB4488:
.LBB4478:
.LBB4470:
.LBB4464:
.LBB4434:
.LBB4435:
.LBB4436:
 # C:/msys64/ucrt64/include/c++/14.2.0/bits/basic_string.h:223:       { _M_string_length = __length; }
	.loc 7 223 26 view .LVU1084
	movq	$10, 280(%rsp)	 #, D.129398._M_string_length
.LBE4436:
.LBE4435:
.LBE4434:
.LBE4464:
.LBE4470:
.LBE4478:
.LBE4488:
.LBE4719:
.LBB4720:
.LBB4708:
.LBB4686:
.LBB4677:
.LBB4670:
.LBB4646:
.LBB4641:
.LBB4636:
.LBB4631:
.LBB4626:
 # C:/msys64/ucrt64/include/c++/14.2.0/bits/char_traits.h:427: 	return static_cast<char_type*>(__builtin_memcpy(__s1, __s2, __n));
	.loc 9 427 49 view .LVU1085
	movl	$842232929, 259(%rsp)	 #, MEM <char[1:7]> [(void *)&D.129396 + 16B]
.LBE4626:
.LBE4631:
.LBE4636:
.LBE4641:
.LBE4646:
.LBE4670:
.LBE4677:
.LBE4686:
.LBE4708:
.LBE4720:
.LBB4721:
.LBB4489:
.LBB4479:
.LBB4471:
.LBB4465:
.LBB4449:
.LBB4428:
.LBB4422:
.LBB4416:
.LBB4410:
	movq	%rax, 0(%r13)	 # MEM <char[1:10]> [(void *)iftmp.18_137], MEM <char[1:10]> [(void *)&D.129398 + 16B]
	movzwl	8(%r15), %eax	 # MEM <char[1:10]> [(void *)iftmp.18_137], MEM <char[1:10]> [(void *)iftmp.18_137]
.LBE4410:
.LBE4416:
.LBE4422:
.LBE4428:
.LBE4449:
.LBE4465:
.LBE4471:
.LBE4479:
.LBE4489:
.LBE4721:
 # C:\Users\MattsDesktop\ECSE6320P1SIMD\Project1DotProduct\dotpMain.cpp:263:                 double gflops = (2.0*n)/(sec*1e9);
	.loc 1 263 37 view .LVU1086
	vaddsd	%xmm7, %xmm7, %xmm7	 # _32, _32, _31
.LBB4722:
.LBB4709:
.LBB4687:
.LBB4678:
.LBB4671:
.LBB4647:
.LBB4648:
.LBB4649:
 # C:/msys64/ucrt64/include/c++/14.2.0/bits/char_traits.h:350: 	__c1 = __c2;
	.loc 9 350 7 view .LVU1087
	movb	$0, 263(%rsp)	 #, MEM[(char_type &)&D.129396 + 23]
.LBE4649:
.LBE4648:
.LBE4647:
.LBE4671:
.LBE4678:
.LBE4687:
.LBE4709:
.LBE4722:
.LBB4723:
.LBB4386:
.LBB4382:
.LBB4378:
.LBB4374:
 # C:/msys64/ucrt64/include/c++/14.2.0/bits/chrono.h:214: 	      static_cast<_CR>(__d.count()) / static_cast<_CR>(_CF::den)));
	.loc 21 214 38 discriminator 1 view .LVU1088
	vdivsd	%xmm8, %xmm6, %xmm6	 # tmp291, _100, _97
.LBB4371:
.LBI4371:
	.loc 21 573 23 is_stmt 1 view .LVU1089
.LVL354:
	.loc 21 573 23 is_stmt 0 view .LVU1090
.LBE4371:
.LBE4374:
.LBE4378:
.LBE4382:
.LBE4386:
.LBB4387:
.LBI4387:
	.loc 21 589 2 is_stmt 1 view .LVU1091
	.loc 21 589 2 is_stmt 0 view .LVU1092
.LBE4387:
.LBE4723:
.LBB4724:
.LBB4490:
.LBB4480:
.LBB4472:
.LBB4466:
.LBB4450:
.LBB4429:
.LBB4423:
.LBB4417:
.LBB4411:
 # C:/msys64/ucrt64/include/c++/14.2.0/bits/char_traits.h:427: 	return static_cast<char_type*>(__builtin_memcpy(__s1, __s2, __n));
	.loc 9 427 49 view .LVU1093
	movw	%ax, 8(%r13)	 # MEM <char[1:10]> [(void *)iftmp.18_137], MEM <char[1:10]> [(void *)&D.129398 + 16B]
.LBE4411:
.LBE4417:
.LBE4423:
.LBE4429:
.LBE4450:
.LBE4466:
.LBE4472:
.LBE4480:
.LBE4490:
.LBE4724:
.LBB4725:
.LBB4710:
.LBB4688:
.LBB4689:
.LBB4690:
 # C:/msys64/ucrt64/include/c++/14.2.0/bits/basic_string.h:194: 	: allocator_type(__a), _M_p(__dat) { }
	.loc 7 194 25 discriminator 1 view .LVU1094
	leaq	256(%rsp), %rax	 #, tmp272
	movq	%rax, 240(%rsp)	 # tmp272, MEM[(struct _Alloc_hider *)&D.129396]._M_p
	vmovq	%rax, %xmm12	 # tmp272, tmp272
.LBE4690:
.LBE4689:
.LBE4688:
.LBE4710:
.LBE4725:
.LBB4726:
.LBB4608:
.LBB4595:
.LBB4525:
.LBB4520:
	leaq	208(%rsp), %rax	 #, tmp281
.LBE4520:
.LBE4525:
.LBE4595:
.LBE4608:
.LBE4726:
.LBB4727:
.LBB4491:
.LBB4481:
.LBB4473:
.LBB4467:
.LBB4451:
.LBB4438:
.LBB4439:
 # C:/msys64/ucrt64/include/c++/14.2.0/bits/char_traits.h:350: 	__c1 = __c2;
	.loc 9 350 7 view .LVU1095
	movb	$0, 298(%rsp)	 #, MEM[(char_type &)&D.129398 + 26]
.LBE4439:
.LBE4438:
.LBE4451:
.LBE4467:
.LBE4473:
.LBE4481:
.LBE4491:
.LBE4727:
.LBB4728:
.LBB4711:
.LBB4699:
.LBB4679:
.LBB4672:
.LBB4659:
.LBB4652:
.LBB4653:
 # C:/msys64/ucrt64/include/c++/14.2.0/bits/basic_string.h:223:       { _M_string_length = __length; }
	.loc 7 223 26 view .LVU1096
	movq	$7, 248(%rsp)	 #, D.129396._M_string_length
.LBE4653:
.LBE4652:
.LBE4659:
.LBE4672:
.LBE4679:
.LBE4699:
.LBE4711:
.LBE4728:
.LBB4729:
.LBB4609:
.LBB4596:
.LBB4526:
.LBB4521:
 # C:/msys64/ucrt64/include/c++/14.2.0/bits/basic_string.h:194: 	: allocator_type(__a), _M_p(__dat) { }
	.loc 7 194 25 discriminator 1 view .LVU1097
	movq	%rax, 96(%rsp)	 # tmp281, %sfp
	movq	%rbp, 208(%rsp)	 # tmp285, MEM[(struct _Alloc_hider *)&D.129394]._M_p
.LBE4521:
.LBE4526:
.LBE4596:
.LBE4609:
.LBE4729:
 # C:\Users\MattsDesktop\ECSE6320P1SIMD\Project1DotProduct\dotpMain.cpp:263:                 double gflops = (2.0*n)/(sec*1e9);
	.loc 1 263 45 view .LVU1098
	vmulsd	%xmm8, %xmm6, %xmm0	 # tmp291, _97, _28
 # C:\Users\MattsDesktop\ECSE6320P1SIMD\Project1DotProduct\dotpMain.cpp:264:                 double ms=sec*1e3;
	.loc 1 264 24 view .LVU1099
	vmulsd	%xmm11, %xmm6, %xmm6	 # tmp288, _97, ms
.LVL355:
 # C:\Users\MattsDesktop\ECSE6320P1SIMD\Project1DotProduct\dotpMain.cpp:263:                 double gflops = (2.0*n)/(sec*1e9);
	.loc 1 263 24 view .LVU1100
	vdivsd	%xmm0, %xmm7, %xmm7	 # _28, _31, gflops
.LVL356:
.LBB4730:
.LBI4730:
	.loc 15 161 7 is_stmt 1 view .LVU1101
.LBB4731:
.LBI4731:
	.loc 16 88 7 view .LVU1102
	.loc 16 88 7 is_stmt 0 view .LVU1103
.LBE4731:
.LBE4730:
.LBB4733:
.LBB4492:
.LBB4482:
.LBB4474:
.LBI4474:
	.loc 9 385 7 is_stmt 1 view .LVU1104
	.loc 9 388 2 view .LVU1105
	.loc 9 391 2 view .LVU1106
	.loc 9 391 2 is_stmt 0 view .LVU1107
.LBE4474:
.LBB4475:
.LBI4403:
	.loc 6 221 7 is_stmt 1 view .LVU1108
.LBB4468:
.LBB4452:
.LBI4452:
	.loc 6 239 13 view .LVU1109
	.loc 6 239 13 is_stmt 0 view .LVU1110
.LBE4452:
.LBB4453:
.LBI4405:
	.loc 7 487 7 is_stmt 1 view .LVU1111
.LBB4430:
.LBI4406:
	.loc 7 430 7 view .LVU1112
.LBB4424:
.LBI4407:
	.loc 7 430 7 view .LVU1113
.LBB4418:
.LBI4408:
	.loc 9 419 7 view .LVU1114
.LBB4412:
	.loc 9 421 2 view .LVU1115
	.loc 9 427 2 view .LVU1116
	.loc 9 427 2 is_stmt 0 view .LVU1117
.LBE4412:
.LBE4418:
.LBE4424:
.LBE4430:
.LBE4453:
.LBB4454:
.LBI4434:
	.loc 7 259 7 is_stmt 1 view .LVU1118
.LBB4443:
.LBI4435:
	.loc 7 222 7 view .LVU1119
	.loc 7 222 7 is_stmt 0 view .LVU1120
.LBE4443:
.LBB4444:
.LBI4438:
	.loc 9 343 7 is_stmt 1 view .LVU1121
.LBB4440:
	.loc 9 350 2 view .LVU1122
	.loc 9 350 2 is_stmt 0 view .LVU1123
.LBE4440:
.LBE4444:
.LBE4454:
.LBB4455:
.LBI4455:
	.loc 6 242 4 is_stmt 1 view .LVU1124
	.loc 6 242 4 is_stmt 0 view .LVU1125
.LBE4455:
.LBE4468:
.LBE4475:
.LBE4482:
.LBE4492:
.LBE4733:
.LBB4734:
.LBI4734:
	.loc 15 161 7 is_stmt 1 view .LVU1126
.LBB4735:
.LBI4735:
	.loc 16 88 7 view .LVU1127
	.loc 16 88 7 is_stmt 0 view .LVU1128
.LBE4735:
.LBE4734:
.LBB4737:
.LBI4616:
	.loc 7 646 7 is_stmt 1 view .LVU1129
.LBB4712:
.LBB4700:
.LBI4700:
	.loc 7 232 7 view .LVU1130
	.loc 7 232 7 is_stmt 0 view .LVU1131
.LBE4700:
.LBB4701:
.LBI4688:
	.loc 7 193 2 is_stmt 1 view .LVU1132
.LBB4697:
.LBB4695:
.LBB4691:
.LBI4691:
	.loc 15 165 7 view .LVU1133
.LBB4692:
.LBI4692:
	.loc 16 92 7 view .LVU1134
	.loc 16 92 7 is_stmt 0 view .LVU1135
.LBE4692:
.LBE4691:
.LBE4695:
.LBE4697:
.LBE4701:
.LBB4702:
.LBB4680:
.LBI4680:
	.loc 9 385 7 is_stmt 1 view .LVU1136
	.loc 9 388 2 view .LVU1137
	.loc 9 391 2 view .LVU1138
	.loc 9 391 2 is_stmt 0 view .LVU1139
.LBE4680:
.LBB4681:
.LBI4619:
	.loc 6 221 7 is_stmt 1 view .LVU1140
.LBB4673:
.LBB4660:
.LBI4660:
	.loc 6 239 13 view .LVU1141
	.loc 6 239 13 is_stmt 0 view .LVU1142
.LBE4660:
.LBB4661:
.LBI4621:
	.loc 7 487 7 is_stmt 1 view .LVU1143
.LBB4642:
.LBI4622:
	.loc 7 430 7 view .LVU1144
.LBB4637:
.LBI4623:
	.loc 7 430 7 view .LVU1145
.LBB4632:
.LBI4624:
	.loc 9 419 7 view .LVU1146
.LBB4627:
	.loc 9 421 2 view .LVU1147
	.loc 9 427 2 view .LVU1148
	.loc 9 427 2 is_stmt 0 view .LVU1149
.LBE4627:
.LBE4632:
.LBE4637:
.LBE4642:
.LBE4661:
.LBB4662:
.LBI4647:
	.loc 7 259 7 is_stmt 1 view .LVU1150
.LBB4655:
.LBI4652:
	.loc 7 222 7 view .LVU1151
	.loc 7 222 7 is_stmt 0 view .LVU1152
.LBE4655:
.LBB4656:
.LBI4648:
	.loc 9 343 7 is_stmt 1 view .LVU1153
.LBB4650:
	.loc 9 350 2 view .LVU1154
	.loc 9 350 2 is_stmt 0 view .LVU1155
.LBE4650:
.LBE4656:
.LBE4662:
.LBB4663:
.LBI4663:
	.loc 6 242 4 is_stmt 1 view .LVU1156
	.loc 6 242 4 is_stmt 0 view .LVU1157
.LBE4663:
.LBE4673:
.LBE4681:
.LBE4702:
.LBE4712:
.LBE4737:
.LBB4738:
.LBI4738:
	.loc 15 161 7 is_stmt 1 view .LVU1158
.LBB4739:
.LBI4739:
	.loc 16 88 7 view .LVU1159
	.loc 16 88 7 is_stmt 0 view .LVU1160
.LBE4739:
.LBE4738:
.LBB4741:
.LBI4511:
	.loc 7 646 7 is_stmt 1 view .LVU1161
.LBB4610:
.LBB4597:
.LBI4597:
	.loc 7 232 7 view .LVU1162
	.loc 7 232 7 is_stmt 0 view .LVU1163
.LBE4597:
.LBB4598:
.LBI4513:
	.loc 7 193 2 is_stmt 1 view .LVU1164
.LBB4527:
.LBB4522:
.LBB4516:
.LBI4516:
	.loc 15 165 7 view .LVU1165
.LBB4517:
.LBI4517:
	.loc 16 92 7 view .LVU1166
	.loc 16 92 7 is_stmt 0 view .LVU1167
.LBE4517:
.LBE4516:
.LBE4522:
.LBE4527:
.LBE4598:
.LBB4599:
.LBB4535:
.LBI4531:
	.loc 9 385 7 is_stmt 1 view .LVU1168
.LBB4533:
	.loc 9 388 2 view .LVU1169
	.loc 9 391 2 view .LVU1170
 # C:/msys64/ucrt64/include/c++/14.2.0/bits/char_traits.h:391: 	return __builtin_strlen(__s);
	.loc 9 391 25 is_stmt 0 view .LVU1171
	call	strlen	 #
.LVL357:
	.loc 9 391 25 view .LVU1172
.LBE4533:
.LBE4535:
.LBB4536:
.LBB4537:
 # C:/msys64/ucrt64/include/c++/14.2.0/bits/basic_string.tcc:225: 	size_type __dnew = static_cast<size_type>(std::distance(__beg, __end));
	.loc 6 225 12 discriminator 1 view .LVU1173
	movq	%rax, 176(%rsp)	 # tmp201, MEM[(long long unsigned int *)_38]
.LBE4537:
.LBE4536:
.LBB4591:
.LBB4534:
 # C:/msys64/ucrt64/include/c++/14.2.0/bits/char_traits.h:391: 	return __builtin_strlen(__s);
	.loc 9 391 25 view .LVU1174
	movq	%rax, %r14	 # tmp301, tmp201
.LVL358:
	.loc 9 391 25 view .LVU1175
.LBE4534:
.LBE4591:
.LBB4592:
.LBI4536:
	.loc 6 221 7 is_stmt 1 view .LVU1176
.LBB4588:
 # C:/msys64/ucrt64/include/c++/14.2.0/bits/basic_string.tcc:227: 	if (__dnew > size_type(_S_local_capacity))
	.loc 6 227 2 is_stmt 0 view .LVU1177
	cmpq	$15, %rax	 #, tmp201
	ja	.L172	 #,
.LVL359:
.LBB4538:
.LBI4538:
	.loc 6 239 13 is_stmt 1 view .LVU1178
	.loc 6 239 13 is_stmt 0 view .LVU1179
.LBE4538:
.LBB4539:
.LBI4539:
	.loc 7 227 7 is_stmt 1 view .LVU1180
	.loc 7 227 7 is_stmt 0 view .LVU1181
.LBE4539:
.LBB4540:
.LBI4540:
	.loc 7 487 7 is_stmt 1 view .LVU1182
.LBB4541:
.LBI4541:
	.loc 7 430 7 view .LVU1183
.LBB4542:
 # C:/msys64/ucrt64/include/c++/14.2.0/bits/basic_string.h:432: 	if (__n == 1)
	.loc 7 432 2 is_stmt 0 view .LVU1184
	cmpq	$1, %rax	 #, tmp201
	je	.L136	 #,
.LVL360:
.LBB4543:
.LBI4543:
	.loc 7 430 7 is_stmt 1 view .LVU1185
.LBB4544:
.LBI4544:
	.loc 9 419 7 view .LVU1186
.LBB4545:
	.loc 9 421 2 view .LVU1187
	testq	%rax, %rax	 # tmp201
	jne	.L173	 #,
.LVL361:
.L137:
	.loc 9 421 2 is_stmt 0 view .LVU1188
	leaq	176(%rsp), %rcx	 #, tmp278
	movq	%rbp, %rdx	 # tmp285, pretmp_189
	movq	%rcx, 88(%rsp)	 # tmp278, %sfp
.LVL362:
.L135:
	.loc 9 421 2 view .LVU1189
.LBE4545:
.LBE4544:
.LBE4543:
.LBE4542:
.LBE4541:
.LBE4540:
.LBB4560:
.LBI4560:
	.loc 7 259 7 is_stmt 1 view .LVU1190
.LBB4561:
.LBB4562:
.LBI4562:
	.loc 7 222 7 view .LVU1191
.LBB4563:
 # C:/msys64/ucrt64/include/c++/14.2.0/bits/basic_string.h:223:       { _M_string_length = __length; }
	.loc 7 223 26 is_stmt 0 view .LVU1192
	movq	%rax, 216(%rsp)	 # _154, D.129394._M_string_length
.LVL363:
	.loc 7 223 26 view .LVU1193
.LBE4563:
.LBE4562:
.LBB4564:
.LBI4564:
	.loc 7 227 7 is_stmt 1 view .LVU1194
	.loc 7 227 7 is_stmt 0 view .LVU1195
.LBE4564:
.LBB4566:
.LBI4566:
	.loc 9 343 7 is_stmt 1 view .LVU1196
.LBB4567:
	.loc 9 350 2 view .LVU1197
.LBE4567:
.LBE4566:
.LBE4561:
.LBE4560:
.LBE4588:
.LBE4592:
.LBE4599:
.LBE4610:
.LBE4741:
.LBB4742:
.LBB4743:
.LBB4744:
.LBB4745:
.LBB4746:
 # C:/msys64/ucrt64/include/c++/14.2.0/bits/basic_string.tcc:229: 	    _M_data(_M_create(__dnew, size_type(0)));
	.loc 6 229 13 is_stmt 0 view .LVU1198
	movq	88(%rsp), %rcx	 # %sfp,
.LBE4746:
.LBE4745:
.LBE4744:
.LBB4807:
.LBB4808:
.LBB4809:
 # C:/msys64/ucrt64/include/c++/14.2.0/bits/basic_string.h:194: 	: allocator_type(__a), _M_p(__dat) { }
	.loc 7 194 25 discriminator 1 view .LVU1199
	leaq	192(%rsp), %r14	 #, tmp279
.LVL364:
	.loc 7 194 25 discriminator 1 view .LVU1200
.LBE4809:
.LBE4808:
.LBE4807:
.LBB4816:
.LBB4800:
.LBB4794:
 # C:/msys64/ucrt64/include/c++/14.2.0/bits/basic_string.tcc:229: 	    _M_data(_M_create(__dnew, size_type(0)));
	.loc 6 229 13 view .LVU1201
	xorl	%r8d, %r8d	 #
.LBE4794:
.LBE4800:
.LBE4816:
.LBE4743:
.LBE4742:
.LBB4829:
.LBB4611:
.LBB4600:
.LBB4593:
.LBB4589:
.LBB4573:
.LBB4571:
.LBB4569:
.LBB4568:
 # C:/msys64/ucrt64/include/c++/14.2.0/bits/char_traits.h:350: 	__c1 = __c2;
	.loc 9 350 7 view .LVU1202
	movb	$0, (%rdx,%rax)	 #, MEM[(char_type &)_246]
.LVL365:
	.loc 9 350 7 view .LVU1203
.LBE4568:
.LBE4569:
.LBE4571:
.LBE4573:
.LBB4574:
.LBI4574:
	.loc 6 242 4 is_stmt 1 view .LVU1204
	.loc 6 242 4 is_stmt 0 view .LVU1205
.LBE4574:
.LBE4589:
.LBE4593:
.LBE4600:
.LBE4611:
.LBE4829:
.LBB4830:
.LBI4830:
	.loc 15 161 7 is_stmt 1 view .LVU1206
.LBB4831:
.LBI4831:
	.loc 16 88 7 view .LVU1207
	.loc 16 88 7 is_stmt 0 view .LVU1208
.LBE4831:
.LBE4830:
.LBB4832:
.LBI4742:
	.loc 7 646 7 is_stmt 1 view .LVU1209
.LBB4825:
.LBB4817:
.LBI4817:
	.loc 7 232 7 view .LVU1210
	.loc 7 232 7 is_stmt 0 view .LVU1211
.LBE4817:
.LBB4818:
.LBI4807:
	.loc 7 193 2 is_stmt 1 view .LVU1212
.LBB4814:
.LBB4812:
.LBB4810:
.LBI4810:
	.loc 15 165 7 view .LVU1213
.LBB4811:
.LBI4811:
	.loc 16 92 7 view .LVU1214
	.loc 16 92 7 is_stmt 0 view .LVU1215
.LBE4811:
.LBE4810:
.LBE4812:
.LBE4814:
.LBE4818:
.LBB4819:
.LBB4801:
.LBB4795:
 # C:/msys64/ucrt64/include/c++/14.2.0/bits/basic_string.tcc:229: 	    _M_data(_M_create(__dnew, size_type(0)));
	.loc 6 229 13 view .LVU1216
	leaq	168(%rsp), %rdx	 #, tmp214
.LBE4795:
.LBE4801:
.LBE4819:
.LBB4820:
.LBB4815:
.LBB4813:
 # C:/msys64/ucrt64/include/c++/14.2.0/bits/basic_string.h:194: 	: allocator_type(__a), _M_p(__dat) { }
	.loc 7 194 25 discriminator 1 view .LVU1217
	movq	%r14, 176(%rsp)	 # tmp279, MEM[(struct _Alloc_hider *)_38]._M_p
.LVL366:
	.loc 7 194 25 discriminator 1 view .LVU1218
.LBE4813:
.LBE4815:
.LBE4820:
.LBB4821:
.LBB4802:
.LBI4802:
	.loc 9 385 7 is_stmt 1 view .LVU1219
	.loc 9 388 2 view .LVU1220
	.loc 9 391 2 view .LVU1221
	.loc 9 391 2 is_stmt 0 view .LVU1222
.LBE4802:
.LBB4803:
.LBI4745:
	.loc 6 221 7 is_stmt 1 view .LVU1223
.LBB4796:
 # C:/msys64/ucrt64/include/c++/14.2.0/bits/basic_string.tcc:225: 	size_type __dnew = static_cast<size_type>(std::distance(__beg, __end));
	.loc 6 225 12 is_stmt 0 discriminator 1 view .LVU1224
	movq	$18, 168(%rsp)	 #, __dnew
.LEHB12:
 # C:/msys64/ucrt64/include/c++/14.2.0/bits/basic_string.tcc:229: 	    _M_data(_M_create(__dnew, size_type(0)));
	.loc 6 229 13 view .LVU1225
	call	_ZNSt7__cxx1112basic_stringIcSt11char_traitsIcESaIcEE9_M_createERyy	 #
.LVL367:
.LEHE12:
.LBB4747:
.LBI4747:
	.loc 7 217 7 is_stmt 1 view .LVU1226
.LBE4747:
.LBB4749:
.LBB4750:
 # C:/msys64/ucrt64/include/c++/14.2.0/bits/basic_string.h:255:       { _M_allocated_capacity = __capacity; }
	.loc 7 255 31 is_stmt 0 view .LVU1227
	movq	168(%rsp), %rdx	 # __dnew, __dnew
.LBE4750:
.LBE4749:
.LBB4752:
.LBB4753:
.LBB4754:
.LBB4755:
.LBB4756:
 # C:/msys64/ucrt64/include/c++/14.2.0/bits/char_traits.h:427: 	return static_cast<char_type*>(__builtin_memcpy(__s1, __s2, __n));
	.loc 9 427 49 view .LVU1228
	movl	$30323, %ecx	 #,
.LBE4756:
.LBE4755:
.LBE4754:
.LBE4753:
.LBE4752:
.LBE4796:
.LBE4803:
.LBE4821:
.LBE4825:
.LBE4832:
 # C:\Users\MattsDesktop\ECSE6320P1SIMD\Project1DotProduct\dotpMain.cpp:265:                 log_per_trial<T>("dotp_benchmark.csv",label,dtype_name<T>(),n,
	.loc 1 265 33 discriminator 12 view .LVU1229
	movq	%rdi, %r9	 # n,
.LBB4833:
.LBB4826:
.LBB4822:
.LBB4804:
.LBB4797:
.LBB4773:
.LBB4769:
.LBB4765:
.LBB4761:
.LBB4757:
 # C:/msys64/ucrt64/include/c++/14.2.0/bits/char_traits.h:427: 	return static_cast<char_type*>(__builtin_memcpy(__s1, __s2, __n));
	.loc 9 427 49 view .LVU1230
	movabsq	$7954872478867943268, %r10	 #, tmp342
.LBE4757:
.LBE4761:
.LBE4765:
.LBE4769:
.LBE4773:
.LBB4774:
.LBB4748:
 # C:/msys64/ucrt64/include/c++/14.2.0/bits/basic_string.h:218:       { _M_dataplus._M_p = __p; }
	.loc 7 218 26 view .LVU1231
	movq	%rax, 176(%rsp)	 # _285, MEM[(struct basic_string *)_38]._M_dataplus._M_p
.LVL368:
	.loc 7 218 26 view .LVU1232
.LBE4748:
.LBE4774:
.LBB4775:
.LBI4749:
	.loc 7 254 7 is_stmt 1 view .LVU1233
.LBE4775:
.LBE4797:
.LBE4804:
.LBE4822:
.LBE4826:
.LBE4833:
 # C:\Users\MattsDesktop\ECSE6320P1SIMD\Project1DotProduct\dotpMain.cpp:265:                 log_per_trial<T>("dotp_benchmark.csv",label,dtype_name<T>(),n,
	.loc 1 265 33 is_stmt 0 discriminator 12 view .LVU1234
	leaq	240(%rsp), %r8	 #, tmp271
.LBB4834:
.LBB4827:
.LBB4823:
.LBB4805:
.LBB4798:
.LBB4776:
.LBB4770:
.LBB4766:
.LBB4762:
.LBB4758:
 # C:/msys64/ucrt64/include/c++/14.2.0/bits/char_traits.h:427: 	return static_cast<char_type*>(__builtin_memcpy(__s1, __s2, __n));
	.loc 9 427 49 view .LVU1235
	movabsq	$7146767797688559715, %r11	 #,
.LBE4758:
.LBE4762:
.LBE4766:
.LBE4770:
.LBE4776:
.LBB4777:
.LBB4751:
 # C:/msys64/ucrt64/include/c++/14.2.0/bits/basic_string.h:255:       { _M_allocated_capacity = __capacity; }
	.loc 7 255 31 view .LVU1236
	movq	%rdx, 192(%rsp)	 # __dnew, MEM[(struct basic_string *)_38].D.32833._M_allocated_capacity
.LVL369:
	.loc 7 255 31 view .LVU1237
.LBE4751:
.LBE4777:
.LBB4778:
.LBI4778:
	.loc 6 239 13 is_stmt 1 view .LVU1238
	.loc 6 239 13 is_stmt 0 view .LVU1239
.LBE4778:
.LBB4779:
.LBI4752:
	.loc 7 487 7 is_stmt 1 view .LVU1240
.LBB4771:
.LBI4753:
	.loc 7 430 7 view .LVU1241
.LBB4767:
.LBI4754:
	.loc 7 430 7 view .LVU1242
.LBB4763:
.LBI4755:
	.loc 9 419 7 view .LVU1243
.LBB4759:
	.loc 9 421 2 view .LVU1244
	.loc 9 427 2 view .LVU1245
 # C:/msys64/ucrt64/include/c++/14.2.0/bits/char_traits.h:427: 	return static_cast<char_type*>(__builtin_memcpy(__s1, __s2, __n));
	.loc 9 427 49 is_stmt 0 view .LVU1246
	movw	%cx, 16(%rax)	 #, MEM <char[1:18]> [(void *)_285]
.LVL370:
	.loc 9 427 49 view .LVU1247
.LBE4759:
.LBE4763:
.LBE4767:
.LBE4771:
.LBE4779:
.LBB4780:
.LBI4780:
	.loc 7 259 7 is_stmt 1 view .LVU1248
.LBB4781:
.LBB4782:
.LBI4782:
	.loc 7 222 7 view .LVU1249
.LBE4782:
.LBE4781:
.LBE4780:
.LBE4798:
.LBE4805:
.LBE4823:
.LBE4827:
.LBE4834:
 # C:\Users\MattsDesktop\ECSE6320P1SIMD\Project1DotProduct\dotpMain.cpp:265:                 log_per_trial<T>("dotp_benchmark.csv",label,dtype_name<T>(),n,
	.loc 1 265 33 is_stmt 0 discriminator 12 view .LVU1250
	movq	88(%rsp), %rcx	 # %sfp,
.LBB4835:
.LBB4828:
.LBB4824:
.LBB4806:
.LBB4799:
.LBB4791:
.LBB4772:
.LBB4768:
.LBB4764:
.LBB4760:
 # C:/msys64/ucrt64/include/c++/14.2.0/bits/char_traits.h:427: 	return static_cast<char_type*>(__builtin_memcpy(__s1, __s2, __n));
	.loc 9 427 49 view .LVU1251
	movq	%r10, (%rax)	 # tmp342, MEM <char[1:18]> [(void *)_285]
	movq	%r11, 8(%rax)	 #, MEM <char[1:18]> [(void *)_285]
.LBE4760:
.LBE4764:
.LBE4768:
.LBE4772:
.LBE4791:
.LBB4792:
.LBB4790:
.LBB4784:
.LBB4785:
 # C:/msys64/ucrt64/include/c++/14.2.0/bits/char_traits.h:350: 	__c1 = __c2;
	.loc 9 350 7 view .LVU1252
	movq	176(%rsp), %rax	 # MEM[(struct basic_string *)_38]._M_dataplus._M_p, MEM[(struct basic_string *)_38]._M_dataplus._M_p
.LBE4785:
.LBE4784:
.LBB4787:
.LBB4783:
 # C:/msys64/ucrt64/include/c++/14.2.0/bits/basic_string.h:223:       { _M_string_length = __length; }
	.loc 7 223 26 view .LVU1253
	movq	%rdx, 184(%rsp)	 # __dnew, MEM[(struct basic_string *)_38]._M_string_length
.LVL371:
	.loc 7 223 26 view .LVU1254
.LBE4783:
.LBE4787:
.LBB4788:
.LBI4788:
	.loc 7 227 7 is_stmt 1 view .LVU1255
	.loc 7 227 7 is_stmt 0 view .LVU1256
.LBE4788:
.LBB4789:
.LBI4784:
	.loc 9 343 7 is_stmt 1 view .LVU1257
.LBB4786:
	.loc 9 350 2 view .LVU1258
 # C:/msys64/ucrt64/include/c++/14.2.0/bits/char_traits.h:350: 	__c1 = __c2;
	.loc 9 350 7 is_stmt 0 view .LVU1259
	movb	$0, (%rax,%rdx)	 #, MEM[(char_type &)_166]
.LVL372:
	.loc 9 350 7 view .LVU1260
.LBE4786:
.LBE4789:
.LBE4790:
.LBE4792:
.LBB4793:
.LBI4793:
	.loc 6 242 4 is_stmt 1 view .LVU1261
	.loc 6 242 4 is_stmt 0 view .LVU1262
.LBE4793:
.LBE4799:
.LBE4806:
.LBE4824:
.LBE4828:
.LBE4835:
 # C:\Users\MattsDesktop\ECSE6320P1SIMD\Project1DotProduct\dotpMain.cpp:265:                 log_per_trial<T>("dotp_benchmark.csv",label,dtype_name<T>(),n,
	.loc 1 265 33 discriminator 12 view .LVU1263
	leaq	272(%rsp), %rax	 #, tmp273
	movq	96(%rsp), %rdx	 # %sfp,
	movl	%r12d, 48(%rsp)	 # t,
	movq	$1, 40(%rsp)	 #,
	movq	%rax, 32(%rsp)	 # tmp273,
	vmovss	%xmm10, 72(%rsp)	 # sum.17_22,
	vmovsd	%xmm7, 64(%rsp)	 # gflops,
	vmovsd	%xmm6, 56(%rsp)	 # ms,
	movq	%r8, 128(%rsp)	 # tmp271, %sfp
	movq	%rax, 136(%rsp)	 # tmp273, %sfp
.LEHB13:
	call	_Z13log_per_trialIfEvRKNSt7__cxx1112basic_stringIcSt11char_traitsIcESaIcEEES7_S7_yS7_yiddT_	 #
.LVL373:
.LEHE13:
.LBB4836:
.LBI4836:
	.loc 7 808 7 is_stmt 1 view .LVU1264
.LBB4837:
.LBB4838:
.LBI4838:
	.loc 7 285 7 view .LVU1265
.LBB4839:
.LBB4840:
.LBI4840:
	.loc 7 267 7 view .LVU1266
.LBB4841:
.LBB4842:
.LBI4842:
	.loc 7 227 7 view .LVU1267
.LBB4843:
 # C:/msys64/ucrt64/include/c++/14.2.0/bits/basic_string.h:228:       { return _M_dataplus._M_p; }
	.loc 7 228 28 is_stmt 0 view .LVU1268
	movq	176(%rsp), %rcx	 # MEM[(struct basic_string *)_38]._M_dataplus._M_p, _231
.LVL374:
	.loc 7 228 28 view .LVU1269
.LBE4843:
.LBE4842:
.LBB4844:
.LBI4844:
	.loc 7 243 7 is_stmt 1 view .LVU1270
	.loc 7 243 7 is_stmt 0 view .LVU1271
.LBE4844:
 # C:/msys64/ucrt64/include/c++/14.2.0/bits/basic_string.h:269: 	if (_M_data() == _M_local_data())
	.loc 7 269 2 discriminator 2 view .LVU1272
	cmpq	%r14, %rcx	 # tmp279, _231
	je	.L139	 #,
.LVL375:
	.loc 7 269 2 discriminator 2 view .LVU1273
.LBE4841:
.LBE4840:
.LBB4845:
.LBI4845:
	.loc 7 293 7 is_stmt 1 view .LVU1274
.LBB4846:
.LBB4847:
.LBI4847:
	.loc 19 512 7 view .LVU1275
.LBB4848:
.LBI4848:
	.loc 16 156 7 view .LVU1276
.LBE4848:
.LBE4847:
 # C:/msys64/ucrt64/include/c++/14.2.0/bits/basic_string.h:294:       { _Alloc_traits::deallocate(_M_get_allocator(), _M_data(), __size + 1); }
	.loc 7 294 34 is_stmt 0 view .LVU1277
	movq	192(%rsp), %rax	 # MEM[(struct basic_string *)_38].D.32833._M_allocated_capacity, tmp346
	leaq	1(%rax), %rdx	 #, _229
.LVL376:
.LBB4851:
.LBB4850:
.LBB4849:
 # C:/msys64/ucrt64/include/c++/14.2.0/bits/new_allocator.h:172: 	_GLIBCXX_OPERATOR_DELETE(_GLIBCXX_SIZED_DEALLOC(__p, __n));
	.loc 16 172 26 view .LVU1278
	call	_ZdlPvy	 #
.LVL377:
.L139:
	.loc 16 172 26 view .LVU1279
.LBE4849:
.LBE4850:
.LBE4851:
.LBE4846:
.LBE4845:
.LBE4839:
.LBE4838:
.LBB4852:
.LBI4852:
	.loc 7 186 14 is_stmt 1 view .LVU1280
.LBB4853:
.LBI4853:
	.loc 15 182 7 view .LVU1281
.LBB4854:
.LBI4854:
	.loc 16 104 7 view .LVU1282
	.loc 16 104 7 is_stmt 0 view .LVU1283
.LBE4854:
.LBE4853:
.LBE4852:
.LBE4837:
.LBE4836:
.LBB4855:
.LBI4855:
	.loc 15 182 7 is_stmt 1 view .LVU1284
.LBB4856:
.LBI4856:
	.loc 16 104 7 view .LVU1285
	.loc 16 104 7 is_stmt 0 view .LVU1286
.LBE4856:
.LBE4855:
.LBB4857:
.LBI4857:
	.loc 7 808 7 is_stmt 1 view .LVU1287
.LBB4858:
.LBB4859:
.LBI4859:
	.loc 7 285 7 view .LVU1288
.LBB4860:
.LBB4861:
.LBI4861:
	.loc 7 267 7 view .LVU1289
.LBB4862:
.LBB4863:
.LBI4863:
	.loc 7 227 7 view .LVU1290
.LBB4864:
 # C:/msys64/ucrt64/include/c++/14.2.0/bits/basic_string.h:228:       { return _M_dataplus._M_p; }
	.loc 7 228 28 is_stmt 0 view .LVU1291
	movq	208(%rsp), %rcx	 # D.129394._M_dataplus._M_p, _199
.LVL378:
	.loc 7 228 28 view .LVU1292
.LBE4864:
.LBE4863:
.LBB4865:
.LBI4865:
	.loc 7 243 7 is_stmt 1 view .LVU1293
	.loc 7 243 7 is_stmt 0 view .LVU1294
.LBE4865:
 # C:/msys64/ucrt64/include/c++/14.2.0/bits/basic_string.h:269: 	if (_M_data() == _M_local_data())
	.loc 7 269 2 discriminator 2 view .LVU1295
	cmpq	%rbp, %rcx	 # tmp285, _199
	je	.L140	 #,
.LVL379:
	.loc 7 269 2 discriminator 2 view .LVU1296
.LBE4862:
.LBE4861:
.LBB4866:
.LBI4866:
	.loc 7 293 7 is_stmt 1 view .LVU1297
.LBB4867:
.LBB4868:
.LBI4868:
	.loc 19 512 7 view .LVU1298
.LBB4869:
.LBI4869:
	.loc 16 156 7 view .LVU1299
.LBE4869:
.LBE4868:
 # C:/msys64/ucrt64/include/c++/14.2.0/bits/basic_string.h:294:       { _Alloc_traits::deallocate(_M_get_allocator(), _M_data(), __size + 1); }
	.loc 7 294 34 is_stmt 0 view .LVU1300
	movq	224(%rsp), %rax	 # D.129394.D.32833._M_allocated_capacity, tmp347
	leaq	1(%rax), %rdx	 #, _201
.LVL380:
.LBB4872:
.LBB4871:
.LBB4870:
 # C:/msys64/ucrt64/include/c++/14.2.0/bits/new_allocator.h:172: 	_GLIBCXX_OPERATOR_DELETE(_GLIBCXX_SIZED_DEALLOC(__p, __n));
	.loc 16 172 26 view .LVU1301
	call	_ZdlPvy	 #
.LVL381:
.L140:
	.loc 16 172 26 view .LVU1302
.LBE4870:
.LBE4871:
.LBE4872:
.LBE4867:
.LBE4866:
.LBE4860:
.LBE4859:
.LBB4873:
.LBI4873:
	.loc 7 186 14 is_stmt 1 view .LVU1303
.LBB4874:
.LBI4874:
	.loc 15 182 7 view .LVU1304
.LBB4875:
.LBI4875:
	.loc 16 104 7 view .LVU1305
	.loc 16 104 7 is_stmt 0 view .LVU1306
.LBE4875:
.LBE4874:
.LBE4873:
.LBE4858:
.LBE4857:
.LBB4876:
.LBI4876:
	.loc 15 182 7 is_stmt 1 view .LVU1307
.LBB4877:
.LBI4877:
	.loc 16 104 7 view .LVU1308
	.loc 16 104 7 is_stmt 0 view .LVU1309
.LBE4877:
.LBE4876:
.LBB4878:
.LBI4878:
	.loc 7 808 7 is_stmt 1 view .LVU1310
.LBB4879:
.LBB4880:
.LBI4880:
	.loc 7 285 7 view .LVU1311
.LBB4881:
.LBB4882:
.LBI4882:
	.loc 7 267 7 view .LVU1312
.LBB4883:
.LBB4884:
.LBI4884:
	.loc 7 227 7 view .LVU1313
.LBB4885:
 # C:/msys64/ucrt64/include/c++/14.2.0/bits/basic_string.h:228:       { return _M_dataplus._M_p; }
	.loc 7 228 28 is_stmt 0 view .LVU1314
	movq	240(%rsp), %rcx	 # D.129396._M_dataplus._M_p, _177
.LVL382:
	.loc 7 228 28 view .LVU1315
.LBE4885:
.LBE4884:
.LBB4886:
.LBI4886:
	.loc 7 243 7 is_stmt 1 view .LVU1316
	.loc 7 243 7 is_stmt 0 view .LVU1317
.LBE4886:
 # C:/msys64/ucrt64/include/c++/14.2.0/bits/basic_string.h:269: 	if (_M_data() == _M_local_data())
	.loc 7 269 2 discriminator 2 view .LVU1318
	vmovq	%xmm12, %rax	 # tmp272, tmp272
	cmpq	%rax, %rcx	 # tmp272, _177
	je	.L141	 #,
.LVL383:
	.loc 7 269 2 discriminator 2 view .LVU1319
.LBE4883:
.LBE4882:
.LBB4887:
.LBI4887:
	.loc 7 293 7 is_stmt 1 view .LVU1320
.LBB4888:
.LBB4889:
.LBI4889:
	.loc 19 512 7 view .LVU1321
.LBB4890:
.LBI4890:
	.loc 16 156 7 view .LVU1322
.LBE4890:
.LBE4889:
 # C:/msys64/ucrt64/include/c++/14.2.0/bits/basic_string.h:294:       { _Alloc_traits::deallocate(_M_get_allocator(), _M_data(), __size + 1); }
	.loc 7 294 34 is_stmt 0 view .LVU1323
	movq	256(%rsp), %rax	 # D.129396.D.32833._M_allocated_capacity, tmp349
.LVL384:
	.loc 7 294 34 view .LVU1324
	leaq	1(%rax), %rdx	 #, _163
.LVL385:
.LBB4893:
.LBB4892:
.LBB4891:
 # C:/msys64/ucrt64/include/c++/14.2.0/bits/new_allocator.h:172: 	_GLIBCXX_OPERATOR_DELETE(_GLIBCXX_SIZED_DEALLOC(__p, __n));
	.loc 16 172 26 view .LVU1325
	call	_ZdlPvy	 #
.LVL386:
.L141:
	.loc 16 172 26 view .LVU1326
.LBE4891:
.LBE4892:
.LBE4893:
.LBE4888:
.LBE4887:
.LBE4881:
.LBE4880:
.LBB4894:
.LBI4894:
	.loc 7 186 14 is_stmt 1 view .LVU1327
.LBB4895:
.LBI4895:
	.loc 15 182 7 view .LVU1328
.LBB4896:
.LBI4896:
	.loc 16 104 7 view .LVU1329
	.loc 16 104 7 is_stmt 0 view .LVU1330
.LBE4896:
.LBE4895:
.LBE4894:
.LBE4879:
.LBE4878:
.LBB4897:
.LBI4897:
	.loc 15 182 7 is_stmt 1 view .LVU1331
.LBB4898:
.LBI4898:
	.loc 16 104 7 view .LVU1332
	.loc 16 104 7 is_stmt 0 view .LVU1333
.LBE4898:
.LBE4897:
.LBB4899:
.LBI4899:
	.loc 7 808 7 is_stmt 1 view .LVU1334
.LBB4900:
.LBB4901:
.LBI4901:
	.loc 7 285 7 view .LVU1335
.LBB4902:
.LBB4903:
.LBI4903:
	.loc 7 267 7 view .LVU1336
.LBB4904:
.LBB4905:
.LBI4905:
	.loc 7 227 7 view .LVU1337
.LBB4906:
 # C:/msys64/ucrt64/include/c++/14.2.0/bits/basic_string.h:228:       { return _M_dataplus._M_p; }
	.loc 7 228 28 is_stmt 0 view .LVU1338
	movq	272(%rsp), %rcx	 # D.129398._M_dataplus._M_p, _148
.LVL387:
	.loc 7 228 28 view .LVU1339
.LBE4906:
.LBE4905:
.LBB4907:
.LBI4907:
	.loc 7 243 7 is_stmt 1 view .LVU1340
	.loc 7 243 7 is_stmt 0 view .LVU1341
.LBE4907:
 # C:/msys64/ucrt64/include/c++/14.2.0/bits/basic_string.h:269: 	if (_M_data() == _M_local_data())
	.loc 7 269 2 discriminator 2 view .LVU1342
	cmpq	%r13, %rcx	 # tmp289, _148
	je	.L142	 #,
.LVL388:
	.loc 7 269 2 discriminator 2 view .LVU1343
.LBE4904:
.LBE4903:
.LBB4908:
.LBI4908:
	.loc 7 293 7 is_stmt 1 view .LVU1344
.LBB4909:
.LBB4910:
.LBI4910:
	.loc 19 512 7 view .LVU1345
.LBB4911:
.LBI4911:
	.loc 16 156 7 view .LVU1346
.LBE4911:
.LBE4910:
 # C:/msys64/ucrt64/include/c++/14.2.0/bits/basic_string.h:294:       { _Alloc_traits::deallocate(_M_get_allocator(), _M_data(), __size + 1); }
	.loc 7 294 34 is_stmt 0 view .LVU1347
	movq	288(%rsp), %rax	 # D.129398.D.32833._M_allocated_capacity, tmp350
	leaq	1(%rax), %rdx	 #, _323
.LVL389:
.LBB4914:
.LBB4913:
.LBB4912:
 # C:/msys64/ucrt64/include/c++/14.2.0/bits/new_allocator.h:172: 	_GLIBCXX_OPERATOR_DELETE(_GLIBCXX_SIZED_DEALLOC(__p, __n));
	.loc 16 172 26 view .LVU1348
	call	_ZdlPvy	 #
.LVL390:
.L142:
	.loc 16 172 26 view .LVU1349
.LBE4912:
.LBE4913:
.LBE4914:
.LBE4909:
.LBE4908:
.LBE4902:
.LBE4901:
.LBB4915:
.LBI4915:
	.loc 7 186 14 is_stmt 1 view .LVU1350
.LBB4916:
.LBI4916:
	.loc 15 182 7 view .LVU1351
.LBB4917:
.LBI4917:
	.loc 16 104 7 view .LVU1352
	.loc 16 104 7 is_stmt 0 view .LVU1353
.LBE4917:
.LBE4916:
.LBE4915:
.LBE4900:
.LBE4899:
.LBB4918:
.LBI4918:
	.loc 15 182 7 is_stmt 1 view .LVU1354
.LBB4919:
.LBI4919:
	.loc 16 104 7 view .LVU1355
	.loc 16 104 7 is_stmt 0 view .LVU1356
.LBE4919:
.LBE4918:
.LBE4964:
	.loc 1 255 13 is_stmt 1 discriminator 2 view .LVU1357
	.loc 1 255 26 discriminator 1 view .LVU1358
	cmpl	$5, %r12d	 #, t
	jne	.L143	 #,
.LVL391:
	.loc 1 255 26 is_stmt 0 discriminator 1 view .LVU1359
.LBE4981:
.LBB4982:
.LBI4982:
	.loc 1 81 13 is_stmt 1 view .LVU1360
.LBB4983:
.LBI4983:
	.loc 1 68 13 view .LVU1361
.LBB4984:
	.loc 1 69 5 view .LVU1362
	.loc 1 71 5 view .LVU1363
 # C:\Users\MattsDesktop\ECSE6320P1SIMD\Project1DotProduct\dotpMain.cpp:71:     _aligned_free(p);
	.loc 1 71 18 is_stmt 0 view .LVU1364
	movq	%rsi, %rcx	 # x,
	movq	__imp__aligned_free(%rip), %rsi	 #, tmp280
.LVL392:
.LEHB14:
	.loc 1 71 18 view .LVU1365
	call	*%rsi	 # tmp280
.LVL393:
	.loc 1 71 18 view .LVU1366
.LBE4984:
.LBE4983:
.LBE4982:
.LBB4985:
.LBI4985:
	.loc 1 81 13 is_stmt 1 view .LVU1367
.LBB4986:
.LBI4986:
	.loc 1 68 13 view .LVU1368
.LBB4987:
	.loc 1 69 5 view .LVU1369
	.loc 1 71 5 view .LVU1370
 # C:\Users\MattsDesktop\ECSE6320P1SIMD\Project1DotProduct\dotpMain.cpp:71:     _aligned_free(p);
	.loc 1 71 18 is_stmt 0 view .LVU1371
	movq	%rbx, %rcx	 # y,
	call	*%rsi	 # tmp280
.LVL394:
.LEHE14:
	jmp	.L128	 #
.LVL395:
	.p2align 4,,10
	.p2align 3
.L136:
	.loc 1 71 18 view .LVU1372
.LBE4987:
.LBE4986:
.LBE4985:
.LBB4988:
.LBB4965:
.LBB4920:
.LBB4612:
.LBB4601:
.LBB4594:
.LBB4590:
.LBB4575:
.LBB4557:
.LBB4554:
.LBB4550:
.LBI4550:
	.loc 9 343 7 is_stmt 1 view .LVU1373
.LBB4551:
	.loc 9 350 2 view .LVU1374
 # C:/msys64/ucrt64/include/c++/14.2.0/bits/char_traits.h:350: 	__c1 = __c2;
	.loc 9 350 7 is_stmt 0 view .LVU1375
	vmovq	%xmm13, %rcx	 # label, label
	movzbl	(%rcx), %edx	 # MEM[(const char_type &)label_63(D)], MEM[(const char_type &)label_63(D)]
	movb	%dl, 224(%rsp)	 # MEM[(const char_type &)label_63(D)], MEM[(char_type &)&D.129394 + 16]
.LVL396:
	.loc 9 350 7 view .LVU1376
	jmp	.L137	 #
.LVL397:
	.p2align 4,,10
	.p2align 3
.L172:
	.loc 9 350 7 view .LVU1377
.LBE4551:
.LBE4550:
.LBE4554:
.LBE4557:
.LBE4575:
 # C:/msys64/ucrt64/include/c++/14.2.0/bits/basic_string.tcc:229: 	    _M_data(_M_create(__dnew, size_type(0)));
	.loc 6 229 13 view .LVU1378
	leaq	176(%rsp), %rax	 #, tmp278
.LVL398:
	.loc 6 229 13 view .LVU1379
	movq	96(%rsp), %rcx	 # %sfp,
	xorl	%r8d, %r8d	 #
	movq	%rax, %rdx	 # tmp278,
	movq	%rax, 88(%rsp)	 # tmp278, %sfp
.LEHB15:
	call	_ZNSt7__cxx1112basic_stringIcSt11char_traitsIcESaIcEE9_M_createERyy	 #
.LVL399:
.LEHE15:
.LBB4576:
.LBB4577:
 # C:/msys64/ucrt64/include/c++/14.2.0/bits/basic_string.h:255:       { _M_allocated_capacity = __capacity; }
	.loc 7 255 31 view .LVU1380
	movq	176(%rsp), %rdx	 # MEM[(long long unsigned int *)_38], MEM[(long long unsigned int *)_38]
.LBE4577:
.LBE4576:
.LBB4579:
.LBB4580:
 # C:/msys64/ucrt64/include/c++/14.2.0/bits/basic_string.h:218:       { _M_dataplus._M_p = __p; }
	.loc 7 218 26 view .LVU1381
	movq	%rax, 208(%rsp)	 # _170, D.129394._M_dataplus._M_p
.LBE4580:
.LBE4579:
 # C:/msys64/ucrt64/include/c++/14.2.0/bits/basic_string.tcc:229: 	    _M_data(_M_create(__dnew, size_type(0)));
	.loc 6 229 13 view .LVU1382
	movq	%rax, %rcx	 # tmp302, _170
.LVL400:
.LBB4581:
.LBI4579:
	.loc 7 217 7 is_stmt 1 view .LVU1383
	.loc 7 217 7 is_stmt 0 view .LVU1384
.LBE4581:
.LBB4582:
.LBI4576:
	.loc 7 254 7 is_stmt 1 view .LVU1385
.LBB4578:
 # C:/msys64/ucrt64/include/c++/14.2.0/bits/basic_string.h:255:       { _M_allocated_capacity = __capacity; }
	.loc 7 255 31 is_stmt 0 view .LVU1386
	movq	%rdx, 224(%rsp)	 # MEM[(long long unsigned int *)_38], D.129394.D.32833._M_allocated_capacity
.LVL401:
	.loc 7 255 31 view .LVU1387
.LBE4578:
.LBE4582:
.LBB4583:
	.loc 6 239 13 is_stmt 1 view .LVU1388
	.loc 6 239 13 is_stmt 0 view .LVU1389
.LBE4583:
.LBB4584:
	.loc 7 227 7 is_stmt 1 view .LVU1390
	.loc 7 227 7 is_stmt 0 view .LVU1391
.LBE4584:
.LBB4585:
	.loc 7 487 7 is_stmt 1 view .LVU1392
.LBB4558:
	.loc 7 430 7 view .LVU1393
.L138:
.LBB4555:
.LBB4552:
.LBB4548:
.LBB4546:
	.loc 9 427 2 view .LVU1394
 # C:/msys64/ucrt64/include/c++/14.2.0/bits/char_traits.h:427: 	return static_cast<char_type*>(__builtin_memcpy(__s1, __s2, __n));
	.loc 9 427 49 is_stmt 0 view .LVU1395
	vmovq	%xmm13, %rdx	 # label,
	movq	%r14, %r8	 # tmp201,
	call	memcpy	 #
.LVL402:
	.loc 9 427 49 view .LVU1396
.LBE4546:
.LBE4548:
.LBE4552:
.LBE4555:
.LBE4558:
.LBE4585:
 # C:/msys64/ucrt64/include/c++/14.2.0/bits/basic_string.tcc:251: 	_M_set_length(__dnew);
	.loc 6 251 15 view .LVU1397
	movq	176(%rsp), %rax	 # MEM[(long long unsigned int *)_38], _154
.LBB4586:
.LBB4572:
.LBB4570:
.LBB4565:
 # C:/msys64/ucrt64/include/c++/14.2.0/bits/basic_string.h:228:       { return _M_dataplus._M_p; }
	.loc 7 228 28 view .LVU1398
	movq	208(%rsp), %rdx	 # D.129394._M_dataplus._M_p, pretmp_189
	jmp	.L135	 #
.LVL403:
	.p2align 4,,10
	.p2align 3
.L173:
	.loc 7 228 28 view .LVU1399
	leaq	176(%rsp), %rax	 #, tmp278
.LVL404:
	.loc 7 228 28 view .LVU1400
.LBE4565:
.LBE4570:
.LBE4572:
.LBE4586:
.LBB4587:
.LBB4559:
.LBB4556:
.LBB4553:
.LBB4549:
.LBB4547:
 # C:/msys64/ucrt64/include/c++/14.2.0/bits/char_traits.h:421: 	if (__n == 0)
	.loc 9 421 2 view .LVU1401
	movq	%rbp, %rcx	 # tmp285, _170
	movq	%rax, 88(%rsp)	 # tmp278, %sfp
	jmp	.L138	 #
.LVL405:
	.p2align 4,,10
	.p2align 3
.L147:
	.loc 9 421 2 view .LVU1402
.LBE4547:
.LBE4549:
.LBE4553:
.LBE4556:
.LBE4559:
.LBE4587:
.LBE4590:
.LBE4594:
.LBE4601:
.LBE4612:
.LBE4920:
.LBE4965:
.LBE4988:
.LBE4995:
.LBE4998:
.LBE5001:
	.loc 1 247 5 is_stmt 1 discriminator 2 view .LVU1403
	.loc 1 247 5 discriminator 1 view .LVU1404
	addq	$1, 144(%rsp)	 #, %sfp
.LVL406:
	.loc 1 247 5 is_stmt 0 discriminator 1 view .LVU1405
	movq	144(%rsp), %rax	 # %sfp, ivtmp.730
	cmpq	%rax, 112(%rsp)	 # ivtmp.730, %sfp
	je	.L174	 #,
.LBB5002:
 # C:\Users\MattsDesktop\ECSE6320P1SIMD\Project1DotProduct\dotpMain.cpp:247:     for(bool mis:{false,true}){
	.loc 1 247 14 discriminator 3 view .LVU1406
	movzbl	(%rax), %eax	 # MEM[(const bool *)_77], prephitmp_107
	movb	%al, 127(%rsp)	 # prephitmp_107, %sfp
.LBB4999:
.LBB4996:
 # C:\Users\MattsDesktop\ECSE6320P1SIMD\Project1DotProduct\dotpMain.cpp:249:         for(size_t n:sizes){
	.loc 1 249 9 discriminator 3 view .LVU1407
	movq	152(%rsp), %rax	 # %sfp, _160
	movq	(%rax), %rdi	 # *_160, n
	jmp	.L122	 #
.LVL407:
	.p2align 4,,10
	.p2align 3
.L174:
	.loc 1 249 9 discriminator 3 view .LVU1408
.LBE4996:
.LBE4999:
.LBE5002:
.LBE5011:
.LBB5012:
.LBI5012:
	.loc 17 733 7 is_stmt 1 view .LVU1409
.LBB5013:
.LBI5013:
	.loc 17 300 7 view .LVU1410
	.loc 17 300 7 is_stmt 0 view .LVU1411
.LBE5013:
.LBB5014:
.LBI5014:
	.loc 19 941 5 is_stmt 1 view .LVU1412
	.loc 19 941 5 is_stmt 0 view .LVU1413
.LBE5014:
.LBB5015:
.LBI5015:
	.loc 17 366 7 is_stmt 1 view .LVU1414
.LBB5016:
.LBI5016:
	.loc 17 385 7 view .LVU1415
.LBB5017:
.LBB5018:
.LBI5018:
	.loc 19 512 7 view .LVU1416
.LBB5019:
.LBI5019:
	.loc 16 156 7 view .LVU1417
.LBB5020:
 # C:/msys64/ucrt64/include/c++/14.2.0/bits/new_allocator.h:172: 	_GLIBCXX_OPERATOR_DELETE(_GLIBCXX_SIZED_DEALLOC(__p, __n));
	.loc 16 172 26 is_stmt 0 view .LVU1418
	movq	152(%rsp), %rcx	 # %sfp,
	movl	$64, %edx	 #,
.LBE5020:
.LBE5019:
.LBE5018:
.LBE5017:
.LBE5016:
.LBE5015:
.LBE5012:
 # C:\Users\MattsDesktop\ECSE6320P1SIMD\Project1DotProduct\dotpMain.cpp:272: }
	.loc 1 272 1 view .LVU1419
	vmovups	304(%rsp), %xmm6	 #,
	vmovups	320(%rsp), %xmm7	 #,
	vmovups	336(%rsp), %xmm8	 #,
	vmovups	352(%rsp), %xmm9	 #,
	vmovups	368(%rsp), %xmm10	 #,
	vmovups	384(%rsp), %xmm11	 #,
	vmovups	400(%rsp), %xmm12	 #,
	vmovups	416(%rsp), %xmm13	 #,
.LVL408:
	.loc 1 272 1 view .LVU1420
	vmovups	432(%rsp), %xmm14	 #,
.LVL409:
	.loc 1 272 1 view .LVU1421
	vmovups	448(%rsp), %xmm15	 #,
	addq	$472, %rsp	 #,
	.cfi_remember_state
	.cfi_restore 32
	.cfi_restore 31
	.cfi_restore 30
	.cfi_restore 29
	.cfi_restore 28
	.cfi_restore 27
	.cfi_restore 26
	.cfi_restore 25
	.cfi_restore 24
	.cfi_restore 23
	.cfi_def_cfa_offset 72
	popq	%rbx	 #
	.cfi_restore 3
	.cfi_def_cfa_offset 64
.LVL410:
	.loc 1 272 1 view .LVU1422
	popq	%rsi	 #
	.cfi_restore 4
	.cfi_def_cfa_offset 56
.LVL411:
	.loc 1 272 1 view .LVU1423
	popq	%rdi	 #
	.cfi_restore 5
	.cfi_def_cfa_offset 48
	popq	%rbp	 #
	.cfi_restore 6
	.cfi_def_cfa_offset 40
	popq	%r12	 #
	.cfi_restore 12
	.cfi_def_cfa_offset 32
	popq	%r13	 #
	.cfi_restore 13
	.cfi_def_cfa_offset 24
	popq	%r14	 #
	.cfi_restore 14
	.cfi_def_cfa_offset 16
	popq	%r15	 #
	.cfi_restore 15
	.cfi_def_cfa_offset 8
.LBB5027:
.LBB5026:
.LBB5025:
.LBB5024:
.LBB5023:
.LBB5022:
.LBB5021:
 # C:/msys64/ucrt64/include/c++/14.2.0/bits/new_allocator.h:172: 	_GLIBCXX_OPERATOR_DELETE(_GLIBCXX_SIZED_DEALLOC(__p, __n));
	.loc 16 172 26 view .LVU1424
	jmp	_ZdlPvy	 #
.LVL412:
.L155:
	.cfi_restore_state
	.loc 16 172 26 view .LVU1425
.LBE5021:
.LBE5022:
.LBE5023:
.LBE5024:
.LBE5025:
.LBE5026:
.LBE5027:
.LBB5028:
.LBB5029:
.LBB5030:
.LBB5031:
.LBB5032:
.LBB5033:
.LBB5034:
	movq	%rax, %rbx	 # tmp307, tmp269
	vzeroupper
.LVL413:
.L153:
	.loc 16 172 26 view .LVU1426
.LBE5034:
.LBE5033:
.LBE5032:
.LBE5031:
.LBE5030:
.LBE5029:
.LBI5028:
	.loc 17 733 7 is_stmt 1 view .LVU1427
.LBB5043:
.LBI5043:
	.loc 17 300 7 view .LVU1428
	.loc 17 300 7 is_stmt 0 view .LVU1429
.LBE5043:
.LBB5044:
.LBI5044:
	.loc 19 941 5 is_stmt 1 view .LVU1430
	.loc 19 941 5 is_stmt 0 view .LVU1431
.LBE5044:
.LBB5045:
.LBI5029:
	.loc 17 366 7 is_stmt 1 view .LVU1432
.LBB5039:
.LBI5030:
	.loc 17 385 7 view .LVU1433
.LBB5038:
.LBB5037:
.LBI5032:
	.loc 19 512 7 view .LVU1434
.LBB5036:
.LBI5033:
	.loc 16 156 7 view .LVU1435
.LBB5035:
 # C:/msys64/ucrt64/include/c++/14.2.0/bits/new_allocator.h:172: 	_GLIBCXX_OPERATOR_DELETE(_GLIBCXX_SIZED_DEALLOC(__p, __n));
	.loc 16 172 26 is_stmt 0 view .LVU1436
	movq	152(%rsp), %rcx	 # %sfp,
	movl	$64, %edx	 #,
	call	_ZdlPvy	 #
.LVL414:
	.loc 16 172 26 view .LVU1437
.LBE5035:
.LBE5036:
.LBE5037:
.LBE5038:
.LBE5039:
.LBB5040:
.LBI5040:
	.loc 17 132 14 is_stmt 1 view .LVU1438
.LBB5041:
.LBI5041:
	.loc 15 182 7 view .LVU1439
.LBB5042:
.LBI5042:
	.loc 16 104 7 view .LVU1440
	.loc 16 104 7 is_stmt 0 view .LVU1441
	movq	%rbx, %rcx	 # tmp269,
.LEHB16:
	call	_Unwind_Resume	 #
.LVL415:
.LEHE16:
.L156:
	.loc 16 104 7 view .LVU1442
.LBE5042:
.LBE5041:
.LBE5040:
.LBE5045:
.LBE5028:
.LBB5046:
.LBB5003:
.LBB5000:
.LBB4997:
.LBB4989:
.LBB4966:
.LBB4921:
.LBB4922:
 # C:/msys64/ucrt64/include/c++/14.2.0/bits/basic_string.h:809:       { _M_dispose(); }
	.loc 7 809 19 view .LVU1443
	movq	%rax, %rbx	 # tmp306, tmp263
.LVL416:
	.loc 7 809 19 view .LVU1444
	leaq	240(%rsp), %rax	 #, tmp271
	movq	%rax, 128(%rsp)	 # tmp271, %sfp
	leaq	272(%rsp), %rax	 #, tmp273
	movq	%rax, 136(%rsp)	 # tmp273, %sfp
	vzeroupper
.LVL417:
.L152:
	.loc 7 809 19 view .LVU1445
.LBE4922:
.LBE4921:
.LBB4927:
.LBI4927:
	.loc 15 182 7 is_stmt 1 view .LVU1446
.LBB4928:
.LBI4928:
	.loc 16 104 7 view .LVU1447
	.loc 16 104 7 is_stmt 0 view .LVU1448
.LBE4928:
.LBE4927:
.LBB4929:
.LBI4921:
	.loc 7 808 7 is_stmt 1 view .LVU1449
.LBB4926:
 # C:/msys64/ucrt64/include/c++/14.2.0/bits/basic_string.h:809:       { _M_dispose(); }
	.loc 7 809 19 is_stmt 0 view .LVU1450
	movq	128(%rsp), %rcx	 # %sfp,
	call	_ZNSt7__cxx1112basic_stringIcSt11char_traitsIcESaIcEE10_M_disposeEv	 #
.LVL418:
.LBB4923:
.LBI4923:
	.loc 7 186 14 is_stmt 1 view .LVU1451
.LBB4924:
.LBI4924:
	.loc 15 182 7 view .LVU1452
.LBB4925:
.LBI4925:
	.loc 16 104 7 view .LVU1453
	.loc 16 104 7 is_stmt 0 view .LVU1454
.LBE4925:
.LBE4924:
.LBE4923:
.LBE4926:
.LBE4929:
.LBB4930:
.LBI4930:
	.loc 15 182 7 is_stmt 1 view .LVU1455
.LBB4931:
.LBI4931:
	.loc 16 104 7 view .LVU1456
	.loc 16 104 7 is_stmt 0 view .LVU1457
.LBE4931:
.LBE4930:
.LBB4932:
.LBI4932:
	.loc 7 808 7 is_stmt 1 view .LVU1458
.LBB4933:
 # C:/msys64/ucrt64/include/c++/14.2.0/bits/basic_string.h:809:       { _M_dispose(); }
	.loc 7 809 19 is_stmt 0 view .LVU1459
	movq	136(%rsp), %rcx	 # %sfp,
	call	_ZNSt7__cxx1112basic_stringIcSt11char_traitsIcESaIcEE10_M_disposeEv	 #
.LVL419:
.LBB4934:
.LBI4934:
	.loc 7 186 14 is_stmt 1 view .LVU1460
.LBB4935:
.LBI4935:
	.loc 15 182 7 view .LVU1461
.LBB4936:
.LBI4936:
	.loc 16 104 7 view .LVU1462
	.loc 16 104 7 is_stmt 0 view .LVU1463
	jmp	.L153	 #
.LVL420:
.L158:
	.loc 16 104 7 view .LVU1464
.LBE4936:
.LBE4935:
.LBE4934:
.LBE4933:
.LBE4932:
.LBB4937:
.LBB4938:
 # C:/msys64/ucrt64/include/c++/14.2.0/bits/basic_string.h:809:       { _M_dispose(); }
	.loc 7 809 19 view .LVU1465
	movq	88(%rsp), %rcx	 # %sfp,
	movq	%rax, %rbx	 # tmp304, tmp259
.LVL421:
	.loc 7 809 19 view .LVU1466
.LBE4938:
.LBI4937:
	.loc 7 808 7 is_stmt 1 view .LVU1467
.LBB4942:
 # C:/msys64/ucrt64/include/c++/14.2.0/bits/basic_string.h:809:       { _M_dispose(); }
	.loc 7 809 19 is_stmt 0 view .LVU1468
	vzeroupper
.LVL422:
	call	_ZNSt7__cxx1112basic_stringIcSt11char_traitsIcESaIcEE10_M_disposeEv	 #
.LVL423:
.LBB4939:
.LBI4939:
	.loc 7 186 14 is_stmt 1 view .LVU1469
.LBB4940:
.LBI4940:
	.loc 15 182 7 view .LVU1470
.LBB4941:
.LBI4941:
	.loc 16 104 7 view .LVU1471
.L151:
	.loc 16 104 7 is_stmt 0 view .LVU1472
.LBE4941:
.LBE4940:
.LBE4939:
.LBE4942:
.LBE4937:
.LBB4943:
.LBI4943:
	.loc 15 182 7 is_stmt 1 view .LVU1473
.LBB4944:
.LBI4944:
	.loc 16 104 7 view .LVU1474
	.loc 16 104 7 is_stmt 0 view .LVU1475
.LBE4944:
.LBE4943:
.LBB4945:
.LBI4945:
	.loc 7 808 7 is_stmt 1 view .LVU1476
.LBB4946:
 # C:/msys64/ucrt64/include/c++/14.2.0/bits/basic_string.h:809:       { _M_dispose(); }
	.loc 7 809 19 is_stmt 0 view .LVU1477
	movq	96(%rsp), %rcx	 # %sfp,
	call	_ZNSt7__cxx1112basic_stringIcSt11char_traitsIcESaIcEE10_M_disposeEv	 #
.LVL424:
.LBB4947:
.LBI4947:
	.loc 7 186 14 is_stmt 1 view .LVU1478
.LBB4948:
.LBI4948:
	.loc 15 182 7 view .LVU1479
.LBB4949:
.LBI4949:
	.loc 16 104 7 view .LVU1480
	.loc 16 104 7 is_stmt 0 view .LVU1481
	jmp	.L152	 #
.LVL425:
.L157:
	.loc 16 104 7 view .LVU1482
.LBE4949:
.LBE4948:
.LBE4947:
 # C:/msys64/ucrt64/include/c++/14.2.0/bits/basic_string.h:809:       { _M_dispose(); }
	.loc 7 809 19 view .LVU1483
	movq	%rax, %rbx	 # tmp305, tmp258
.LVL426:
	.loc 7 809 19 view .LVU1484
	leaq	240(%rsp), %rax	 #, tmp271
	movq	%rax, 128(%rsp)	 # tmp271, %sfp
	leaq	272(%rsp), %rax	 #, tmp273
	movq	%rax, 136(%rsp)	 # tmp273, %sfp
	vzeroupper
.LVL427:
	jmp	.L151	 #
.LVL428:
.L130:
	.loc 7 809 19 view .LVU1485
.LBE4946:
.LBE4945:
 # C:\Users\MattsDesktop\ECSE6320P1SIMD\Project1DotProduct\dotpMain.cpp:258:                 func(x,y,n,sum);
	.loc 1 258 21 view .LVU1486
	movq	112(%rsp), %rbp	 # %sfp, tmp277
	movq	%rdi, %r8	 # n,
	movq	%rbx, %rdx	 # y,
	movq	%rsi, %rcx	 # x,
	vmovq	%xmm14, %r14	 # func, func
	movq	%rbp, %r9	 # tmp277,
.LEHB17:
	call	*%r14	 # func
.LVL429:
 # C:\Users\MattsDesktop\ECSE6320P1SIMD\Project1DotProduct\dotpMain.cpp:259:                 auto start=std::chrono::high_resolution_clock::now();
	.loc 1 259 67 view .LVU1487
	call	_ZNSt6chrono3_V212system_clock3nowEv	 #
.LVL430:
 # C:\Users\MattsDesktop\ECSE6320P1SIMD\Project1DotProduct\dotpMain.cpp:260:                 func(x,y,n,sum);
	.loc 1 260 21 view .LVU1488
	movq	%rbp, %r9	 # tmp277,
	movq	%rdi, %r8	 # n,
	movq	%rbx, %rdx	 # y,
	movq	%rsi, %rcx	 # x,
	call	*%r14	 # func
.LVL431:
.LEHE17:
 # C:\Users\MattsDesktop\ECSE6320P1SIMD\Project1DotProduct\dotpMain.cpp:261:                 auto end=std::chrono::high_resolution_clock::now();
	.loc 1 261 65 view .LVU1489
	call	_ZNSt6chrono3_V212system_clock3nowEv	 #
.LVL432:
.LBB4950:
	.loc 21 1141 7 is_stmt 1 view .LVU1490
.LBB4505:
	.loc 21 949 2 view .LVU1491
	.loc 21 949 2 is_stmt 0 view .LVU1492
.LBE4505:
.LBB4506:
	.loc 21 949 2 is_stmt 1 view .LVU1493
	.loc 21 949 2 is_stmt 0 view .LVU1494
.LBE4506:
.LBB4507:
	.loc 21 710 7 is_stmt 1 view .LVU1495
.LBB4503:
.LBB4501:
	.loc 21 573 23 view .LVU1496
	.loc 21 573 23 is_stmt 0 view .LVU1497
.LBE4501:
.LBE4503:
.LBE4507:
.LBE4950:
.LBB4951:
	.loc 21 581 14 is_stmt 1 view .LVU1498
.LBB4388:
	.loc 21 275 7 view .LVU1499
.LBB4383:
.LBB4379:
	.loc 21 210 4 view .LVU1500
.LBB4375:
.LBB4372:
	.loc 21 573 23 view .LVU1501
	.loc 21 573 23 is_stmt 0 view .LVU1502
.LBE4372:
.LBE4375:
.LBE4379:
.LBE4383:
.LBE4388:
.LBB4389:
	.loc 21 589 2 is_stmt 1 view .LVU1503
	.loc 21 589 2 is_stmt 0 view .LVU1504
.LBE4389:
.LBE4951:
.LBB4952:
	.loc 15 161 7 is_stmt 1 view .LVU1505
.LBB4732:
	.loc 16 88 7 view .LVU1506
	.loc 16 88 7 is_stmt 0 view .LVU1507
.LBE4732:
.LBE4952:
.LBB4953:
.LBB4493:
.LBB4483:
.LBB4399:
.LBB4396:
 # C:/msys64/ucrt64/include/c++/14.2.0/bits/basic_string.h:194: 	: allocator_type(__a), _M_p(__dat) { }
	.loc 7 194 25 discriminator 1 view .LVU1508
	leaq	288(%rsp), %rax	 #, tmp241
	.loc 7 194 25 discriminator 1 view .LVU1509
.LBE4396:
.LBE4399:
.LBE4483:
.LBE4493:
.LBE4953:
.LBB4954:
.LBB4613:
.LBB4602:
 # C:/msys64/ucrt64/include/c++/14.2.0/bits/basic_string.h:651: 	  std::__throw_logic_error(__N("basic_string: "
	.loc 7 651 28 view .LVU1510
	leaq	.LC15(%rip), %rcx	 #, tmp254
.LBE4602:
.LBE4613:
.LBE4954:
.LBB4955:
.LBB4713:
.LBB4703:
.LBB4682:
.LBB4674:
.LBB4664:
.LBB4643:
.LBB4638:
.LBB4633:
.LBB4628:
 # C:/msys64/ucrt64/include/c++/14.2.0/bits/char_traits.h:427: 	return static_cast<char_type*>(__builtin_memcpy(__s1, __s2, __n));
	.loc 9 427 49 view .LVU1511
	movl	$1634692198, 256(%rsp)	 #, MEM <char[1:7]> [(void *)&D.129396 + 16B]
.LBE4628:
.LBE4633:
.LBE4638:
.LBE4643:
.LBE4664:
.LBE4674:
.LBE4682:
.LBE4703:
.LBE4713:
.LBE4955:
.LBB4956:
.LBB4494:
.LBB4484:
.LBB4400:
.LBB4397:
 # C:/msys64/ucrt64/include/c++/14.2.0/bits/basic_string.h:194: 	: allocator_type(__a), _M_p(__dat) { }
	.loc 7 194 25 discriminator 1 view .LVU1512
	movq	%rax, 272(%rsp)	 # tmp241,
.LVL433:
	.loc 7 194 25 discriminator 1 view .LVU1513
.LBE4397:
.LBE4400:
.LBE4484:
.LBB4485:
.LBB4476:
	.loc 9 385 7 is_stmt 1 view .LVU1514
	.loc 9 388 2 view .LVU1515
	.loc 9 391 2 view .LVU1516
	.loc 9 391 2 is_stmt 0 view .LVU1517
.LBE4476:
.LBB4477:
	.loc 6 221 7 is_stmt 1 view .LVU1518
.LBB4469:
.LBB4456:
	.loc 6 239 13 view .LVU1519
	.loc 6 239 13 is_stmt 0 view .LVU1520
.LBE4456:
.LBB4457:
	.loc 7 487 7 is_stmt 1 view .LVU1521
.LBB4431:
	.loc 7 430 7 view .LVU1522
.LBB4425:
	.loc 7 430 7 view .LVU1523
.LBB4419:
	.loc 9 419 7 view .LVU1524
.LBB4413:
	.loc 9 421 2 view .LVU1525
	.loc 9 427 2 view .LVU1526
 # C:/msys64/ucrt64/include/c++/14.2.0/bits/char_traits.h:427: 	return static_cast<char_type*>(__builtin_memcpy(__s1, __s2, __n));
	.loc 9 427 49 is_stmt 0 view .LVU1527
	movq	(%r15), %rax	 # MEM <char[1:10]> [(void *)iftmp.18_137], MEM <char[1:10]> [(void *)iftmp.18_137]
.LVL434:
	.loc 9 427 49 view .LVU1528
.LBE4413:
.LBE4419:
.LBE4425:
.LBE4431:
.LBE4457:
.LBB4458:
.LBB4445:
.LBB4437:
 # C:/msys64/ucrt64/include/c++/14.2.0/bits/basic_string.h:223:       { _M_string_length = __length; }
	.loc 7 223 26 view .LVU1529
	movq	$10, 280(%rsp)	 #, D.129398._M_string_length
.LBE4437:
.LBE4445:
.LBE4458:
.LBB4459:
.LBB4432:
.LBB4426:
.LBB4420:
.LBB4414:
 # C:/msys64/ucrt64/include/c++/14.2.0/bits/char_traits.h:427: 	return static_cast<char_type*>(__builtin_memcpy(__s1, __s2, __n));
	.loc 9 427 49 view .LVU1530
	movq	%rax, 288(%rsp)	 # MEM <char[1:10]> [(void *)iftmp.18_137], MEM <char[1:10]> [(void *)&D.129398 + 16B]
	movzwl	8(%r15), %eax	 # MEM <char[1:10]> [(void *)iftmp.18_137], MEM <char[1:10]> [(void *)iftmp.18_137]
.LBE4414:
.LBE4420:
.LBE4426:
.LBE4432:
.LBE4459:
.LBB4460:
.LBB4446:
.LBB4441:
 # C:/msys64/ucrt64/include/c++/14.2.0/bits/char_traits.h:350: 	__c1 = __c2;
	.loc 9 350 7 view .LVU1531
	movb	$0, 298(%rsp)	 #, MEM[(char_type &)&D.129398 + 26]
.LBE4441:
.LBE4446:
.LBE4460:
.LBB4461:
.LBB4433:
.LBB4427:
.LBB4421:
.LBB4415:
 # C:/msys64/ucrt64/include/c++/14.2.0/bits/char_traits.h:427: 	return static_cast<char_type*>(__builtin_memcpy(__s1, __s2, __n));
	.loc 9 427 49 view .LVU1532
	movw	%ax, 296(%rsp)	 # MEM <char[1:10]> [(void *)iftmp.18_137], MEM <char[1:10]> [(void *)&D.129398 + 16B]
.LVL435:
	.loc 9 427 49 view .LVU1533
.LBE4415:
.LBE4421:
.LBE4427:
.LBE4433:
.LBE4461:
.LBB4462:
	.loc 7 259 7 is_stmt 1 view .LVU1534
.LBB4447:
	.loc 7 222 7 view .LVU1535
	.loc 7 222 7 is_stmt 0 view .LVU1536
.LBE4447:
.LBB4448:
	.loc 9 343 7 is_stmt 1 view .LVU1537
.LBB4442:
	.loc 9 350 2 view .LVU1538
	.loc 9 350 2 is_stmt 0 view .LVU1539
.LBE4442:
.LBE4448:
.LBE4462:
.LBB4463:
	.loc 6 242 4 is_stmt 1 view .LVU1540
	.loc 6 242 4 is_stmt 0 view .LVU1541
.LBE4463:
.LBE4469:
.LBE4477:
.LBE4485:
.LBE4494:
.LBE4956:
.LBB4957:
	.loc 15 161 7 is_stmt 1 view .LVU1542
.LBB4736:
	.loc 16 88 7 view .LVU1543
	.loc 16 88 7 is_stmt 0 view .LVU1544
.LBE4736:
.LBE4957:
.LBB4958:
	.loc 7 646 7 is_stmt 1 view .LVU1545
.LBB4714:
.LBB4704:
	.loc 7 232 7 view .LVU1546
	.loc 7 232 7 is_stmt 0 view .LVU1547
.LBE4704:
.LBB4705:
	.loc 7 193 2 is_stmt 1 view .LVU1548
.LBB4698:
.LBB4696:
.LBB4694:
	.loc 15 165 7 view .LVU1549
.LBB4693:
	.loc 16 92 7 view .LVU1550
	.loc 16 92 7 is_stmt 0 view .LVU1551
.LBE4693:
.LBE4694:
 # C:/msys64/ucrt64/include/c++/14.2.0/bits/basic_string.h:194: 	: allocator_type(__a), _M_p(__dat) { }
	.loc 7 194 25 discriminator 1 view .LVU1552
	leaq	256(%rsp), %rax	 #, tmp249
.LVL436:
	.loc 7 194 25 discriminator 1 view .LVU1553
	movq	%rax, 240(%rsp)	 # tmp249, MEM[(struct _Alloc_hider *)&D.129396]._M_p
.LVL437:
	.loc 7 194 25 discriminator 1 view .LVU1554
.LBE4696:
.LBE4698:
.LBE4705:
.LBB4706:
.LBB4683:
	.loc 9 385 7 is_stmt 1 view .LVU1555
	.loc 9 388 2 view .LVU1556
	.loc 9 391 2 view .LVU1557
	.loc 9 391 2 is_stmt 0 view .LVU1558
.LBE4683:
.LBB4684:
	.loc 6 221 7 is_stmt 1 view .LVU1559
.LBB4675:
.LBB4665:
	.loc 6 239 13 view .LVU1560
	.loc 6 239 13 is_stmt 0 view .LVU1561
.LBE4665:
.LBB4666:
	.loc 7 487 7 is_stmt 1 view .LVU1562
.LBB4644:
	.loc 7 430 7 view .LVU1563
.LBB4639:
	.loc 7 430 7 view .LVU1564
.LBB4634:
	.loc 9 419 7 view .LVU1565
.LBB4629:
	.loc 9 421 2 view .LVU1566
	.loc 9 427 2 view .LVU1567
.LBE4629:
.LBE4634:
.LBE4639:
.LBE4644:
.LBE4666:
.LBE4675:
.LBE4684:
.LBE4706:
.LBE4714:
.LBE4958:
.LBB4959:
.LBB4614:
.LBB4603:
.LBB4528:
.LBB4523:
 # C:/msys64/ucrt64/include/c++/14.2.0/bits/basic_string.h:194: 	: allocator_type(__a), _M_p(__dat) { }
	.loc 7 194 25 is_stmt 0 discriminator 1 view .LVU1568
	leaq	224(%rsp), %rax	 #, tmp253
.LVL438:
	.loc 7 194 25 discriminator 1 view .LVU1569
.LBE4523:
.LBE4528:
.LBE4603:
.LBE4614:
.LBE4959:
.LBB4960:
.LBB4715:
.LBB4707:
.LBB4685:
.LBB4676:
.LBB4667:
.LBB4645:
.LBB4640:
.LBB4635:
.LBB4630:
 # C:/msys64/ucrt64/include/c++/14.2.0/bits/char_traits.h:427: 	return static_cast<char_type*>(__builtin_memcpy(__s1, __s2, __n));
	.loc 9 427 49 view .LVU1570
	movl	$842232929, 259(%rsp)	 #, MEM <char[1:7]> [(void *)&D.129396 + 16B]
.LVL439:
	.loc 9 427 49 view .LVU1571
.LBE4630:
.LBE4635:
.LBE4640:
.LBE4645:
.LBE4667:
.LBB4668:
	.loc 7 259 7 is_stmt 1 view .LVU1572
.LBB4657:
	.loc 7 222 7 view .LVU1573
.LBB4654:
 # C:/msys64/ucrt64/include/c++/14.2.0/bits/basic_string.h:223:       { _M_string_length = __length; }
	.loc 7 223 26 is_stmt 0 view .LVU1574
	movq	$7, 248(%rsp)	 #, D.129396._M_string_length
.LVL440:
	.loc 7 223 26 view .LVU1575
.LBE4654:
.LBE4657:
.LBB4658:
	.loc 9 343 7 is_stmt 1 view .LVU1576
.LBB4651:
	.loc 9 350 2 view .LVU1577
 # C:/msys64/ucrt64/include/c++/14.2.0/bits/char_traits.h:350: 	__c1 = __c2;
	.loc 9 350 7 is_stmt 0 view .LVU1578
	movb	$0, 263(%rsp)	 #, MEM[(char_type &)&D.129396 + 23]
.LVL441:
	.loc 9 350 7 view .LVU1579
.LBE4651:
.LBE4658:
.LBE4668:
.LBB4669:
	.loc 6 242 4 is_stmt 1 view .LVU1580
	.loc 6 242 4 is_stmt 0 view .LVU1581
.LBE4669:
.LBE4676:
.LBE4685:
.LBE4707:
.LBE4715:
.LBE4960:
.LBB4961:
	.loc 15 161 7 is_stmt 1 view .LVU1582
.LBB4740:
	.loc 16 88 7 view .LVU1583
	.loc 16 88 7 is_stmt 0 view .LVU1584
.LBE4740:
.LBE4961:
.LBB4962:
	.loc 7 646 7 is_stmt 1 view .LVU1585
.LBB4615:
.LBB4604:
	.loc 7 232 7 view .LVU1586
	.loc 7 232 7 is_stmt 0 view .LVU1587
.LBE4604:
.LBB4605:
	.loc 7 193 2 is_stmt 1 view .LVU1588
.LBB4529:
.LBB4524:
.LBB4519:
	.loc 15 165 7 view .LVU1589
.LBB4518:
	.loc 16 92 7 view .LVU1590
	.loc 16 92 7 is_stmt 0 view .LVU1591
.LBE4518:
.LBE4519:
 # C:/msys64/ucrt64/include/c++/14.2.0/bits/basic_string.h:194: 	: allocator_type(__a), _M_p(__dat) { }
	.loc 7 194 25 discriminator 1 view .LVU1592
	movq	%rax, 208(%rsp)	 # tmp253, MEM[(struct _Alloc_hider *)&D.129394]._M_p
.LVL442:
.LEHB18:
	.loc 7 194 25 discriminator 1 view .LVU1593
.LBE4524:
.LBE4529:
.LBE4605:
.LBB4606:
 # C:/msys64/ucrt64/include/c++/14.2.0/bits/basic_string.h:651: 	  std::__throw_logic_error(__N("basic_string: "
	.loc 7 651 28 view .LVU1594
	call	_ZSt19__throw_logic_errorPKc	 #
	nop	
.LVL443:
.LEHE18:
.LBE4606:
.LBE4615:
.LBE4962:
.LBE4966:
.LBE4989:
.LBE4997:
.LBE5000:
.LBE5003:
.LBE5046:
	.cfi_endproc
.LFE11381:
	.seh_handler	__gxx_personality_seh0, @unwind, @except
	.seh_handlerdata
.LLSDA11381:
	.byte	0xff
	.byte	0xff
	.byte	0x1
	.uleb128 .LLSDACSE11381-.LLSDACSB11381
.LLSDACSB11381:
	.uleb128 .LEHB10-.LFB11381
	.uleb128 .LEHE10-.LEHB10
	.uleb128 0
	.uleb128 0
	.uleb128 .LEHB11-.LFB11381
	.uleb128 .LEHE11-.LEHB11
	.uleb128 .L155-.LFB11381
	.uleb128 0
	.uleb128 .LEHB12-.LFB11381
	.uleb128 .LEHE12-.LEHB12
	.uleb128 .L157-.LFB11381
	.uleb128 0
	.uleb128 .LEHB13-.LFB11381
	.uleb128 .LEHE13-.LEHB13
	.uleb128 .L158-.LFB11381
	.uleb128 0
	.uleb128 .LEHB14-.LFB11381
	.uleb128 .LEHE14-.LEHB14
	.uleb128 .L155-.LFB11381
	.uleb128 0
	.uleb128 .LEHB15-.LFB11381
	.uleb128 .LEHE15-.LEHB15
	.uleb128 .L156-.LFB11381
	.uleb128 0
	.uleb128 .LEHB16-.LFB11381
	.uleb128 .LEHE16-.LEHB16
	.uleb128 0
	.uleb128 0
	.uleb128 .LEHB17-.LFB11381
	.uleb128 .LEHE17-.LEHB17
	.uleb128 .L155-.LFB11381
	.uleb128 0
	.uleb128 .LEHB18-.LFB11381
	.uleb128 .LEHE18-.LEHB18
	.uleb128 .L156-.LFB11381
	.uleb128 0
.LLSDACSE11381:
	.section	.text$_Z16sweep_contiguousIfEvPKcPFvPKT_S4_yRS2_E,"x"
	.linkonce discard
	.seh_endproc
	.section	.text$_Z13log_per_trialIdEvRKNSt7__cxx1112basic_stringIcSt11char_traitsIcESaIcEEES7_S7_yS7_yiddT_,"x"
	.linkonce discard
	.p2align 4
	.globl	_Z13log_per_trialIdEvRKNSt7__cxx1112basic_stringIcSt11char_traitsIcESaIcEEES7_S7_yS7_yiddT_
	.def	_Z13log_per_trialIdEvRKNSt7__cxx1112basic_stringIcSt11char_traitsIcESaIcEEES7_S7_yS7_yiddT_;	.scl	2;	.type	32;	.endef
	.seh_proc	_Z13log_per_trialIdEvRKNSt7__cxx1112basic_stringIcSt11char_traitsIcESaIcEEES7_S7_yS7_yiddT_
_Z13log_per_trialIdEvRKNSt7__cxx1112basic_stringIcSt11char_traitsIcESaIcEEES7_S7_yS7_yiddT_:
.LVL444:
.LFB11630:
	.loc 1 37 6 is_stmt 1 view -0
	.cfi_startproc
	.loc 1 37 6 is_stmt 0 view .LVU1596
	pushq	%r15	 #
	.seh_pushreg	%r15
	.cfi_def_cfa_offset 16
	.cfi_offset 15, -16
	pushq	%r14	 #
	.seh_pushreg	%r14
	.cfi_def_cfa_offset 24
	.cfi_offset 14, -24
	pushq	%r13	 #
	.seh_pushreg	%r13
	.cfi_def_cfa_offset 32
	.cfi_offset 13, -32
	pushq	%r12	 #
	.seh_pushreg	%r12
	.cfi_def_cfa_offset 40
	.cfi_offset 12, -40
	pushq	%rbp	 #
	.seh_pushreg	%rbp
	.cfi_def_cfa_offset 48
	.cfi_offset 6, -48
	pushq	%rdi	 #
	.seh_pushreg	%rdi
	.cfi_def_cfa_offset 56
	.cfi_offset 5, -56
	pushq	%rsi	 #
	.seh_pushreg	%rsi
	.cfi_def_cfa_offset 64
	.cfi_offset 4, -64
	pushq	%rbx	 #
	.seh_pushreg	%rbx
	.cfi_def_cfa_offset 72
	.cfi_offset 3, -72
	subq	$552, %rsp	 #,
	.seh_stackalloc	552
	.cfi_def_cfa_offset 624
	.seh_endprologue
.LVL445:
.LBB5214:
.LBI5214:
	.loc 10 874 7 is_stmt 1 view .LVU1597
.LBB5215:
.LBB5216:
.LBB5217:
.LBI5217:
	.loc 11 464 7 view .LVU1598
.LBB5218:
.LBB5219:
 # C:/msys64/ucrt64/include/c++/14.2.0/bits/basic_ios.h:466: 	_M_streambuf(0), _M_ctype(0), _M_num_put(0), _M_num_get(0)
	.loc 11 466 59 is_stmt 0 view .LVU1599
	leaq	280(%rsp), %r14	 #, tmp317
.LVL446:
	.loc 11 466 59 view .LVU1600
.LBE5219:
.LBE5218:
.LBE5217:
.LBE5216:
.LBE5215:
.LBE5214:
 # C:\Users\MattsDesktop\ECSE6320P1SIMD\Project1DotProduct\dotpMain.cpp:37: void log_per_trial(const std::string &filename,
	.loc 1 37 6 view .LVU1601
	movq	%rdx, %rsi	 # tmp320, kernel
	movq	%r8, %rbp	 # tmp321, dtype
	movq	%rcx, 624(%rsp)	 # tmp319, filename
.LVL447:
.LBB5277:
.LBB5272:
.LBB5267:
.LBB5230:
.LBB5225:
.LBB5220:
 # C:/msys64/ucrt64/include/c++/14.2.0/bits/basic_ios.h:466: 	_M_streambuf(0), _M_ctype(0), _M_num_put(0), _M_num_get(0)
	.loc 11 466 59 view .LVU1602
	movq	%r14, %rcx	 # tmp317,
.LVL448:
	.loc 11 466 59 view .LVU1603
.LBE5220:
.LBE5225:
.LBE5230:
.LBE5267:
.LBE5272:
.LBE5277:
 # C:\Users\MattsDesktop\ECSE6320P1SIMD\Project1DotProduct\dotpMain.cpp:37: void log_per_trial(const std::string &filename,
	.loc 1 37 6 view .LVU1604
	movq	%r9, 648(%rsp)	 # tmp322, N_buf
.LBB5278:
.LBB5273:
.LBB5268:
.LBB5231:
.LBB5226:
.LBB5221:
 # C:/msys64/ucrt64/include/c++/14.2.0/bits/basic_ios.h:466: 	_M_streambuf(0), _M_ctype(0), _M_num_put(0), _M_num_get(0)
	.loc 11 466 59 view .LVU1605
	leaq	64(%rsp), %r13	 #, tmp314
.LVL449:
	.loc 11 466 59 view .LVU1606
	call	_ZNSt8ios_baseC2Ev	 #
.LVL450:
 # C:/msys64/ucrt64/include/c++/14.2.0/bits/basic_ios.h:466: 	_M_streambuf(0), _M_ctype(0), _M_num_put(0), _M_num_get(0)
	.loc 11 466 59 discriminator 1 view .LVU1607
	movq	.refptr._ZTVSt9basic_iosIcSt11char_traitsIcEE(%rip), %rax	 #, tmp348
.LBE5221:
.LBE5226:
.LBE5231:
.LBB5232:
.LBB5233:
.LBB5234:
 # C:/msys64/ucrt64/include/c++/14.2.0/ostream:438:       { this->init(0); }
	.loc 12 438 19 view .LVU1608
	xorl	%edx, %edx	 #
.LBE5234:
.LBE5233:
.LBE5232:
.LBB5241:
.LBB5227:
.LBB5222:
 # C:/msys64/ucrt64/include/c++/14.2.0/bits/basic_ios.h:465:       : ios_base(), _M_tie(0), _M_fill(char_type()), _M_fill_init(false), 
	.loc 11 465 21 view .LVU1609
	movq	$0, 496(%rsp)	 #, MEM[(struct basic_ios *)&f + 216B]._M_tie
 # C:/msys64/ucrt64/include/c++/14.2.0/bits/basic_ios.h:466: 	_M_streambuf(0), _M_ctype(0), _M_num_put(0), _M_num_get(0)
	.loc 11 466 2 view .LVU1610
	movq	$0, 512(%rsp)	 #, MEM[(struct basic_ios *)&f + 216B]._M_streambuf
 # C:/msys64/ucrt64/include/c++/14.2.0/bits/basic_ios.h:466: 	_M_streambuf(0), _M_ctype(0), _M_num_put(0), _M_num_get(0)
	.loc 11 466 19 view .LVU1611
	movq	$0, 520(%rsp)	 #, MEM[(struct basic_ios *)&f + 216B]._M_ctype
 # C:/msys64/ucrt64/include/c++/14.2.0/bits/basic_ios.h:466: 	_M_streambuf(0), _M_ctype(0), _M_num_put(0), _M_num_get(0)
	.loc 11 466 59 discriminator 1 view .LVU1612
	addq	$16, %rax	 #, tmp198
	movq	%rax, 280(%rsp)	 # tmp198, MEM[(struct basic_ios *)&f + 216B].D.51970._vptr.ios_base
 # C:/msys64/ucrt64/include/c++/14.2.0/bits/basic_ios.h:465:       : ios_base(), _M_tie(0), _M_fill(char_type()), _M_fill_init(false), 
	.loc 11 465 32 view .LVU1613
	xorl	%eax, %eax	 #
	movw	%ax, 504(%rsp)	 #, MEM <unsigned short> [(void *)&f + 440B]
.LBE5222:
.LBE5227:
.LBE5241:
.LBB5242:
.LBB5238:
.LBB5235:
 # C:/msys64/ucrt64/include/c++/14.2.0/ostream:438:       { this->init(0); }
	.loc 12 438 7 view .LVU1614
	movq	.refptr._ZTTSt14basic_ofstreamIcSt11char_traitsIcEE(%rip), %rax	 #, tmp199
.LBE5235:
.LBE5238:
.LBE5242:
.LBB5243:
.LBB5228:
.LBB5223:
 # C:/msys64/ucrt64/include/c++/14.2.0/bits/basic_ios.h:466: 	_M_streambuf(0), _M_ctype(0), _M_num_put(0), _M_num_get(0)
	.loc 11 466 32 view .LVU1615
	movq	$0, 528(%rsp)	 #, MEM[(struct basic_ios *)&f + 216B]._M_num_put
.LBE5223:
.LBE5228:
.LBE5243:
.LBB5244:
.LBB5239:
.LBB5236:
 # C:/msys64/ucrt64/include/c++/14.2.0/ostream:438:       { this->init(0); }
	.loc 12 438 7 view .LVU1616
	movq	8(%rax), %rdi	 # MEM[(const void * *)&_ZTTSt14basic_ofstreamIcSt11char_traitsIcEE + 8B], _73
	movq	16(%rax), %r15	 # MEM[(const void * *)&_ZTTSt14basic_ofstreamIcSt11char_traitsIcEE + 16B], _77
.LBE5236:
.LBE5239:
.LBE5244:
.LBB5245:
.LBB5229:
.LBB5224:
 # C:/msys64/ucrt64/include/c++/14.2.0/bits/basic_ios.h:466: 	_M_streambuf(0), _M_ctype(0), _M_num_put(0), _M_num_get(0)
	.loc 11 466 47 view .LVU1617
	movq	$0, 536(%rsp)	 #, MEM[(struct basic_ios *)&f + 216B]._M_num_get
.LVL451:
	.loc 11 466 47 view .LVU1618
.LBE5224:
.LBE5229:
.LBE5245:
.LBB5246:
.LBI5232:
	.loc 12 437 7 is_stmt 1 view .LVU1619
.LBB5240:
.LBB5237:
 # C:/msys64/ucrt64/include/c++/14.2.0/ostream:438:       { this->init(0); }
	.loc 12 438 7 is_stmt 0 view .LVU1620
	movq	-24(%rdi), %rcx	 # MEM[(long long int *)_73 + -24B], _76
	movq	%rdi, 64(%rsp)	 # _73, MEM[(struct basic_ostream *)&f]._vptr.basic_ostream
	addq	%r13, %rcx	 # tmp314, _76
	movq	%r15, (%rcx)	 # _77, MEM[(struct basic_ios *)_76].D.51970._vptr.ios_base
.LEHB19:
 # C:/msys64/ucrt64/include/c++/14.2.0/ostream:438:       { this->init(0); }
	.loc 12 438 19 view .LVU1621
	call	_ZNSt9basic_iosIcSt11char_traitsIcEE4initEPSt15basic_streambufIcS1_E	 #
.LVL452:
.LEHE19:
	.loc 12 438 19 view .LVU1622
.LBE5237:
.LBE5240:
.LBE5246:
 # C:/msys64/ucrt64/include/c++/14.2.0/fstream:876:       : __ostream_type(), _M_filebuf()
	.loc 10 876 38 discriminator 1 view .LVU1623
	movq	.refptr._ZTVSt14basic_ofstreamIcSt11char_traitsIcEE(%rip), %rbx	 #, tmp316
 # C:/msys64/ucrt64/include/c++/14.2.0/fstream:876:       : __ostream_type(), _M_filebuf()
	.loc 10 876 27 discriminator 1 view .LVU1624
	leaq	72(%rsp), %r12	 #, tmp315
	movq	%r12, %rcx	 # tmp315,
 # C:/msys64/ucrt64/include/c++/14.2.0/fstream:876:       : __ostream_type(), _M_filebuf()
	.loc 10 876 38 discriminator 1 view .LVU1625
	leaq	24(%rbx), %rax	 #, tmp204
	movq	%rax, 64(%rsp)	 # tmp204, MEM[(struct basic_ofstream *)&f].D.107333._vptr.basic_ostream
	leaq	64(%rbx), %rax	 #, tmp206
	movq	%rax, 280(%rsp)	 # tmp206, MEM[(struct basic_ios *)&f + 216B].D.51970._vptr.ios_base
.LEHB20:
 # C:/msys64/ucrt64/include/c++/14.2.0/fstream:876:       : __ostream_type(), _M_filebuf()
	.loc 10 876 27 discriminator 1 view .LVU1626
	call	_ZNSt13basic_filebufIcSt11char_traitsIcEEC1Ev	 #
.LVL453:
.LEHE20:
 # C:/msys64/ucrt64/include/c++/14.2.0/fstream:878: 	this->init(&_M_filebuf);
	.loc 10 878 12 view .LVU1627
	movq	%r12, %rdx	 # tmp315,
	movq	%r14, %rcx	 # tmp317,
.LEHB21:
	call	_ZNSt9basic_iosIcSt11char_traitsIcEE4initEPSt15basic_streambufIcS1_E	 #
.LVL454:
.LBB5247:
.LBI5247:
	.loc 10 1009 7 is_stmt 1 view .LVU1628
.LBB5248:
.LBB5249:
.LBI5249:
	.loc 10 341 7 view .LVU1629
.LBB5250:
 # C:/msys64/ucrt64/include/c++/14.2.0/fstream:342:       { return open(__s.c_str(), __mode); }
	.loc 10 342 20 is_stmt 0 discriminator 1 view .LVU1630
	movq	624(%rsp), %rax	 # filename, tmp350
	movl	$17, %r8d	 #,
	movq	%r12, %rcx	 # tmp315,
	movq	(%rax), %rdx	 # MEM[(char * *)filename_6(D)], MEM[(char * *)filename_6(D)]
	call	_ZNSt13basic_filebufIcSt11char_traitsIcEE4openEPKcSt13_Ios_Openmode	 #
.LVL455:
	.loc 10 342 20 discriminator 1 view .LVU1631
.LBE5250:
.LBE5249:
.LBB5251:
.LBB5252:
 # C:/msys64/ucrt64/include/c++/14.2.0/fstream:973: 	  this->setstate(ios_base::failbit);
	.loc 10 973 18 view .LVU1632
	movq	64(%rsp), %rdx	 # f.D.107333._vptr.basic_ostream, f.D.107333._vptr.basic_ostream
	movq	-24(%rdx), %rcx	 # MEM[(long long int *)pretmp_195 + -24B], _212
	addq	%r13, %rcx	 # tmp314, _212
.LBE5252:
.LBE5251:
 # C:/msys64/ucrt64/include/c++/14.2.0/fstream:1011: 	if (!_M_filebuf.open(__s, __mode | ios_base::out))
	.loc 10 1011 2 discriminator 2 view .LVU1633
	testq	%rax, %rax	 # tmp323
	je	.L214	 #,
 # C:/msys64/ucrt64/include/c++/14.2.0/fstream:1016: 	  this->clear();
	.loc 10 1016 15 view .LVU1634
	xorl	%edx, %edx	 #
	call	_ZNSt9basic_iosIcSt11char_traitsIcEE5clearESt12_Ios_Iostate	 #
.LVL456:
.LEHE21:
	.loc 10 1016 15 view .LVU1635
.LBE5248:
.LBE5247:
.LBE5268:
.LBE5273:
.LBE5278:
.LBB5279:
.LBI5279:
	.loc 11 129 7 is_stmt 1 view .LVU1636
.LBB5280:
.LBI5280:
	.loc 11 205 7 view .LVU1637
.LBB5281:
.LBI5281:
	.loc 11 141 7 view .LVU1638
	.loc 11 141 7 is_stmt 0 view .LVU1639
.LBE5281:
.LBB5282:
.LBI5282:
	.loc 13 181 3 is_stmt 1 view .LVU1640
.LBB5283:
	.loc 13 182 5 view .LVU1641
	.loc 13 182 5 is_stmt 0 view .LVU1642
.LBE5283:
.LBE5282:
.LBE5280:
.LBE5279:
 # C:\Users\MattsDesktop\ECSE6320P1SIMD\Project1DotProduct\dotpMain.cpp:48:     if (!f) { std::cerr<<"CSV open failed\n"; return; }
	.loc 1 48 5 discriminator 1 view .LVU1643
	testb	$5, 312(%rsp)	 #, MEM[(const struct basic_ios *)&f + 216B].D.51970._M_streambuf_state
	jne	.L215	 #,
.L212:
 # C:\Users\MattsDesktop\ECSE6320P1SIMD\Project1DotProduct\dotpMain.cpp:49:     if (!csv_header_written) {
	.loc 1 49 5 view .LVU1644
	cmpb	$0, _ZL18csv_header_written(%rip)	 #, csv_header_written
	jne	.L186	 #,
.LVL457:
.LBB5288:
.LBI5288:
	.loc 12 668 5 is_stmt 1 view .LVU1645
.LBB5289:
 # C:/msys64/ucrt64/include/c++/14.2.0/ostream:673: 	__ostream_insert(__out, __s,
	.loc 12 673 18 is_stmt 0 view .LVU1646
	movl	$63, %r8d	 #,
	leaq	.LC6(%rip), %rdx	 #, tmp259
	movq	%r13, %rcx	 # tmp314,
.LEHB22:
	call	_ZSt16__ostream_insertIcSt11char_traitsIcEERSt13basic_ostreamIT_T0_ES6_PKS3_x	 #
.LVL458:
	.loc 12 673 18 view .LVU1647
.LBE5289:
.LBE5288:
 # C:\Users\MattsDesktop\ECSE6320P1SIMD\Project1DotProduct\dotpMain.cpp:51:         csv_header_written = true;
	.loc 1 51 28 view .LVU1648
	movb	$1, _ZL18csv_header_written(%rip)	 #, csv_header_written
.L186:
.LVL459:
.LBB5290:
.LBI5290:
	.loc 7 4077 5 is_stmt 1 view .LVU1649
.LBB5291:
.LBB5292:
.LBI5292:
	.loc 7 1076 7 view .LVU1650
	.loc 7 1076 7 is_stmt 0 view .LVU1651
.LBE5292:
.LBB5293:
.LBI5293:
	.loc 7 2653 7 is_stmt 1 view .LVU1652
.LBB5294:
.LBI5294:
	.loc 7 227 7 view .LVU1653
	.loc 7 227 7 is_stmt 0 view .LVU1654
.LBE5294:
.LBE5293:
 # C:/msys64/ucrt64/include/c++/14.2.0/bits/basic_string.h:4082:       return __ostream_insert(__os, __str.data(), __str.size());
	.loc 7 4082 30 discriminator 2 view .LVU1655
	movq	(%rsi), %rdx	 # MEM[(const struct basic_string *)kernel_11(D)]._M_dataplus._M_p, MEM[(const struct basic_string *)kernel_11(D)]._M_dataplus._M_p
	movq	8(%rsi), %r8	 # MEM[(const struct basic_string *)kernel_11(D)]._M_string_length,
	movq	%r13, %rcx	 # tmp314,
	call	_ZSt16__ostream_insertIcSt11char_traitsIcEERSt13basic_ostreamIT_T0_ES6_PKS3_x	 #
.LVL460:
	movq	%rax, %rcx	 # tmp328, _131
.LVL461:
	.loc 7 4082 30 discriminator 2 view .LVU1656
.LBE5291:
.LBE5290:
.LBB5295:
.LBB5296:
 # C:/msys64/ucrt64/include/c++/14.2.0/ostream:578:       if (__out.width() != 0)
	.loc 12 578 22 view .LVU1657
	movq	(%rax), %rax	 # _49->_vptr.basic_ostream, _49->_vptr.basic_ostream
.LVL462:
	.loc 12 578 22 view .LVU1658
	movb	$44, 56(%rsp)	 #, __c
.LVL463:
	.loc 12 578 22 view .LVU1659
.LBE5296:
.LBI5295:
	.loc 12 576 5 is_stmt 1 view .LVU1660
.LBB5299:
.LBB5297:
.LBI5297:
	.loc 13 775 5 view .LVU1661
.LBB5298:
	.loc 13 776 7 view .LVU1662
 # C:/msys64/ucrt64/include/c++/14.2.0/bits/ios_base.h:776:     { return _M_width; }
	.loc 13 776 14 is_stmt 0 view .LVU1663
	movq	-24(%rax), %rax	 # MEM[(long long int *)_126 + -24B], MEM[(long long int *)_126 + -24B]
.LBE5298:
.LBE5297:
 # C:/msys64/ucrt64/include/c++/14.2.0/ostream:578:       if (__out.width() != 0)
	.loc 12 578 7 discriminator 1 view .LVU1664
	cmpq	$0, 16(%rcx,%rax)	 #, MEM[(const struct ios_base *)_129]._M_width
	jne	.L216	 #,
 # C:/msys64/ucrt64/include/c++/14.2.0/ostream:580:       __out.put(__c);
	.loc 12 580 16 view .LVU1665
	movl	$44, %edx	 #,
	movq	%rcx, 40(%rsp)	 # _131, %sfp
	call	_ZNSo3putEc	 #
.LVL464:
	.loc 12 580 16 view .LVU1666
	movq	40(%rsp), %rcx	 # %sfp, _131
.LVL465:
.L188:
	.loc 12 580 16 view .LVU1667
.LBE5299:
.LBE5295:
.LBB5301:
.LBI5301:
	.loc 7 4077 5 is_stmt 1 view .LVU1668
.LBB5302:
.LBB5303:
.LBI5303:
	.loc 7 1076 7 view .LVU1669
	.loc 7 1076 7 is_stmt 0 view .LVU1670
.LBE5303:
.LBB5304:
.LBI5304:
	.loc 7 2653 7 is_stmt 1 view .LVU1671
.LBB5305:
.LBI5305:
	.loc 7 227 7 view .LVU1672
	.loc 7 227 7 is_stmt 0 view .LVU1673
.LBE5305:
.LBE5304:
 # C:/msys64/ucrt64/include/c++/14.2.0/bits/basic_string.h:4082:       return __ostream_insert(__os, __str.data(), __str.size());
	.loc 7 4082 30 discriminator 2 view .LVU1674
	movq	0(%rbp), %rdx	 # MEM[(const struct basic_string *)dtype_14(D)]._M_dataplus._M_p, MEM[(const struct basic_string *)dtype_14(D)]._M_dataplus._M_p
	movq	8(%rbp), %r8	 # MEM[(const struct basic_string *)dtype_14(D)]._M_string_length,
	call	_ZSt16__ostream_insertIcSt11char_traitsIcEERSt13basic_ostreamIT_T0_ES6_PKS3_x	 #
.LVL466:
	.loc 7 4082 30 discriminator 2 view .LVU1675
	movq	%rax, %rcx	 # tmp330, _140
.LVL467:
	.loc 7 4082 30 discriminator 2 view .LVU1676
.LBE5302:
.LBE5301:
.LBB5306:
.LBB5307:
 # C:/msys64/ucrt64/include/c++/14.2.0/ostream:578:       if (__out.width() != 0)
	.loc 12 578 22 view .LVU1677
	movq	(%rax), %rax	 # _53->_vptr.basic_ostream, _53->_vptr.basic_ostream
.LVL468:
	.loc 12 578 22 view .LVU1678
	movb	$44, 57(%rsp)	 #, __c
.LVL469:
	.loc 12 578 22 view .LVU1679
.LBE5307:
.LBI5306:
	.loc 12 576 5 is_stmt 1 view .LVU1680
.LBB5310:
.LBB5308:
.LBI5308:
	.loc 13 775 5 view .LVU1681
.LBB5309:
	.loc 13 776 7 view .LVU1682
 # C:/msys64/ucrt64/include/c++/14.2.0/bits/ios_base.h:776:     { return _M_width; }
	.loc 13 776 14 is_stmt 0 view .LVU1683
	movq	-24(%rax), %rax	 # MEM[(long long int *)_135 + -24B], MEM[(long long int *)_135 + -24B]
.LBE5309:
.LBE5308:
 # C:/msys64/ucrt64/include/c++/14.2.0/ostream:578:       if (__out.width() != 0)
	.loc 12 578 7 discriminator 1 view .LVU1684
	cmpq	$0, 16(%rcx,%rax)	 #, MEM[(const struct ios_base *)_138]._M_width
	je	.L189	 #,
 # C:/msys64/ucrt64/include/c++/14.2.0/ostream:579: 	return __ostream_insert(__out, &__c, 1);
	.loc 12 579 25 view .LVU1685
	leaq	57(%rsp), %rdx	 #, tmp270
.LVL470:
	.loc 12 579 25 view .LVU1686
	movl	$1, %r8d	 #,
	call	_ZSt16__ostream_insertIcSt11char_traitsIcEERSt13basic_ostreamIT_T0_ES6_PKS3_x	 #
.LVL471:
	.loc 12 579 25 view .LVU1687
	movq	%rax, %rcx	 # tmp331, _140
.L190:
.LVL472:
	.loc 12 579 25 view .LVU1688
.LBE5310:
.LBE5306:
.LBB5312:
.LBI5312:
	.loc 12 213 7 is_stmt 1 view .LVU1689
.LBB5313:
 # C:/msys64/ucrt64/include/c++/14.2.0/ostream:214:       { return _M_insert(__n); }
	.loc 12 214 25 is_stmt 0 view .LVU1690
	movq	648(%rsp), %rdx	 # N_buf,
	call	_ZNSo9_M_insertIyEERSoT_	 #
.LVL473:
	.loc 12 214 25 view .LVU1691
	movq	%rax, %rcx	 # tmp332, _149
.LVL474:
	.loc 12 214 25 view .LVU1692
.LBE5313:
.LBE5312:
.LBB5314:
.LBB5315:
 # C:/msys64/ucrt64/include/c++/14.2.0/ostream:578:       if (__out.width() != 0)
	.loc 12 578 22 view .LVU1693
	movq	(%rax), %rax	 # MEM[(struct basic_ostream *)_54]._vptr.basic_ostream, MEM[(struct basic_ostream *)_54]._vptr.basic_ostream
.LVL475:
	.loc 12 578 22 view .LVU1694
	movb	$44, 58(%rsp)	 #, __c
.LVL476:
	.loc 12 578 22 view .LVU1695
.LBE5315:
.LBI5314:
	.loc 12 576 5 is_stmt 1 view .LVU1696
.LBB5318:
.LBB5316:
.LBI5316:
	.loc 13 775 5 view .LVU1697
.LBB5317:
	.loc 13 776 7 view .LVU1698
 # C:/msys64/ucrt64/include/c++/14.2.0/bits/ios_base.h:776:     { return _M_width; }
	.loc 13 776 14 is_stmt 0 view .LVU1699
	movq	-24(%rax), %rax	 # MEM[(long long int *)_144 + -24B], MEM[(long long int *)_144 + -24B]
.LBE5317:
.LBE5316:
 # C:/msys64/ucrt64/include/c++/14.2.0/ostream:578:       if (__out.width() != 0)
	.loc 12 578 7 discriminator 1 view .LVU1700
	cmpq	$0, 16(%rcx,%rax)	 #, MEM[(const struct ios_base *)_147]._M_width
	je	.L191	 #,
 # C:/msys64/ucrt64/include/c++/14.2.0/ostream:579: 	return __ostream_insert(__out, &__c, 1);
	.loc 12 579 25 view .LVU1701
	leaq	58(%rsp), %rdx	 #, tmp273
.LVL477:
	.loc 12 579 25 view .LVU1702
	movl	$1, %r8d	 #,
	call	_ZSt16__ostream_insertIcSt11char_traitsIcEERSt13basic_ostreamIT_T0_ES6_PKS3_x	 #
.LVL478:
	.loc 12 579 25 view .LVU1703
	movq	%rax, %rcx	 # tmp333, _149
.L192:
.LVL479:
	.loc 12 579 25 view .LVU1704
.LBE5318:
.LBE5314:
.LBB5320:
.LBI5320:
	.loc 7 4077 5 is_stmt 1 view .LVU1705
.LBB5321:
.LBB5322:
.LBI5322:
	.loc 7 1076 7 view .LVU1706
	.loc 7 1076 7 is_stmt 0 view .LVU1707
.LBE5322:
.LBB5323:
.LBI5323:
	.loc 7 2653 7 is_stmt 1 view .LVU1708
.LBB5324:
.LBI5324:
	.loc 7 227 7 view .LVU1709
	.loc 7 227 7 is_stmt 0 view .LVU1710
.LBE5324:
.LBE5323:
 # C:/msys64/ucrt64/include/c++/14.2.0/bits/basic_string.h:4082:       return __ostream_insert(__os, __str.data(), __str.size());
	.loc 7 4082 30 discriminator 2 view .LVU1711
	movq	656(%rsp), %rax	 # pattern, tmp357
	movq	(%rax), %rdx	 # MEM[(const struct basic_string *)pattern_20(D)]._M_dataplus._M_p, MEM[(const struct basic_string *)pattern_20(D)]._M_dataplus._M_p
	movq	8(%rax), %r8	 # MEM[(const struct basic_string *)pattern_20(D)]._M_string_length,
	call	_ZSt16__ostream_insertIcSt11char_traitsIcEERSt13basic_ostreamIT_T0_ES6_PKS3_x	 #
.LVL480:
	.loc 7 4082 30 discriminator 2 view .LVU1712
	movq	%rax, %rsi	 # tmp334, _158
.LVL481:
	.loc 7 4082 30 discriminator 2 view .LVU1713
.LBE5321:
.LBE5320:
.LBB5325:
.LBB5326:
 # C:/msys64/ucrt64/include/c++/14.2.0/ostream:578:       if (__out.width() != 0)
	.loc 12 578 22 view .LVU1714
	movq	(%rax), %rax	 # _58->_vptr.basic_ostream, _58->_vptr.basic_ostream
.LVL482:
	.loc 12 578 22 view .LVU1715
	movb	$44, 59(%rsp)	 #, __c
.LVL483:
	.loc 12 578 22 view .LVU1716
.LBE5326:
.LBI5325:
	.loc 12 576 5 is_stmt 1 view .LVU1717
.LBB5329:
.LBB5327:
.LBI5327:
	.loc 13 775 5 view .LVU1718
.LBB5328:
	.loc 13 776 7 view .LVU1719
 # C:/msys64/ucrt64/include/c++/14.2.0/bits/ios_base.h:776:     { return _M_width; }
	.loc 13 776 14 is_stmt 0 view .LVU1720
	movq	-24(%rax), %rax	 # MEM[(long long int *)_153 + -24B], MEM[(long long int *)_153 + -24B]
.LBE5328:
.LBE5327:
 # C:/msys64/ucrt64/include/c++/14.2.0/ostream:578:       if (__out.width() != 0)
	.loc 12 578 7 discriminator 1 view .LVU1721
	cmpq	$0, 16(%rsi,%rax)	 #, MEM[(const struct ios_base *)_156]._M_width
	je	.L193	 #,
 # C:/msys64/ucrt64/include/c++/14.2.0/ostream:579: 	return __ostream_insert(__out, &__c, 1);
	.loc 12 579 25 view .LVU1722
	leaq	59(%rsp), %rdx	 #, tmp278
.LVL484:
	.loc 12 579 25 view .LVU1723
	movl	$1, %r8d	 #,
	movq	%rsi, %rcx	 # _158,
	call	_ZSt16__ostream_insertIcSt11char_traitsIcEERSt13basic_ostreamIT_T0_ES6_PKS3_x	 #
.LVL485:
	.loc 12 579 25 view .LVU1724
	movq	%rax, %rsi	 # tmp335, _158
.LVL486:
.L194:
	.loc 12 579 25 view .LVU1725
.LBE5329:
.LBE5325:
.LBB5331:
.LBI5331:
	.loc 12 213 7 is_stmt 1 view .LVU1726
.LBB5332:
 # C:/msys64/ucrt64/include/c++/14.2.0/ostream:214:       { return _M_insert(__n); }
	.loc 12 214 25 is_stmt 0 view .LVU1727
	movq	664(%rsp), %rdx	 # stride,
	movq	%rsi, %rcx	 # _158,
	call	_ZNSo9_M_insertIyEERSoT_	 #
.LVL487:
	movq	%rax, %rsi	 # tmp336, _167
.LVL488:
	.loc 12 214 25 view .LVU1728
.LBE5332:
.LBE5331:
.LBB5333:
.LBB5334:
 # C:/msys64/ucrt64/include/c++/14.2.0/ostream:578:       if (__out.width() != 0)
	.loc 12 578 22 view .LVU1729
	movq	(%rax), %rax	 # MEM[(struct basic_ostream *)_59]._vptr.basic_ostream, MEM[(struct basic_ostream *)_59]._vptr.basic_ostream
.LVL489:
	.loc 12 578 22 view .LVU1730
	movb	$44, 60(%rsp)	 #, __c
.LVL490:
	.loc 12 578 22 view .LVU1731
.LBE5334:
.LBI5333:
	.loc 12 576 5 is_stmt 1 view .LVU1732
.LBB5337:
.LBB5335:
.LBI5335:
	.loc 13 775 5 view .LVU1733
.LBB5336:
	.loc 13 776 7 view .LVU1734
 # C:/msys64/ucrt64/include/c++/14.2.0/bits/ios_base.h:776:     { return _M_width; }
	.loc 13 776 14 is_stmt 0 view .LVU1735
	movq	-24(%rax), %rax	 # MEM[(long long int *)_162 + -24B], MEM[(long long int *)_162 + -24B]
.LBE5336:
.LBE5335:
 # C:/msys64/ucrt64/include/c++/14.2.0/ostream:578:       if (__out.width() != 0)
	.loc 12 578 7 discriminator 1 view .LVU1736
	cmpq	$0, 16(%rsi,%rax)	 #, MEM[(const struct ios_base *)_165]._M_width
	je	.L195	 #,
 # C:/msys64/ucrt64/include/c++/14.2.0/ostream:579: 	return __ostream_insert(__out, &__c, 1);
	.loc 12 579 25 view .LVU1737
	leaq	60(%rsp), %rdx	 #, tmp281
.LVL491:
	.loc 12 579 25 view .LVU1738
	movl	$1, %r8d	 #,
	movq	%rsi, %rcx	 # _167,
	call	_ZSt16__ostream_insertIcSt11char_traitsIcEERSt13basic_ostreamIT_T0_ES6_PKS3_x	 #
.LVL492:
	.loc 12 579 25 view .LVU1739
	movq	%rax, %rsi	 # tmp337, _167
.LVL493:
.L196:
	.loc 12 579 25 view .LVU1740
.LBE5337:
.LBE5333:
 # C:\Users\MattsDesktop\ECSE6320P1SIMD\Project1DotProduct\dotpMain.cpp:55:       << trial << ',' << time_ms << ',' << gflops << ',' << sum << "\n";
	.loc 1 55 16 view .LVU1741
	movl	672(%rsp), %edx	 # trial,
	movq	%rsi, %rcx	 # _167,
	call	_ZNSolsEi	 #
.LVL494:
	movq	%rax, %rsi	 # tmp338, _176
.LVL495:
.LBB5339:
.LBB5340:
 # C:/msys64/ucrt64/include/c++/14.2.0/ostream:578:       if (__out.width() != 0)
	.loc 12 578 22 view .LVU1742
	movq	(%rax), %rax	 # _28->_vptr.basic_ostream, _28->_vptr.basic_ostream
.LVL496:
	.loc 12 578 22 view .LVU1743
	movb	$44, 61(%rsp)	 #, __c
.LVL497:
	.loc 12 578 22 view .LVU1744
.LBE5340:
.LBI5339:
	.loc 12 576 5 is_stmt 1 view .LVU1745
.LBB5343:
.LBB5341:
.LBI5341:
	.loc 13 775 5 view .LVU1746
.LBB5342:
	.loc 13 776 7 view .LVU1747
 # C:/msys64/ucrt64/include/c++/14.2.0/bits/ios_base.h:776:     { return _M_width; }
	.loc 13 776 14 is_stmt 0 view .LVU1748
	movq	-24(%rax), %rax	 # MEM[(long long int *)_171 + -24B], MEM[(long long int *)_171 + -24B]
.LBE5342:
.LBE5341:
 # C:/msys64/ucrt64/include/c++/14.2.0/ostream:578:       if (__out.width() != 0)
	.loc 12 578 7 discriminator 1 view .LVU1749
	cmpq	$0, 16(%rsi,%rax)	 #, MEM[(const struct ios_base *)_174]._M_width
	je	.L197	 #,
 # C:/msys64/ucrt64/include/c++/14.2.0/ostream:579: 	return __ostream_insert(__out, &__c, 1);
	.loc 12 579 25 view .LVU1750
	leaq	61(%rsp), %rdx	 #, tmp284
.LVL498:
	.loc 12 579 25 view .LVU1751
	movl	$1, %r8d	 #,
	movq	%rsi, %rcx	 # _176,
	call	_ZSt16__ostream_insertIcSt11char_traitsIcEERSt13basic_ostreamIT_T0_ES6_PKS3_x	 #
.LVL499:
	.loc 12 579 25 view .LVU1752
	movq	%rax, %rsi	 # tmp339, _176
.LVL500:
.L198:
	.loc 12 579 25 view .LVU1753
.LBE5343:
.LBE5339:
.LBB5345:
.LBI5345:
	.loc 12 228 7 is_stmt 1 view .LVU1754
.LBB5346:
 # C:/msys64/ucrt64/include/c++/14.2.0/ostream:229:       { return _M_insert(__f); }
	.loc 12 229 25 is_stmt 0 view .LVU1755
	vmovsd	680(%rsp), %xmm1	 # time_ms,
	movq	%rsi, %rcx	 # _176,
	call	_ZNSo9_M_insertIdEERSoT_	 #
.LVL501:
	movq	%rax, %rsi	 # tmp340, _185
.LVL502:
	.loc 12 229 25 view .LVU1756
.LBE5346:
.LBE5345:
.LBB5347:
.LBB5348:
 # C:/msys64/ucrt64/include/c++/14.2.0/ostream:578:       if (__out.width() != 0)
	.loc 12 578 22 view .LVU1757
	movq	(%rax), %rax	 # MEM[(struct basic_ostream *)_60]._vptr.basic_ostream, MEM[(struct basic_ostream *)_60]._vptr.basic_ostream
.LVL503:
	.loc 12 578 22 view .LVU1758
	movb	$44, 62(%rsp)	 #, __c
.LVL504:
	.loc 12 578 22 view .LVU1759
.LBE5348:
.LBI5347:
	.loc 12 576 5 is_stmt 1 view .LVU1760
.LBB5351:
.LBB5349:
.LBI5349:
	.loc 13 775 5 view .LVU1761
.LBB5350:
	.loc 13 776 7 view .LVU1762
 # C:/msys64/ucrt64/include/c++/14.2.0/bits/ios_base.h:776:     { return _M_width; }
	.loc 13 776 14 is_stmt 0 view .LVU1763
	movq	-24(%rax), %rax	 # MEM[(long long int *)_180 + -24B], MEM[(long long int *)_180 + -24B]
.LBE5350:
.LBE5349:
 # C:/msys64/ucrt64/include/c++/14.2.0/ostream:578:       if (__out.width() != 0)
	.loc 12 578 7 discriminator 1 view .LVU1764
	cmpq	$0, 16(%rsi,%rax)	 #, MEM[(const struct ios_base *)_183]._M_width
	je	.L199	 #,
 # C:/msys64/ucrt64/include/c++/14.2.0/ostream:579: 	return __ostream_insert(__out, &__c, 1);
	.loc 12 579 25 view .LVU1765
	leaq	62(%rsp), %rdx	 #, tmp287
.LVL505:
	.loc 12 579 25 view .LVU1766
	movl	$1, %r8d	 #,
	movq	%rsi, %rcx	 # _185,
	call	_ZSt16__ostream_insertIcSt11char_traitsIcEERSt13basic_ostreamIT_T0_ES6_PKS3_x	 #
.LVL506:
	.loc 12 579 25 view .LVU1767
	movq	%rax, %rsi	 # tmp341, _185
.LVL507:
.L200:
	.loc 12 579 25 view .LVU1768
.LBE5351:
.LBE5347:
.LBB5353:
.LBI5353:
	.loc 12 228 7 is_stmt 1 view .LVU1769
.LBB5354:
 # C:/msys64/ucrt64/include/c++/14.2.0/ostream:229:       { return _M_insert(__f); }
	.loc 12 229 25 is_stmt 0 view .LVU1770
	vmovsd	688(%rsp), %xmm1	 # gflops,
	movq	%rsi, %rcx	 # _185,
	call	_ZNSo9_M_insertIdEERSoT_	 #
.LVL508:
	movq	%rax, %rsi	 # tmp342, _194
.LVL509:
	.loc 12 229 25 view .LVU1771
.LBE5354:
.LBE5353:
.LBB5355:
.LBB5356:
 # C:/msys64/ucrt64/include/c++/14.2.0/ostream:578:       if (__out.width() != 0)
	.loc 12 578 22 view .LVU1772
	movq	(%rax), %rax	 # MEM[(struct basic_ostream *)_61]._vptr.basic_ostream, MEM[(struct basic_ostream *)_61]._vptr.basic_ostream
.LVL510:
	.loc 12 578 22 view .LVU1773
	movb	$44, 63(%rsp)	 #, __c
.LVL511:
	.loc 12 578 22 view .LVU1774
.LBE5356:
.LBI5355:
	.loc 12 576 5 is_stmt 1 view .LVU1775
.LBB5359:
.LBB5357:
.LBI5357:
	.loc 13 775 5 view .LVU1776
.LBB5358:
	.loc 13 776 7 view .LVU1777
 # C:/msys64/ucrt64/include/c++/14.2.0/bits/ios_base.h:776:     { return _M_width; }
	.loc 13 776 14 is_stmt 0 view .LVU1778
	movq	-24(%rax), %rax	 # MEM[(long long int *)_189 + -24B], MEM[(long long int *)_189 + -24B]
.LBE5358:
.LBE5357:
 # C:/msys64/ucrt64/include/c++/14.2.0/ostream:578:       if (__out.width() != 0)
	.loc 12 578 7 discriminator 1 view .LVU1779
	cmpq	$0, 16(%rsi,%rax)	 #, MEM[(const struct ios_base *)_192]._M_width
	je	.L201	 #,
 # C:/msys64/ucrt64/include/c++/14.2.0/ostream:579: 	return __ostream_insert(__out, &__c, 1);
	.loc 12 579 25 view .LVU1780
	leaq	63(%rsp), %rdx	 #, tmp290
.LVL512:
	.loc 12 579 25 view .LVU1781
	movl	$1, %r8d	 #,
	movq	%rsi, %rcx	 # _194,
	call	_ZSt16__ostream_insertIcSt11char_traitsIcEERSt13basic_ostreamIT_T0_ES6_PKS3_x	 #
.LVL513:
	.loc 12 579 25 view .LVU1782
	movq	%rax, %rsi	 # tmp343, _194
.LVL514:
.L202:
	.loc 12 579 25 view .LVU1783
.LBE5359:
.LBE5355:
.LBB5361:
.LBI5361:
	.loc 12 228 7 is_stmt 1 view .LVU1784
.LBB5362:
 # C:/msys64/ucrt64/include/c++/14.2.0/ostream:229:       { return _M_insert(__f); }
	.loc 12 229 25 is_stmt 0 view .LVU1785
	vmovsd	696(%rsp), %xmm1	 # sum,
	movq	%rsi, %rcx	 # _194,
	call	_ZNSo9_M_insertIdEERSoT_	 #
.LVL515:
	movq	%rax, %rcx	 # tmp344, _62
.LVL516:
	.loc 12 229 25 view .LVU1786
.LBE5362:
.LBE5361:
.LBB5363:
.LBI5363:
	.loc 12 668 5 is_stmt 1 view .LVU1787
.LBB5364:
 # C:/msys64/ucrt64/include/c++/14.2.0/ostream:673: 	__ostream_insert(__out, __s,
	.loc 12 673 18 is_stmt 0 view .LVU1788
	movl	$1, %r8d	 #,
	leaq	.LC7(%rip), %rdx	 #, tmp291
	call	_ZSt16__ostream_insertIcSt11char_traitsIcEERSt13basic_ostreamIT_T0_ES6_PKS3_x	 #
.LVL517:
.LEHE22:
	.loc 12 673 18 view .LVU1789
.LBE5364:
.LBE5363:
.LBB5365:
.LBI5365:
	.loc 10 911 7 is_stmt 1 view .LVU1790
.LBB5366:
 # C:/msys64/ucrt64/include/c++/14.2.0/fstream:912:       { }
	.loc 10 912 9 is_stmt 0 view .LVU1791
	leaq	24(%rbx), %rax	 #, tmp293
.LBB5367:
.LBB5368:
 # C:/msys64/ucrt64/include/c++/14.2.0/fstream:259: 	  { this->close(); }
	.loc 10 259 17 view .LVU1792
	movq	%r12, %rcx	 # tmp315,
.LBE5368:
.LBE5367:
 # C:/msys64/ucrt64/include/c++/14.2.0/fstream:912:       { }
	.loc 10 912 9 view .LVU1793
	addq	$64, %rbx	 #, tmp295
	movq	%rax, 64(%rsp)	 # tmp293, f.D.107333._vptr.basic_ostream
.LBB5374:
.LBB5371:
 # C:/msys64/ucrt64/include/c++/14.2.0/fstream:262:       }
	.loc 10 262 7 view .LVU1794
	movq	.refptr._ZTVSt13basic_filebufIcSt11char_traitsIcEE(%rip), %rax	 #, tmp359
.LBE5371:
.LBE5374:
 # C:/msys64/ucrt64/include/c++/14.2.0/fstream:912:       { }
	.loc 10 912 9 view .LVU1795
	movq	%rbx, 280(%rsp)	 # tmp295, MEM[(struct basic_ios *)&f + 216B].D.51970._vptr.ios_base
.LVL518:
.LBB5375:
.LBI5367:
	.loc 10 256 7 is_stmt 1 view .LVU1796
.LBB5372:
 # C:/msys64/ucrt64/include/c++/14.2.0/fstream:262:       }
	.loc 10 262 7 is_stmt 0 view .LVU1797
	addq	$16, %rax	 #, tmp297
	movq	%rax, 72(%rsp)	 # tmp297, MEM[(struct basic_filebuf *)&f + 8B].D.106927._vptr.basic_streambuf
.LEHB23:
 # C:/msys64/ucrt64/include/c++/14.2.0/fstream:259: 	  { this->close(); }
	.loc 10 259 17 view .LVU1798
	call	_ZNSt13basic_filebufIcSt11char_traitsIcEE5closeEv	 #
.LVL519:
.LEHE23:
.L204:
 # C:/msys64/ucrt64/include/c++/14.2.0/fstream:262:       }
	.loc 10 262 7 view .LVU1799
	leaq	144(%rsp), %rcx	 #, tmp301
	call	_ZNSt12__basic_fileIcED1Ev	 #
.LVL520:
.LBB5369:
.LBI5369:
	.loc 14 204 7 is_stmt 1 view .LVU1800
.LBB5370:
 # C:/msys64/ucrt64/include/c++/14.2.0/streambuf:205:       { }
	.loc 14 205 9 is_stmt 0 view .LVU1801
	movq	.refptr._ZTVSt15basic_streambufIcSt11char_traitsIcEE(%rip), %rax	 #, tmp360
	leaq	128(%rsp), %rcx	 #, tmp305
	addq	$16, %rax	 #, tmp303
	movq	%rax, 72(%rsp)	 # tmp303, MEM[(struct basic_streambuf *)&f + 8B]._vptr.basic_streambuf
	call	_ZNSt6localeD1Ev	 #
.LVL521:
	.loc 14 205 9 view .LVU1802
.LBE5370:
.LBE5369:
.LBE5372:
.LBE5375:
.LBB5376:
.LBI5376:
	.loc 12 101 7 is_stmt 1 view .LVU1803
.LBB5377:
 # C:/msys64/ucrt64/include/c++/14.2.0/ostream:101:       ~basic_ostream() { }
	.loc 12 101 26 is_stmt 0 view .LVU1804
	movq	-24(%rdi), %rax	 # MEM[(long long int *)_73 + -24B], MEM[(long long int *)_73 + -24B]
	movq	%rdi, 64(%rsp)	 # _73, MEM[(struct basic_ostream *)&f]._vptr.basic_ostream
.LBE5377:
.LBE5376:
.LBB5379:
.LBB5380:
 # C:/msys64/ucrt64/include/c++/14.2.0/bits/basic_ios.h:286:       ~basic_ios() { }
	.loc 11 286 22 view .LVU1805
	movq	%r14, %rcx	 # tmp317,
.LBE5380:
.LBE5379:
.LBB5382:
.LBB5378:
 # C:/msys64/ucrt64/include/c++/14.2.0/ostream:101:       ~basic_ostream() { }
	.loc 12 101 26 view .LVU1806
	movq	%r15, 64(%rsp,%rax)	 # _77,
.LVL522:
	.loc 12 101 26 view .LVU1807
.LBE5378:
.LBE5382:
.LBB5383:
.LBI5379:
	.loc 11 286 7 is_stmt 1 view .LVU1808
.LBB5381:
 # C:/msys64/ucrt64/include/c++/14.2.0/bits/basic_ios.h:286:       ~basic_ios() { }
	.loc 11 286 22 is_stmt 0 view .LVU1809
	movq	.refptr._ZTVSt9basic_iosIcSt11char_traitsIcEE(%rip), %rax	 #, tmp361
	leaq	16(%rax), %rbp	 #, tmp308
.LVL523:
	.loc 11 286 22 view .LVU1810
	movq	%rbp, 280(%rsp)	 # tmp308, MEM[(struct basic_ios *)&f + 216B].D.51970._vptr.ios_base
	call	_ZNSt8ios_baseD2Ev	 #
	nop	
.LVL524:
	.loc 11 286 22 view .LVU1811
.LBE5381:
.LBE5383:
.LBE5366:
.LBE5365:
 # C:\Users\MattsDesktop\ECSE6320P1SIMD\Project1DotProduct\dotpMain.cpp:56: }
	.loc 1 56 1 view .LVU1812
	addq	$552, %rsp	 #,
	.cfi_remember_state
	.cfi_def_cfa_offset 72
	popq	%rbx	 #
	.cfi_restore 3
	.cfi_def_cfa_offset 64
	popq	%rsi	 #
	.cfi_restore 4
	.cfi_def_cfa_offset 56
	popq	%rdi	 #
	.cfi_restore 5
	.cfi_def_cfa_offset 48
	popq	%rbp	 #
	.cfi_restore 6
	.cfi_def_cfa_offset 40
	popq	%r12	 #
	.cfi_restore 12
	.cfi_def_cfa_offset 32
	popq	%r13	 #
	.cfi_restore 13
	.cfi_def_cfa_offset 24
	popq	%r14	 #
	.cfi_restore 14
	.cfi_def_cfa_offset 16
	popq	%r15	 #
	.cfi_restore 15
	.cfi_def_cfa_offset 8
	ret	
.LVL525:
	.p2align 4,,10
	.p2align 3
.L216:
	.cfi_restore_state
.LBB5386:
.LBB5300:
 # C:/msys64/ucrt64/include/c++/14.2.0/ostream:579: 	return __ostream_insert(__out, &__c, 1);
	.loc 12 579 25 view .LVU1813
	leaq	56(%rsp), %rdx	 #, tmp265
.LVL526:
	.loc 12 579 25 view .LVU1814
	movl	$1, %r8d	 #,
.LEHB24:
	call	_ZSt16__ostream_insertIcSt11char_traitsIcEERSt13basic_ostreamIT_T0_ES6_PKS3_x	 #
.LVL527:
	.loc 12 579 25 view .LVU1815
	movq	%rax, %rcx	 # tmp329, _131
 # C:/msys64/ucrt64/include/c++/14.2.0/ostream:579: 	return __ostream_insert(__out, &__c, 1);
	.loc 12 579 40 view .LVU1816
	jmp	.L188	 #
.LVL528:
	.p2align 4,,10
	.p2align 3
.L201:
	.loc 12 579 40 view .LVU1817
.LBE5300:
.LBE5386:
.LBB5387:
.LBB5360:
 # C:/msys64/ucrt64/include/c++/14.2.0/ostream:580:       __out.put(__c);
	.loc 12 580 16 view .LVU1818
	movl	$44, %edx	 #,
	movq	%rsi, %rcx	 # _194,
	call	_ZNSo3putEc	 #
.LVL529:
 # C:/msys64/ucrt64/include/c++/14.2.0/ostream:581:       return __out;
	.loc 12 581 14 view .LVU1819
	jmp	.L202	 #
.LVL530:
	.p2align 4,,10
	.p2align 3
.L199:
	.loc 12 581 14 view .LVU1820
.LBE5360:
.LBE5387:
.LBB5388:
.LBB5352:
 # C:/msys64/ucrt64/include/c++/14.2.0/ostream:580:       __out.put(__c);
	.loc 12 580 16 view .LVU1821
	movl	$44, %edx	 #,
	movq	%rsi, %rcx	 # _185,
	call	_ZNSo3putEc	 #
.LVL531:
 # C:/msys64/ucrt64/include/c++/14.2.0/ostream:581:       return __out;
	.loc 12 581 14 view .LVU1822
	jmp	.L200	 #
.LVL532:
	.p2align 4,,10
	.p2align 3
.L197:
	.loc 12 581 14 view .LVU1823
.LBE5352:
.LBE5388:
.LBB5389:
.LBB5344:
 # C:/msys64/ucrt64/include/c++/14.2.0/ostream:580:       __out.put(__c);
	.loc 12 580 16 view .LVU1824
	movl	$44, %edx	 #,
	movq	%rsi, %rcx	 # _176,
	call	_ZNSo3putEc	 #
.LVL533:
 # C:/msys64/ucrt64/include/c++/14.2.0/ostream:581:       return __out;
	.loc 12 581 14 view .LVU1825
	jmp	.L198	 #
.LVL534:
	.p2align 4,,10
	.p2align 3
.L195:
	.loc 12 581 14 view .LVU1826
.LBE5344:
.LBE5389:
.LBB5390:
.LBB5338:
 # C:/msys64/ucrt64/include/c++/14.2.0/ostream:580:       __out.put(__c);
	.loc 12 580 16 view .LVU1827
	movl	$44, %edx	 #,
	movq	%rsi, %rcx	 # _167,
	call	_ZNSo3putEc	 #
.LVL535:
 # C:/msys64/ucrt64/include/c++/14.2.0/ostream:581:       return __out;
	.loc 12 581 14 view .LVU1828
	jmp	.L196	 #
.LVL536:
	.p2align 4,,10
	.p2align 3
.L193:
	.loc 12 581 14 view .LVU1829
.LBE5338:
.LBE5390:
.LBB5391:
.LBB5330:
 # C:/msys64/ucrt64/include/c++/14.2.0/ostream:580:       __out.put(__c);
	.loc 12 580 16 view .LVU1830
	movl	$44, %edx	 #,
	movq	%rsi, %rcx	 # _158,
	call	_ZNSo3putEc	 #
.LVL537:
 # C:/msys64/ucrt64/include/c++/14.2.0/ostream:581:       return __out;
	.loc 12 581 14 view .LVU1831
	jmp	.L194	 #
.LVL538:
	.p2align 4,,10
	.p2align 3
.L191:
	.loc 12 581 14 view .LVU1832
.LBE5330:
.LBE5391:
.LBB5392:
.LBB5319:
 # C:/msys64/ucrt64/include/c++/14.2.0/ostream:580:       __out.put(__c);
	.loc 12 580 16 view .LVU1833
	movl	$44, %edx	 #,
	movq	%rcx, 40(%rsp)	 # _149, %sfp
	call	_ZNSo3putEc	 #
.LVL539:
	.loc 12 580 16 view .LVU1834
	movq	40(%rsp), %rcx	 # %sfp, _149
	jmp	.L192	 #
.LVL540:
	.p2align 4,,10
	.p2align 3
.L189:
	.loc 12 580 16 view .LVU1835
.LBE5319:
.LBE5392:
.LBB5393:
.LBB5311:
	movl	$44, %edx	 #,
	movq	%rcx, 40(%rsp)	 # _140, %sfp
	call	_ZNSo3putEc	 #
.LVL541:
.LEHE24:
	.loc 12 580 16 view .LVU1836
	movq	40(%rsp), %rcx	 # %sfp, _140
	jmp	.L190	 #
.LVL542:
	.p2align 4,,10
	.p2align 3
.L214:
	.loc 12 580 16 view .LVU1837
.LBE5311:
.LBE5393:
.LBB5394:
.LBB5274:
.LBB5269:
.LBB5261:
.LBB5260:
.LBB5259:
.LBI5251:
	.loc 10 970 7 is_stmt 1 view .LVU1838
.LBB5258:
.LBB5253:
.LBI5253:
	.loc 11 161 7 view .LVU1839
.LBB5254:
.LBB5255:
.LBI5255:
	.loc 11 141 7 view .LVU1840
	.loc 11 141 7 is_stmt 0 view .LVU1841
.LBE5255:
.LBB5256:
.LBI5256:
	.loc 13 186 3 is_stmt 1 view .LVU1842
.LBB5257:
	.loc 13 187 5 view .LVU1843
 # C:/msys64/ucrt64/include/c++/14.2.0/bits/ios_base.h:187:   { return _Ios_Iostate(static_cast<int>(__a) | static_cast<int>(__b)); }
	.loc 13 187 70 is_stmt 0 view .LVU1844
	movl	32(%rcx), %edx	 # MEM[(const struct basic_ios *)_212].D.51970._M_streambuf_state, _98
	orl	$4, %edx	 #, _98
.LEHB25:
.LBE5257:
.LBE5256:
 # C:/msys64/ucrt64/include/c++/14.2.0/bits/basic_ios.h:162:       { this->clear(this->rdstate() | __state); }
	.loc 11 162 20 discriminator 2 view .LVU1845
	call	_ZNSt9basic_iosIcSt11char_traitsIcEE5clearESt12_Ios_Iostate	 #
.LVL543:
.LEHE25:
	.loc 11 162 20 discriminator 2 view .LVU1846
.LBE5254:
.LBE5253:
.LBE5258:
.LBE5259:
.LBE5260:
.LBE5261:
.LBE5269:
.LBE5274:
.LBE5394:
.LBB5395:
	.loc 11 129 7 is_stmt 1 view .LVU1847
.LBB5287:
	.loc 11 205 7 view .LVU1848
.LBB5285:
	.loc 11 141 7 view .LVU1849
	.loc 11 141 7 is_stmt 0 view .LVU1850
.LBE5285:
.LBB5286:
	.loc 13 181 3 is_stmt 1 view .LVU1851
.LBB5284:
	.loc 13 182 5 view .LVU1852
	.loc 13 182 5 is_stmt 0 view .LVU1853
.LBE5284:
.LBE5286:
.LBE5287:
.LBE5395:
 # C:\Users\MattsDesktop\ECSE6320P1SIMD\Project1DotProduct\dotpMain.cpp:48:     if (!f) { std::cerr<<"CSV open failed\n"; return; }
	.loc 1 48 5 discriminator 1 view .LVU1854
	testb	$5, 312(%rsp)	 #, MEM[(const struct basic_ios *)&f + 216B].D.51970._M_streambuf_state
	je	.L212	 #,
.L215:
.LVL544:
.LBB5396:
.LBI5396:
	.loc 12 668 5 is_stmt 1 view .LVU1855
.LBB5397:
 # C:/msys64/ucrt64/include/c++/14.2.0/ostream:673: 	__ostream_insert(__out, __s,
	.loc 12 673 18 is_stmt 0 view .LVU1856
	movq	.refptr._ZSt4cerr(%rip), %rcx	 #,
	movl	$16, %r8d	 #,
	leaq	.LC5(%rip), %rdx	 #, tmp236
.LEHB26:
	call	_ZSt16__ostream_insertIcSt11char_traitsIcEERSt13basic_ostreamIT_T0_ES6_PKS3_x	 #
.LVL545:
.LEHE26:
	.loc 12 673 18 view .LVU1857
.LBE5397:
.LBE5396:
.LBB5398:
.LBI5398:
	.loc 10 911 7 is_stmt 1 view .LVU1858
.LBB5399:
 # C:/msys64/ucrt64/include/c++/14.2.0/fstream:912:       { }
	.loc 10 912 9 is_stmt 0 view .LVU1859
	leaq	24(%rbx), %rax	 #, tmp239
.LBB5400:
.LBB5401:
 # C:/msys64/ucrt64/include/c++/14.2.0/fstream:259: 	  { this->close(); }
	.loc 10 259 17 view .LVU1860
	movq	%r12, %rcx	 # tmp315,
.LBE5401:
.LBE5400:
 # C:/msys64/ucrt64/include/c++/14.2.0/fstream:912:       { }
	.loc 10 912 9 view .LVU1861
	addq	$64, %rbx	 #, tmp241
	movq	%rax, 64(%rsp)	 # tmp239, f.D.107333._vptr.basic_ostream
.LBB5405:
.LBB5402:
 # C:/msys64/ucrt64/include/c++/14.2.0/fstream:262:       }
	.loc 10 262 7 view .LVU1862
	movq	.refptr._ZTVSt13basic_filebufIcSt11char_traitsIcEE(%rip), %rax	 #, tmp354
.LBE5402:
.LBE5405:
 # C:/msys64/ucrt64/include/c++/14.2.0/fstream:912:       { }
	.loc 10 912 9 view .LVU1863
	movq	%rbx, 280(%rsp)	 # tmp241, MEM[(struct basic_ios *)&f + 216B].D.51970._vptr.ios_base
.LVL546:
.LBB5406:
.LBI5400:
	.loc 10 256 7 is_stmt 1 view .LVU1864
.LBB5403:
 # C:/msys64/ucrt64/include/c++/14.2.0/fstream:262:       }
	.loc 10 262 7 is_stmt 0 view .LVU1865
	addq	$16, %rax	 #, tmp243
	movq	%rax, 72(%rsp)	 # tmp243, MEM[(struct basic_filebuf *)&f + 8B].D.106927._vptr.basic_streambuf
.LEHB27:
 # C:/msys64/ucrt64/include/c++/14.2.0/fstream:259: 	  { this->close(); }
	.loc 10 259 17 view .LVU1866
	call	_ZNSt13basic_filebufIcSt11char_traitsIcEE5closeEv	 #
.LVL547:
.LEHE27:
	jmp	.L204	 #
.LVL548:
.L211:
	.loc 10 259 17 view .LVU1867
.LBE5403:
.LBE5406:
.LBE5399:
.LBE5398:
.LBB5409:
.LBB5385:
.LBB5384:
.LBB5373:
 # C:/msys64/ucrt64/include/c++/14.2.0/fstream:260: 	__catch(...)
	.loc 10 260 2 discriminator 1 view .LVU1868
	movq	%rax, %rcx	 # tmp345, tmp311
	vzeroupper
.LVL549:
	call	__cxa_begin_catch	 #
.LVL550:
 # C:/msys64/ucrt64/include/c++/14.2.0/fstream:260: 	__catch(...)
	.loc 10 260 2 discriminator 2 view .LVU1869
	call	__cxa_end_catch	 #
.LVL551:
	jmp	.L204	 #
.LVL552:
.L210:
	.loc 10 260 2 discriminator 2 view .LVU1870
.LBE5373:
.LBE5384:
.LBE5385:
.LBE5409:
.LBB5410:
.LBB5408:
.LBB5407:
.LBB5404:
 # C:/msys64/ucrt64/include/c++/14.2.0/fstream:260: 	__catch(...)
	.loc 10 260 2 discriminator 1 view .LVU1871
	movq	%rax, %rcx	 # tmp327, tmp257
	vzeroupper
.LVL553:
	call	__cxa_begin_catch	 #
.LVL554:
 # C:/msys64/ucrt64/include/c++/14.2.0/fstream:260: 	__catch(...)
	.loc 10 260 2 discriminator 2 view .LVU1872
	call	__cxa_end_catch	 #
.LVL555:
	jmp	.L204	 #
.LVL556:
.L209:
	.loc 10 260 2 discriminator 2 view .LVU1873
.LBE5404:
.LBE5407:
.LBE5408:
.LBE5410:
.LBB5411:
.LBB5275:
.LBB5270:
 # C:/msys64/ucrt64/include/c++/14.2.0/fstream:880:       }
	.loc 10 880 7 view .LVU1874
	movq	%rax, %rbx	 # tmp324, tmp226
	movq	%r12, %rcx	 # tmp315,
	vzeroupper
.LVL557:
	call	_ZNSt13basic_filebufIcSt11char_traitsIcEED1Ev	 #
.LVL558:
	movq	%rbx, %rax	 # tmp226, tmp225
.L181:
.LVL559:
.LBB5262:
.LBI5262:
	.loc 12 101 7 is_stmt 1 view .LVU1875
.LBB5263:
 # C:/msys64/ucrt64/include/c++/14.2.0/ostream:101:       ~basic_ostream() { }
	.loc 12 101 26 is_stmt 0 view .LVU1876
	movq	-24(%rdi), %rdx	 # MEM[(long long int *)_73 + -24B], MEM[(long long int *)_73 + -24B]
	movq	%rdi, 64(%rsp)	 # _73, MEM[(struct basic_ostream *)&f]._vptr.basic_ostream
	movq	%rax, %rbx	 # tmp225, tmp230
	movq	%r15, 64(%rsp,%rdx)	 # _77, MEM[(struct basic_ios *)_83].D.51970._vptr.ios_base
.LVL560:
	.loc 12 101 26 view .LVU1877
	jmp	.L182	 #
.LVL561:
.L206:
	.loc 12 101 26 view .LVU1878
.LBE5263:
.LBE5262:
.LBE5270:
.LBE5275:
.LBE5411:
 # C:\Users\MattsDesktop\ECSE6320P1SIMD\Project1DotProduct\dotpMain.cpp:56: }
	.loc 1 56 1 view .LVU1879
	movq	%rax, %rbx	 # tmp346, tmp313
	movq	%r13, %rcx	 # tmp314,
	vzeroupper
.LVL562:
	call	_ZNSt14basic_ofstreamIcSt11char_traitsIcEED1Ev	 #
.LVL563:
	movq	%rbx, %rcx	 # tmp313,
.LEHB28:
	call	_Unwind_Resume	 #
.LVL564:
.L208:
	.loc 1 56 1 view .LVU1880
	vzeroupper
.LVL565:
	jmp	.L181	 #
.LVL566:
.L207:
.LBB5412:
.LBB5276:
.LBB5271:
.LBB5264:
.LBB5265:
 # C:/msys64/ucrt64/include/c++/14.2.0/bits/basic_ios.h:286:       ~basic_ios() { }
	.loc 11 286 22 view .LVU1881
	movq	%rax, %rbx	 # tmp326, tmp230
	vzeroupper
.LVL567:
.L182:
	.loc 11 286 22 view .LVU1882
.LBE5265:
.LBI5264:
	.loc 11 286 7 is_stmt 1 view .LVU1883
.LBB5266:
 # C:/msys64/ucrt64/include/c++/14.2.0/bits/basic_ios.h:286:       ~basic_ios() { }
	.loc 11 286 22 is_stmt 0 view .LVU1884
	movq	.refptr._ZTVSt9basic_iosIcSt11char_traitsIcEE(%rip), %rax	 #, tmp353
	movq	%r14, %rcx	 # tmp317,
	leaq	16(%rax), %rbp	 #, tmp233
.LVL568:
	.loc 11 286 22 view .LVU1885
	movq	%rbp, 280(%rsp)	 # tmp233, MEM[(struct basic_ios *)&f + 216B].D.51970._vptr.ios_base
	call	_ZNSt8ios_baseD2Ev	 #
.LVL569:
	.loc 11 286 22 view .LVU1886
	movq	%rbx, %rcx	 # tmp230,
	call	_Unwind_Resume	 #
	nop	
.LVL570:
.LEHE28:
.LBE5266:
.LBE5264:
.LBE5271:
.LBE5276:
.LBE5412:
	.cfi_endproc
.LFE11630:
	.seh_handler	__gxx_personality_seh0, @unwind, @except
	.seh_handlerdata
	.align 4
.LLSDA11630:
	.byte	0xff
	.byte	0x9b
	.uleb128 .LLSDATT11630-.LLSDATTD11630
.LLSDATTD11630:
	.byte	0x1
	.uleb128 .LLSDACSE11630-.LLSDACSB11630
.LLSDACSB11630:
	.uleb128 .LEHB19-.LFB11630
	.uleb128 .LEHE19-.LEHB19
	.uleb128 .L207-.LFB11630
	.uleb128 0
	.uleb128 .LEHB20-.LFB11630
	.uleb128 .LEHE20-.LEHB20
	.uleb128 .L208-.LFB11630
	.uleb128 0
	.uleb128 .LEHB21-.LFB11630
	.uleb128 .LEHE21-.LEHB21
	.uleb128 .L209-.LFB11630
	.uleb128 0
	.uleb128 .LEHB22-.LFB11630
	.uleb128 .LEHE22-.LEHB22
	.uleb128 .L206-.LFB11630
	.uleb128 0
	.uleb128 .LEHB23-.LFB11630
	.uleb128 .LEHE23-.LEHB23
	.uleb128 .L211-.LFB11630
	.uleb128 0x1
	.uleb128 .LEHB24-.LFB11630
	.uleb128 .LEHE24-.LEHB24
	.uleb128 .L206-.LFB11630
	.uleb128 0
	.uleb128 .LEHB25-.LFB11630
	.uleb128 .LEHE25-.LEHB25
	.uleb128 .L209-.LFB11630
	.uleb128 0
	.uleb128 .LEHB26-.LFB11630
	.uleb128 .LEHE26-.LEHB26
	.uleb128 .L206-.LFB11630
	.uleb128 0
	.uleb128 .LEHB27-.LFB11630
	.uleb128 .LEHE27-.LEHB27
	.uleb128 .L210-.LFB11630
	.uleb128 0x1
	.uleb128 .LEHB28-.LFB11630
	.uleb128 .LEHE28-.LEHB28
	.uleb128 0
	.uleb128 0
.LLSDACSE11630:
	.byte	0x1
	.byte	0
	.align 4
	.long	0

.LLSDATT11630:
	.section	.text$_Z13log_per_trialIdEvRKNSt7__cxx1112basic_stringIcSt11char_traitsIcESaIcEEES7_S7_yS7_yiddT_,"x"
	.linkonce discard
	.seh_endproc
	.section	.text$_Z16sweep_contiguousIdEvPKcPFvPKT_S4_yRS2_E,"x"
	.linkonce discard
	.p2align 4
	.globl	_Z16sweep_contiguousIdEvPKcPFvPKT_S4_yRS2_E
	.def	_Z16sweep_contiguousIdEvPKcPFvPKT_S4_yRS2_E;	.scl	2;	.type	32;	.endef
	.seh_proc	_Z16sweep_contiguousIdEvPKcPFvPKT_S4_yRS2_E
_Z16sweep_contiguousIdEvPKcPFvPKT_S4_yRS2_E:
.LVL571:
.LFB11389:
	.loc 1 243 6 is_stmt 1 view -0
	.cfi_startproc
	.loc 1 243 6 is_stmt 0 view .LVU1888
	pushq	%r15	 #
	.seh_pushreg	%r15
	.cfi_def_cfa_offset 16
	.cfi_offset 15, -16
	pushq	%r14	 #
	.seh_pushreg	%r14
	.cfi_def_cfa_offset 24
	.cfi_offset 14, -24
	pushq	%r13	 #
	.seh_pushreg	%r13
	.cfi_def_cfa_offset 32
	.cfi_offset 13, -32
	pushq	%r12	 #
	.seh_pushreg	%r12
	.cfi_def_cfa_offset 40
	.cfi_offset 12, -40
	pushq	%rbp	 #
	.seh_pushreg	%rbp
	.cfi_def_cfa_offset 48
	.cfi_offset 6, -48
	pushq	%rdi	 #
	.seh_pushreg	%rdi
	.cfi_def_cfa_offset 56
	.cfi_offset 5, -56
	pushq	%rsi	 #
	.seh_pushreg	%rsi
	.cfi_def_cfa_offset 64
	.cfi_offset 4, -64
	pushq	%rbx	 #
	.seh_pushreg	%rbx
	.cfi_def_cfa_offset 72
	.cfi_offset 3, -72
	subq	$488, %rsp	 #,
	.seh_stackalloc	488
	.cfi_def_cfa_offset 560
	vmovups	%xmm6, 320(%rsp)	 #,
	.seh_savexmm	%xmm6, 320
	vmovups	%xmm7, 336(%rsp)	 #,
	.seh_savexmm	%xmm7, 336
	vmovups	%xmm8, 352(%rsp)	 #,
	.seh_savexmm	%xmm8, 352
	vmovups	%xmm9, 368(%rsp)	 #,
	.seh_savexmm	%xmm9, 368
	vmovups	%xmm10, 384(%rsp)	 #,
	.seh_savexmm	%xmm10, 384
	vmovups	%xmm11, 400(%rsp)	 #,
	.seh_savexmm	%xmm11, 400
	vmovups	%xmm12, 416(%rsp)	 #,
	.seh_savexmm	%xmm12, 416
	vmovups	%xmm13, 432(%rsp)	 #,
	.seh_savexmm	%xmm13, 432
	vmovups	%xmm14, 448(%rsp)	 #,
	.seh_savexmm	%xmm14, 448
	vmovups	%xmm15, 464(%rsp)	 #,
	.seh_savexmm	%xmm15, 464
	.cfi_offset 23, -240
	.cfi_offset 24, -224
	.cfi_offset 25, -208
	.cfi_offset 26, -192
	.cfi_offset 27, -176
	.cfi_offset 28, -160
	.cfi_offset 29, -144
	.cfi_offset 30, -128
	.cfi_offset 31, -112
	.cfi_offset 32, -96
	.seh_endprologue
.LVL572:
.LBB5934:
.LBI5934:
	.loc 15 161 7 is_stmt 1 view .LVU1889
.LBB5935:
.LBI5935:
	.loc 16 88 7 view .LVU1890
	.loc 16 88 7 is_stmt 0 view .LVU1891
.LBE5935:
.LBE5934:
.LBB5936:
.LBI5936:
	.loc 17 678 7 is_stmt 1 view .LVU1892
.LBB5937:
.LBI5937:
	.loc 17 320 7 view .LVU1893
.LBB5938:
.LBI5938:
	.loc 17 145 2 view .LVU1894
.LBB5939:
.LBI5939:
	.loc 15 165 7 view .LVU1895
.LBB5940:
.LBI5940:
	.loc 16 92 7 view .LVU1896
	.loc 16 92 7 is_stmt 0 view .LVU1897
.LBE5940:
.LBE5939:
.LBB5941:
.LBI5941:
	.loc 17 98 2 is_stmt 1 view .LVU1898
	.loc 17 98 2 is_stmt 0 view .LVU1899
.LBE5941:
.LBE5938:
.LBE5937:
.LBB5942:
.LBI5942:
	.loc 18 77 7 is_stmt 1 view .LVU1900
	.loc 18 77 7 is_stmt 0 view .LVU1901
.LBE5942:
.LBB5943:
.LBI5943:
	.loc 18 73 7 is_stmt 1 view .LVU1902
	.loc 18 73 7 is_stmt 0 view .LVU1903
.LBE5943:
.LBB5944:
.LBI5944:
	.loc 17 1689 2 is_stmt 1 view .LVU1904
.LBB5945:
.LBB5946:
.LBI5946:
	.loc 17 1917 7 view .LVU1905
.LBB5947:
.LBI5947:
	.loc 15 165 7 view .LVU1906
.LBB5948:
.LBI5948:
	.loc 16 92 7 view .LVU1907
	.loc 16 92 7 is_stmt 0 view .LVU1908
.LBE5948:
.LBE5947:
.LBB5949:
.LBI5949:
	.loc 15 182 7 is_stmt 1 view .LVU1909
.LBB5950:
.LBI5950:
	.loc 16 104 7 view .LVU1910
	.loc 16 104 7 is_stmt 0 view .LVU1911
.LBE5950:
.LBE5949:
.LBE5946:
.LBB5951:
.LBI5951:
	.loc 17 377 7 is_stmt 1 view .LVU1912
.LBB5952:
.LBB5953:
.LBI5953:
	.loc 19 477 7 view .LVU1913
.LBB5954:
.LBI5954:
	.loc 16 126 7 view .LVU1914
	.loc 16 126 7 is_stmt 0 view .LVU1915
	vxorps	%xmm9, %xmm9, %xmm9	 # tmp308
.LBE5954:
.LBE5953:
.LBE5952:
.LBE5951:
.LBE5945:
.LBE5944:
.LBE5936:
 # C:\Users\MattsDesktop\ECSE6320P1SIMD\Project1DotProduct\dotpMain.cpp:243: void sweep_contiguous(const char* label, void (*func)(const T*,const T*,size_t,T&)){
	.loc 1 243 6 view .LVU1916
	vmovq	%rcx, %xmm13	 # tmp294, label
	leaq	174(%rsp), %rdi	 #, ivtmp.784
.LBB6012:
.LBB6007:
.LBB6002:
.LBB5967:
.LBB5964:
.LBB5961:
.LBB5958:
.LBB5955:
 # C:/msys64/ucrt64/include/c++/14.2.0/bits/new_allocator.h:151: 	return static_cast<_Tp*>(_GLIBCXX_OPERATOR_NEW(__n * sizeof(_Tp)));
	.loc 16 151 48 view .LVU1917
	movl	$64, %ecx	 #,
.LVL573:
	.loc 16 151 48 view .LVU1918
.LBE5955:
.LBE5958:
.LBE5961:
.LBE5964:
.LBE5967:
.LBE6002:
.LBE6007:
.LBE6012:
 # C:\Users\MattsDesktop\ECSE6320P1SIMD\Project1DotProduct\dotpMain.cpp:243: void sweep_contiguous(const char* label, void (*func)(const T*,const T*,size_t,T&)){
	.loc 1 243 6 view .LVU1919
	vmovq	%rdx, %xmm14	 # tmp295, func
.LEHB29:
.LBB6013:
.LBB6008:
.LBB6003:
.LBB5968:
.LBB5965:
.LBB5962:
.LBB5959:
.LBB5956:
 # C:/msys64/ucrt64/include/c++/14.2.0/bits/new_allocator.h:151: 	return static_cast<_Tp*>(_GLIBCXX_OPERATOR_NEW(__n * sizeof(_Tp)));
	.loc 16 151 48 view .LVU1920
	call	_Znwy	 #
.LVL574:
.LEHE29:
	.loc 16 151 48 view .LVU1921
.LBE5956:
.LBE5959:
.LBE5962:
.LBE5965:
.LBE5968:
.LBE6003:
.LBE6008:
.LBE6013:
.LBB6014:
 # C:\Users\MattsDesktop\ECSE6320P1SIMD\Project1DotProduct\dotpMain.cpp:247:     for(bool mis:{false,true}){
	.loc 1 247 5 view .LVU1922
	movl	$256, %r8d	 #,
	movb	$0, 127(%rsp)	 #, %sfp
.LBE6014:
.LBB6658:
.LBB6009:
.LBB6004:
.LBB5969:
.LBB5970:
.LBB5971:
.LBB5972:
.LBB5973:
.LBB5974:
.LBB5975:
.LBB5976:
.LBB5977:
.LBB5978:
.LBB5979:
 # C:/msys64/ucrt64/include/c++/14.2.0/bits/stl_algobase.h:452: 	    __builtin_memmove(__result, __first, sizeof(_Tp) * _Num);
	.loc 20 452 23 view .LVU1923
	vmovdqu64	.LC8(%rip), %zmm0	 #, tmp160
	movq	%rdi, 144(%rsp)	 # ivtmp.784, %sfp
	leaq	176(%rsp), %rdi	 #, tmp275
.LBE5979:
.LBE5978:
.LBE5977:
.LBE5976:
.LBE5975:
.LBE5974:
.LBE5973:
.LBE5972:
.LBE5971:
.LBE5970:
.LBE5969:
.LBE6004:
.LBE6009:
.LBE6658:
.LBB6659:
.LBB6015:
.LBB6016:
.LBB6017:
.LBB6018:
.LBB6019:
.LBB6020:
.LBB6021:
.LBB6022:
.LBB6023:
.LBB6024:
 # C:/msys64/ucrt64/include/c++/14.2.0/bits/chrono.h:214: 	      static_cast<_CR>(__d.count()) / static_cast<_CR>(_CF::den)));
	.loc 21 214 38 discriminator 1 view .LVU1924
	vmovsd	.LC13(%rip), %xmm8	 #, tmp291
.LBE6024:
.LBE6023:
.LBE6022:
.LBE6021:
.LBE6020:
.LBE6019:
.LBE6018:
.LBE6017:
.LBE6016:
.LBE6015:
.LBE6659:
.LBB6660:
.LBB6010:
.LBB6005:
.LBB5999:
.LBB5966:
.LBB5963:
.LBB5960:
.LBB5957:
 # C:/msys64/ucrt64/include/c++/14.2.0/bits/new_allocator.h:151: 	return static_cast<_Tp*>(_GLIBCXX_OPERATOR_NEW(__n * sizeof(_Tp)));
	.loc 16 151 48 view .LVU1925
	movq	%rax, 152(%rsp)	 # _160, %sfp
.LVL575:
	.loc 16 151 48 view .LVU1926
.LBE5957:
.LBE5960:
.LBE5963:
.LBE5966:
.LBE5999:
.LBB6000:
.LBI5969:
	.loc 22 366 5 is_stmt 1 view .LVU1927
.LBB5997:
.LBI5970:
	.loc 22 163 5 view .LVU1928
.LBB5995:
.LBB5993:
.LBI5972:
	.loc 22 145 9 view .LVU1929
.LBB5991:
.LBI5973:
	.loc 20 642 5 view .LVU1930
.LBB5989:
.LBI5974:
	.loc 20 553 5 view .LVU1931
.LBB5987:
.LBI5975:
	.loc 20 547 5 view .LVU1932
.LBB5985:
.LBI5976:
	.loc 20 512 5 view .LVU1933
.LBB5983:
.LBB5981:
.LBI5978:
	.loc 20 448 2 view .LVU1934
	.loc 20 448 2 is_stmt 0 view .LVU1935
	addq	$64, %rax	 #, _12
.LVL576:
	.loc 20 448 2 view .LVU1936
	movq	%rdi, 112(%rsp)	 # tmp275, %sfp
.LBE5981:
.LBE5983:
.LBE5985:
.LBE5987:
.LBE5989:
.LBE5991:
.LBE5993:
.LBE5995:
.LBE5997:
.LBE6000:
.LBE6005:
.LBE6010:
.LBE6660:
.LBB6661:
 # C:\Users\MattsDesktop\ECSE6320P1SIMD\Project1DotProduct\dotpMain.cpp:247:     for(bool mis:{false,true}){
	.loc 1 247 5 view .LVU1937
	movl	$1024, %edi	 #, n
	movw	%r8w, 174(%rsp)	 #, MEM <unsigned short> [(bool *)&D.129454]
.LBE6661:
.LBB6662:
.LBB6011:
.LBB6006:
.LBB6001:
.LBB5998:
.LBB5996:
.LBB5994:
.LBB5992:
.LBB5990:
.LBB5988:
.LBB5986:
.LBB5984:
.LBB5982:
.LBB5980:
 # C:/msys64/ucrt64/include/c++/14.2.0/bits/stl_algobase.h:452: 	    __builtin_memmove(__result, __first, sizeof(_Tp) * _Num);
	.loc 20 452 23 view .LVU1938
	vmovdqu64	%zmm0, -64(%rax)	 # tmp160, MEM <vector(64) unsigned char> [(char * {ref-all})_160]
.LVL577:
	.loc 20 452 23 view .LVU1939
.LBE5980:
.LBE5982:
.LBE5984:
.LBE5986:
.LBE5988:
.LBE5990:
.LBE5992:
.LBE5994:
.LBE5996:
.LBE5998:
.LBE6001:
.LBE6006:
.LBE6011:
.LBE6662:
.LBB6663:
.LBI6663:
	.loc 15 182 7 is_stmt 1 view .LVU1940
.LBB6664:
.LBI6664:
	.loc 16 104 7 view .LVU1941
	.loc 16 104 7 is_stmt 0 view .LVU1942
.LBE6664:
.LBE6663:
.LBB6665:
	.loc 1 247 5 is_stmt 1 discriminator 1 view .LVU1943
	vmovq	%rax, %xmm15	 # _12, _12
	vzeroupper
.LVL578:
.L218:
.LBB6655:
 # C:\Users\MattsDesktop\ECSE6320P1SIMD\Project1DotProduct\dotpMain.cpp:248:         use_aligned_loads = !mis;
	.loc 1 248 30 is_stmt 0 view .LVU1944
	movzbl	127(%rsp), %esi	 # %sfp, prephitmp_107
	leaq	.LC10(%rip), %r15	 #, iftmp.42_137
	movl	%esi, %eax	 # prephitmp_107, tmp161
	xorl	$1, %eax	 #, tmp161
	testb	%sil, %sil	 # prephitmp_107
	movb	%al, _ZL17use_aligned_loads(%rip)	 # tmp161, use_aligned_loads
.LVL579:
.LBB6652:
.LBB6644:
.LBI6644:
	.loc 17 873 7 is_stmt 1 view .LVU1945
.LBB6645:
.LBI6645:
	.loc 23 1067 7 view .LVU1946
	.loc 23 1067 7 is_stmt 0 view .LVU1947
.LBE6645:
.LBE6644:
.LBB6646:
.LBI6646:
	.loc 17 893 7 is_stmt 1 view .LVU1948
.LBB6647:
.LBI6647:
	.loc 23 1067 7 view .LVU1949
	.loc 23 1067 7 is_stmt 0 view .LVU1950
.LBE6647:
.LBE6646:
	.loc 1 249 9 is_stmt 1 discriminator 1 view .LVU1951
	leaq	.LC9(%rip), %rax	 #, tmp328
	cmovne	%rax, %r15	 # tmp328,, iftmp.42_137
	movq	152(%rsp), %rax	 # %sfp, _160
	movq	%rax, 104(%rsp)	 # _160, %sfp
	jmp	.L244	 #
.LVL580:
	.p2align 4,,10
	.p2align 3
.L219:
.LBB6648:
.LBB6621:
.LBI6621:
	.loc 1 81 13 view .LVU1952
.LBB6622:
.LBI6622:
	.loc 1 68 13 view .LVU1953
.LBB6623:
	.loc 1 69 5 view .LVU1954
	testq	%rsi, %rsi	 # x
	je	.L223	 #,
	.loc 1 71 5 view .LVU1955
 # C:\Users\MattsDesktop\ECSE6320P1SIMD\Project1DotProduct\dotpMain.cpp:71:     _aligned_free(p);
	.loc 1 71 18 is_stmt 0 view .LVU1956
	movq	%rsi, %rcx	 # x,
.LEHB30:
	call	*__imp__aligned_free(%rip)	 #
.LVL581:
.L223:
	.loc 1 71 18 view .LVU1957
.LBE6623:
.LBE6622:
.LBE6621:
.LBB6624:
.LBI6624:
	.loc 1 81 13 is_stmt 1 view .LVU1958
.LBB6625:
.LBI6625:
	.loc 1 68 13 view .LVU1959
.LBB6626:
	.loc 1 69 5 view .LVU1960
	testq	%rbx, %rbx	 # y
	je	.L224	 #,
	.loc 1 71 5 view .LVU1961
 # C:\Users\MattsDesktop\ECSE6320P1SIMD\Project1DotProduct\dotpMain.cpp:71:     _aligned_free(p);
	.loc 1 71 18 is_stmt 0 view .LVU1962
	movq	%rbx, %rcx	 # y,
	call	*__imp__aligned_free(%rip)	 #
.LVL582:
.L224:
	.loc 1 71 18 view .LVU1963
.LBE6626:
.LBE6625:
.LBE6624:
.LBE6648:
	.loc 1 249 9 is_stmt 1 discriminator 2 view .LVU1964
	.loc 1 249 9 discriminator 1 view .LVU1965
	addq	$8, 104(%rsp)	 #, %sfp
.LVL583:
	.loc 1 249 9 is_stmt 0 discriminator 1 view .LVU1966
